 gamex86

 Timestamp is 42bb9320 (Thu Jun 23 23:59:12 2005)

 Preferred load address is 10000000

 Start         Length     Name                   Class
 0001:00000000 0027027aH .text                   CODE
 0001:00270280 000099f3H .text$x                 CODE
 0001:00279c80 0001a551H .text$yc                CODE
 0001:002941e0 00006a9fH .text$yd                CODE
 0002:00000000 00000130H .idata$5                DATA
 0002:00000130 0003355aH .rdata                  DATA
 0002:0003368c 00000041H .rdata$debug            DATA
 0002:000336d0 00003f0cH .rdata$r                DATA
 0002:000375dc 00000004H .rtc$IAA                DATA
 0002:000375e0 0000010cH .rtc$IMZ                DATA
 0002:000376ec 00000004H .rtc$IZZ                DATA
 0002:000376f0 00000004H .rtc$TAA                DATA
 0002:000376f4 0000010cH .rtc$TMZ                DATA
 0002:00037800 00000004H .rtc$TZZ                DATA
 0002:00037804 0000c480H .xdata$x                DATA
 0002:00043c84 00000028H .idata$2                DATA
 0002:00043cac 00000014H .idata$3                DATA
 0002:00043cc0 00000130H .idata$4                DATA
 0002:00043df0 0000056cH .idata$6                DATA
 0002:00044360 00000049H .edata                  DATA
 0003:00000000 00000004H .CRT$XCA                DATA
 0003:00000004 00000004H .CRT$XCAA               DATA
 0003:00000008 0000138cH .CRT$XCU                DATA
 0003:00001394 00000004H .CRT$XCZ                DATA
 0003:00001398 00000004H .CRT$XIA                DATA
 0003:0000139c 00000010H .CRT$XIC                DATA
 0003:000013ac 00000004H .CRT$XIY                DATA
 0003:000013b0 00000004H .CRT$XIZ                DATA
 0003:000013b4 00000004H .CRT$XPA                DATA
 0003:000013b8 00000004H .CRT$XPX                DATA
 0003:000013bc 00000004H .CRT$XPZ                DATA
 0003:000013c0 00000004H .CRT$XTA                DATA
 0003:000013c4 00000004H .CRT$XTB                DATA
 0003:000013c8 00000004H .CRT$XTZ                DATA
 0003:000013d0 0000672cH .data                   DATA
 0003:00007b00 003571ecH .bss                    DATA

  Address         Publics by Value              Rva+Base     Lib:Object

 0000:00000000       ___safe_se_handler_table   00000000     <absolute>
 0000:00000000       ___safe_se_handler_count   00000000     <absolute>
 0000:00000000       __except_list              00000000     <absolute>
 0001:00000000       ??0idAnimState@@QAE@XZ     10001000 f   Actor.obj
 0001:00000090       ??1idAnimState@@QAE@XZ     10001090 f   Actor.obj
 0001:00000150       ?Save@idAnimState@@QBEXPAVidSaveGame@@@Z 10001150 f   Actor.obj
 0001:00000220       ?Restore@idAnimState@@QAEXPAVidRestoreGame@@@Z 10001220 f   Actor.obj
 0001:00000330       ?Init@idAnimState@@QAEXPAVidActor@@PAVidAnimator@@H@Z 10001330 f   Actor.obj
 0001:00000480       ?ManualControl@idThread@@QAEXXZ 10001480 f i Actor.obj
 0001:000004d0       ?EndThread@idThread@@QAEXXZ 100014d0 f i Actor.obj
 0001:00000510       ?Shutdown@idAnimState@@QAEXXZ 10001510 f   Actor.obj
 0001:000005a0       ?SetState@idAnimState@@QAEXPBDH@Z 100015a0 f   Actor.obj
 0001:000006f0       ?StopAnim@idAnimState@@QAEXH@Z 100016f0 f   Actor.obj
 0001:00000760       ?FRAME2MS@@YAHH@Z          10001760 f i Actor.obj
 0001:000007a0       ?PlayAnim@idAnimState@@QAEXH@Z 100017a0 f   Actor.obj
 0001:00000820       ?CycleAnim@idAnimState@@QAEXH@Z 10001820 f   Actor.obj
 0001:000008a0       ?BecomeIdle@idAnimState@@QAEXXZ 100018a0 f   Actor.obj
 0001:000008d0       ?Disabled@idAnimState@@QBE_NXZ 100018d0 f   Actor.obj
 0001:00000900       ?AnimDone@idAnimState@@QBE_NH@Z 10001900 f   Actor.obj
 0001:00000980       ?IsIdle@idAnimState@@QBE_NXZ 10001980 f   Actor.obj
 0001:000009e0       ?GetAnimFlags@idAnimState@@QBE?AUanimFlags_t@@XZ 100019e0 f   Actor.obj
 0001:00000ab0       ?Enable@idAnimState@@QAEXH@Z 10001ab0 f   Actor.obj
 0001:00000b40       ?Disable@idAnimState@@QAEXXZ 10001b40 f   Actor.obj
 0001:00000b80       ?UpdateState@idAnimState@@QAE_NXZ 10001b80 f   Actor.obj
 0001:00000c00       ?EnableDebugInfo@idThread@@QAEXXZ 10001c00 f i Actor.obj
 0001:00000c40       ?DisableDebugInfo@idThread@@QAEXXZ 10001c40 f i Actor.obj
 0001:00000c80       ?CreateInstance@idActor@@SAPAVidClass@@XZ 10001c80 f   Actor.obj
 0001:00000d70       ?GetType@idActor@@UBEPAVidTypeInfo@@XZ 10001d70 f   Actor.obj
 0001:00000da0       ??0idActor@@QAE@XZ         10001da0 f   Actor.obj
 0001:000010f0       ??_GidActor@@UAEPAXI@Z     100020f0 f i Actor.obj
 0001:000010f0       ??_EidActor@@UAEPAXI@Z     100020f0 f i Actor.obj
 0001:00001150       ??1idActor@@UAE@XZ         10002150 f   Actor.obj
 0001:000013d0       ??_GidClipModel@@QAEPAXI@Z 100023d0 f i Actor.obj
 0001:00001430       ?Spawn@idActor@@QAEXXZ     10002430 f   Actor.obj
 0001:00001ba0       ?FtoiFast@idMath@@SAHM@Z   10002ba0 f i Actor.obj
 0001:00001be0       ?FinishSetup@idActor@@AAEXXZ 10002be0 f   Actor.obj
 0001:00001cd0       ?SetupHead@idActor@@AAEXXZ 10002cd0 f   Actor.obj
 0001:000020b0       ??0idVec3@@QAE@XZ          100030b0 f i Actor.obj
 0001:000020e0       ?Zero@idVec3@@QAEXXZ       100030e0 f i Actor.obj
 0001:00002130       ??4idVec3@@QAEAAV0@ABV0@@Z 10003130 f i Actor.obj
 0001:00002190       ?CopyJointsFromBodyToHead@idActor@@IAEXXZ 10003190 f   Actor.obj
 0001:000024b0       ??HidVec3@@QBE?AV0@ABV0@@Z 100034b0 f i Actor.obj
 0001:00002530       ??0idVec3@@QAE@MMM@Z       10003530 f i Actor.obj
 0001:00002580       ?Restart@idActor@@UAEXXZ   10003580 f   Actor.obj
 0001:00002600       ?Save@idActor@@QBEXPAVidSaveGame@@@Z 10003600 f   Actor.obj
 0001:00002c80       ??ZidVec3@@QAEAAV0@ABV0@@Z 10003c80 f i Actor.obj
 0001:00002cf0       ?Restore@idActor@@QAEXPAVidRestoreGame@@@Z 10003cf0 f   Actor.obj
 0001:00003260       ?Hide@idActor@@UAEXXZ      10004260 f   Actor.obj
 0001:00003360       ?IsType@idClass@@QBE_NABVidTypeInfo@@@Z 10004360 f i Actor.obj
 0001:000033c0       ?IsType@idTypeInfo@@QBE_NABV1@@Z 100043c0 f i Actor.obj
 0001:00003430       ?Show@idActor@@UAEXXZ      10004430 f   Actor.obj
 0001:00003520       ?GetDefaultSurfaceType@idActor@@UBEHXZ 10004520 f   Actor.obj
 0001:00003550       ?ProjectOverlay@idActor@@UAEXABVidVec3@@0MPBD@Z 10004550 f   Actor.obj
 0001:00003630       ?LoadAF@idActor@@UAE_NXZ   10004630 f   Actor.obj
 0001:00003770       ?SetAnimator@idAF@@QAEXPAVidAnimator@@@Z 10004770 f i Actor.obj
 0001:000037b0       ?SetupBody@idActor@@QAEXXZ 100047b0 f   Actor.obj
 0001:00003d40       ??GidVec3@@QBE?AV0@ABV0@@Z 10004d40 f i Actor.obj
 0001:00003dc0       ??YidVec3@@QAEAAV0@ABV0@@Z 10004dc0 f i Actor.obj
 0001:00003e30       ?CheckBlink@idActor@@QAEXXZ 10004e30 f   Actor.obj
 0001:00003f70       ?RandomFloat@idRandom@@QAEMXZ 10004f70 f i Actor.obj
 0001:00003fd0       ?RandomInt@idRandom@@QAEHXZ 10004fd0 f i Actor.obj
 0001:00004020       ?GetPhysicsToVisualTransform@idActor@@UAE_NAAVidVec3@@AAVidMat3@@@Z 10005020 f   Actor.obj
 0001:000040b0       ?IsActive@idAF@@QBE_NXZ    100050b0 f i Actor.obj
 0001:000040f0       ?GetPhysicsToSoundTransform@idActor@@UAE_NAAVidVec3@@AAVidMat3@@@Z 100050f0 f   Actor.obj
 0001:000041e0       ??DidVec3@@QBE?AV0@M@Z     100051e0 f i Actor.obj
 0001:00004250       ?ShutdownThreads@idActor@@QAEXXZ 10005250 f   Actor.obj
 0001:00004350       ?ShouldConstructScriptObjectAtSpawn@idActor@@UBE_NXZ 10005350 f   Actor.obj
 0001:00004380       ?ConstructScriptObject@idActor@@UAEPAVidThread@@XZ 10005380 f   Actor.obj
 0001:00004540       ?GetScriptFunction@idActor@@QAEPBVfunction_t@@PBD@Z 10005540 f   Actor.obj
 0001:000045d0       ?SetState@idActor@@QAEXPBVfunction_t@@@Z 100055d0 f   Actor.obj
 0001:000046a0       ?SetState@idActor@@QAEXPBD@Z 100056a0 f   Actor.obj
 0001:00004700       ?UpdateScript@idActor@@QAEXXZ 10005700 f   Actor.obj
 0001:00004800       ?SetFOV@idActor@@QAEXM@Z   10005800 f   Actor.obj
 0001:00004860       ?cos@@YAMM@Z               10005860 f i Actor.obj
 0001:000048a0       _cosf                      100058a0 f i Actor.obj
 0001:000048f0       ?SetEyeHeight@idActor@@QAEXM@Z 100058f0 f   Actor.obj
 0001:00004930       ?EyeHeight@idActor@@QBEMXZ 10005930 f   Actor.obj
 0001:00004970       ?EyeOffset@idActor@@QBE?AVidVec3@@XZ 10005970 f   Actor.obj
 0001:00004a00       ?GetEyePosition@idActor@@QBE?AVidVec3@@XZ 10005a00 f   Actor.obj
 0001:00004ac0       ?GetViewPos@idActor@@UBEXAAVidVec3@@AAVidMat3@@@Z 10005ac0 f   Actor.obj
 0001:00004b30       ?CheckFOV@idActor@@QBE_NABVidVec3@@@Z 10005b30 f   Actor.obj
 0001:00004c90       ??DidVec3@@QBEMABV0@@Z     10005c90 f i Actor.obj
 0001:00004cf0       ?Normalize@idVec3@@QAEMXZ  10005cf0 f i Actor.obj
 0001:00004d90       ?InvSqrt@idMath@@SAMM@Z    10005d90 f i Actor.obj
 0001:00004e90       ?CanSee@idActor@@QBE_NPAVidEntity@@_N@Z 10005e90 f   Actor.obj
 0001:00005040       ?TracePoint@idClip@@QAE_NAAUtrace_s@@ABVidVec3@@1HPBVidEntity@@@Z 10006040 f i Actor.obj
 0001:000050d0       ??0trace_s@@QAE@XZ         100060d0 f i Actor.obj
 0001:00005130       ??0contactInfo_t@@QAE@XZ   10006130 f i Actor.obj
 0001:00005180       ?PointVisible@idActor@@QBE_NABVidVec3@@@Z 10006180 f   Actor.obj
 0001:000052d0       ??AidVec3@@QAEAAMH@Z       100062d0 f i Actor.obj
 0001:00005310       ?GetAIAimTargets@idActor@@UAEXABVidVec3@@AAV2@1@Z 10006310 f   Actor.obj
 0001:000053f0       ?GetRenderView@idActor@@UAEPAUrenderView_s@@XZ 100063f0 f   Actor.obj
 0001:00005470       ?SetCombatModel@idActor@@QAEXXZ 10006470 f   Actor.obj
 0001:000055a0       ?GetCombatModel@idActor@@QBEPAVidClipModel@@XZ 100065a0 f   Actor.obj
 0001:000055e0       ?LinkCombat@idActor@@UAEXXZ 100065e0 f   Actor.obj
 0001:000056b0       ?UnlinkCombat@idActor@@UAEXXZ 100066b0 f   Actor.obj
 0001:00005730       ?StartRagdoll@idActor@@QAE_NXZ 10006730 f   Actor.obj
 0001:000059d0       ?IsLoaded@idAF@@QBE_NXZ    100069d0 f i Actor.obj
 0001:00005a30       ?GetPhysics@idAF@@QAEPAVidPhysics_AF@@XZ 10006a30 f i Actor.obj
 0001:00005a60       ?StopRagdoll@idActor@@QAEXXZ 10006a60 f   Actor.obj
 0001:00005ac0       ?UpdateAnimationControllers@idActor@@UAE_NXZ 10006ac0 f   Actor.obj
 0001:00005b60       ?RemoveAttachments@idActor@@IAEXXZ 10006b60 f   Actor.obj
 0001:00005c10       ?Attach@idActor@@QAEXPAVidEntity@@@Z 10006c10 f   Actor.obj
 0001:00005f10       ?Teleport@idActor@@UAEXABVidVec3@@ABVidAngles@@PAVidEntity@@@Z 10006f10 f   Actor.obj
 0001:00006010       ?GetDeltaViewAngles@idActor@@QBEABVidAngles@@XZ 10007010 f   Actor.obj
 0001:00006050       ?SetDeltaViewAngles@idActor@@QAEXABVidAngles@@@Z 10007050 f   Actor.obj
 0001:000060a0       ?HasEnemies@idActor@@QBE_NXZ 100070a0 f   Actor.obj
 0001:00006120       ?ClosestEnemyToPoint@idActor@@QAEPAV1@ABVidVec3@@@Z 10007120 f   Actor.obj
 0001:00006260       ?LengthSqr@idVec3@@QBEMXZ  10007260 f i Actor.obj
 0001:000062b0       ?EnemyWithMostHealth@idActor@@QAEPAV1@XZ 100072b0 f   Actor.obj
 0001:00006360       ?OnLadder@idActor@@UBE_NXZ 10007360 f   Actor.obj
 0001:00006390       ?GetAASLocation@idActor@@UBEXPAVidAAS@@AAVidVec3@@AAH@Z 10007390 f   Actor.obj
 0001:000064f0       ??GidVec3@@QBE?AV0@XZ      100074f0 f i Actor.obj
 0001:00006560       ?SetAnimState@idActor@@QAEXHPBDH@Z 10007560 f   Actor.obj
 0001:000066e0       ?GetAnimState@idActor@@QBEPBDH@Z 100076e0 f   Actor.obj
 0001:00006790       ?InAnimState@idActor@@QBE_NHPBD@Z 10007790 f   Actor.obj
 0001:00006870       ?WaitState@idActor@@QBEPBDXZ 10007870 f   Actor.obj
 0001:000068d0       ?SetWaitState@idActor@@QAEXPBD@Z 100078d0 f   Actor.obj
 0001:00006920       ?UpdateAnimState@idActor@@QAEXXZ 10007920 f   Actor.obj
 0001:00006990       ?GetAnim@idActor@@QAEHHPBD@Z 10007990 f   Actor.obj
 0001:00006a90       ?SyncAnimChannels@idActor@@AAEXHHH@Z 10007a90 f   Actor.obj
 0001:00006d30       ?Gib@idActor@@MAEXABVidVec3@@PBD@Z 10007d30 f   Actor.obj
 0001:00006df0       ?Damage@idActor@@UAEXPAVidEntity@@0ABVidVec3@@PBDMH@Z 10007df0 f   Actor.obj
 0001:00007080       ?ClearPain@idActor@@QAEXXZ 10008080 f   Actor.obj
 0001:000070c0       ?Pain@idActor@@UAE_NPAVidEntity@@0HABVidVec3@@H@Z 100080c0 f   Actor.obj
 0001:00007550       ?SpawnGibs@idActor@@UAEXABVidVec3@@PBD@Z 10008550 f   Actor.obj
 0001:000075b0       ?SetupDamageGroups@idActor@@QAEXXZ 100085b0 f   Actor.obj
 0001:000078b0       ?GetDamageForLocation@idActor@@QAEHHH@Z 100088b0 f   Actor.obj
 0001:00007940       ?ceil@@YAMM@Z              10008940 f i Actor.obj
 0001:00007980       _ceilf                     10008980 f i Actor.obj
 0001:000079d0       ?GetDamageGroup@idActor@@QAEPBDH@Z 100089d0 f   Actor.obj
 0001:00007a50       ?PlayFootStepSound@idActor@@AAEXXZ 10008a50 f   Actor.obj
 0001:00007b90       ?Event_EnableEyeFocus@idActor@@AAEXXZ 10008b90 f   Actor.obj
 0001:00007c30       ?Event_DisableEyeFocus@idActor@@AAEXXZ 10008c30 f   Actor.obj
 0001:00007ce0       ?Event_Footstep@idActor@@AAEXXZ 10008ce0 f   Actor.obj
 0001:00007d20       ?Event_EnableWalkIK@idActor@@AAEXXZ 10008d20 f   Actor.obj
 0001:00007d70       ?Event_DisableWalkIK@idActor@@AAEXXZ 10008d70 f   Actor.obj
 0001:00007dc0       ?Event_EnableLegIK@idActor@@AAEXH@Z 10008dc0 f   Actor.obj
 0001:00007e10       ?Event_DisableLegIK@idActor@@AAEXH@Z 10008e10 f   Actor.obj
 0001:00007e60       ?Event_PreventPain@idActor@@AAEXM@Z 10008e60 f   Actor.obj
 0001:00007ec0       ?Event_DisablePain@idActor@@AAEXXZ 10008ec0 f   Actor.obj
 0001:00007f00       ?Event_EnablePain@idActor@@AAEXXZ 10008f00 f   Actor.obj
 0001:00007f40       ?Event_GetPainAnim@idActor@@AAEXXZ 10008f40 f   Actor.obj
 0001:00007fb0       ?Event_SetAnimPrefix@idActor@@AAEXPBD@Z 10008fb0 f   Actor.obj
 0001:00008000       ?Event_StopAnim@idActor@@AAEXHH@Z 10009000 f   Actor.obj
 0001:000080b0       ?Event_PlayAnim@idActor@@AAEXHPBD@Z 100090b0 f   Actor.obj
 0001:00008470       ??_H@YGXPAXIHP6EPAX0@Z@Z   10009470 f i Actor.obj
 0001:000084d0       ?Event_PlayCycle@idActor@@AAEXHPBD@Z 100094d0 f   Actor.obj
 0001:00008870       ?Event_IdleAnim@idActor@@AAEXHPBD@Z 10009870 f   Actor.obj
 0001:00008d00       ?Event_SetSyncedAnimWeight@idActor@@AAEXHHM@Z 10009d00 f   Actor.obj
 0001:00008f70       ?Event_OverrideAnim@idActor@@AAEXH@Z 10009f70 f   Actor.obj
 0001:000090c0       ?Event_EnableAnim@idActor@@AAEXHH@Z 1000a0c0 f   Actor.obj
 0001:00009170       ?Event_SetBlendFrames@idActor@@AAEXHH@Z 1000a170 f   Actor.obj
 0001:00009230       ??0idMat3@@QAE@XZ          1000a230 f i Actor.obj
 0001:00009280       ?Event_GetBlendFrames@idActor@@AAEXH@Z 1000a280 f   Actor.obj
 0001:00009330       ?Event_AnimState@idActor@@AAEXHPBDH@Z 1000a330 f   Actor.obj
 0001:00009380       ?Event_GetAnimState@idActor@@AAEXH@Z 1000a380 f   Actor.obj
 0001:000093e0       ?Event_InAnimState@idActor@@AAEXHPBD@Z 1000a3e0 f   Actor.obj
 0001:00009440       ?Event_FinishAction@idActor@@AAEXPBD@Z 1000a440 f   Actor.obj
 0001:000094b0       ??AidMat3@@QBEABVidVec3@@H@Z 1000a4b0 f i Actor.obj
 0001:000094f0       ?Event_AnimDone@idActor@@AAEXHH@Z 1000a4f0 f   Actor.obj
 0001:000095d0       ?Event_HasAnim@idActor@@AAEXHPBD@Z 1000a5d0 f   Actor.obj
 0001:00009640       ?Event_CheckAnim@idActor@@AAEXHPBD@Z 1000a640 f   Actor.obj
 0001:00009700       ?Event_ChooseAnim@idActor@@AAEXHPBD@Z 1000a700 f   Actor.obj
 0001:000097e0       ??DidMat3@@QBE?AV0@ABV0@@Z 1000a7e0 f i Actor.obj
 0001:000098f0       ?Event_AnimLength@idActor@@AAEXHPBD@Z 1000a8f0 f   Actor.obj
 0001:00009a00       ?Event_AnimDistance@idActor@@AAEXHPBD@Z 1000aa00 f   Actor.obj
 0001:00009af0       ?Length@idVec3@@QBEMXZ     1000aaf0 f i Actor.obj
 0001:00009b60       ?Sqrt@idMath@@SAMM@Z       1000ab60 f i Actor.obj
 0001:00009bb0       ?Event_HasEnemies@idActor@@AAEXXZ 1000abb0 f   Actor.obj
 0001:00009c00       ?Event_NextEnemy@idActor@@AAEXPAVidEntity@@@Z 1000ac00 f   Actor.obj
 0001:00009d20       ?Event_ClosestEnemyToPoint@idActor@@AAEXABVidVec3@@@Z 1000ad20 f   Actor.obj
 0001:00009d80       ?Event_StopSound@idActor@@AAEXHH@Z 1000ad80 f   Actor.obj
 0001:00009e00       ?Event_SetNextState@idActor@@AAEXPBD@Z 1000ae00 f   Actor.obj
 0001:00009e70       ?Event_SetState@idActor@@AAEXPBD@Z 1000ae70 f   Actor.obj
 0001:00009ef0       ?DoneProcessing@idThread@@QAEXXZ 1000aef0 f i Actor.obj
 0001:00009f30       ?Event_GetState@idActor@@AAEXXZ 1000af30 f   Actor.obj
 0001:00009fa0       ?Event_GetHead@idActor@@AAEXXZ 1000afa0 f   Actor.obj
 0001:00009ff0       ??D@YA?AVidVec3@@ABV0@ABVidMat3@@@Z 1000aff0 f i Actor.obj
 0001:0000a040       ??DidMat3@@QBE?AVidVec3@@ABV1@@Z 1000b040 f i Actor.obj
 0001:0000a110       ??0?$idList@M@@QAE@H@Z     1000b110 f i Actor.obj
 0001:0000a190       ??1?$idList@M@@QAE@XZ      1000b190 f i Actor.obj
 0001:0000a1d0       ?Clear@?$idList@M@@QAEXXZ  1000b1d0 f i Actor.obj
 0001:0000a250       ?Num@?$idList@M@@QBEHXZ    1000b250 f i Actor.obj
 0001:0000a280       ??A?$idList@M@@QAEAAMH@Z   1000b280 f i Actor.obj
 0001:0000a310       ?Identity@idMat3@@QAEXXZ   1000b310 f i Actor.obj
 0001:0000a360       ??4idMat3@@QAEAAV0@ABV0@@Z 1000b360 f i Actor.obj
 0001:0000a3d0       ??A?$idList@M@@QBEABMH@Z   1000b3d0 f i Actor.obj
 0001:0000a460       ?SetNum@?$idList@M@@QAEXH_N@Z 1000b460 f i Actor.obj
 0001:0000a4e0       ?Transpose@idMat3@@QBE?AV1@XZ 1000b4e0 f i Actor.obj
 0001:0000a5c0       ??AidVec3@@QBEMH@Z         1000b5c0 f i Actor.obj
 0001:0000a600       ??0idMat3@@QAE@MMMMMMMMM@Z 1000b600 f i Actor.obj
 0001:0000a6a0       ??0?$idList@VidStr@@@@QAE@H@Z 1000b6a0 f i Actor.obj
 0001:0000a720       ??1?$idList@VidStr@@@@QAE@XZ 1000b720 f i Actor.obj
 0001:0000a760       ?Num@?$idList@VidStr@@@@QBEHXZ 1000b760 f i Actor.obj
 0001:0000a790       ?SetGranularity@?$idList@VidStr@@@@QAEXH@Z 1000b790 f i Actor.obj
 0001:0000a840       ??A?$idList@VidStr@@@@QAEAAVidStr@@H@Z 1000b840 f i Actor.obj
 0001:0000a8d0       ??A?$idList@VidStr@@@@QBEABVidStr@@H@Z 1000b8d0 f i Actor.obj
 0001:0000a960       ?SetNum@?$idList@VidStr@@@@QAEXH_N@Z 1000b960 f i Actor.obj
 0001:0000a9e0       ?Save@?$idEntityPtr@VidEntity@@@@QBEXPAVidSaveGame@@@Z 1000b9e0 f i Actor.obj
 0001:0000aa30       ?Restore@?$idEntityPtr@VidEntity@@@@QAEXPAVidRestoreGame@@@Z 1000ba30 f i Actor.obj
 0001:0000aa80       ??4?$idEntityPtr@VidEntity@@@@QAEAAV0@PAVidEntity@@@Z 1000ba80 f i Actor.obj
 0001:0000aae0       ?GetEntity@?$idEntityPtr@VidEntity@@@@QBEPAVidEntity@@XZ 1000bae0 f i Actor.obj
 0001:0000ab40       ??0?$idEntityPtr@VidAFAttachment@@@@QAE@XZ 1000bb40 f i Actor.obj
 0001:0000ab80       ?Save@?$idEntityPtr@VidAFAttachment@@@@QBEXPAVidSaveGame@@@Z 1000bb80 f i Actor.obj
 0001:0000abd0       ?Restore@?$idEntityPtr@VidAFAttachment@@@@QAEXPAVidRestoreGame@@@Z 1000bbd0 f i Actor.obj
 0001:0000ac20       ??4?$idEntityPtr@VidAFAttachment@@@@QAEAAV0@PAVidAFAttachment@@@Z 1000bc20 f i Actor.obj
 0001:0000ac80       ?GetEntity@?$idEntityPtr@VidAFAttachment@@@@QBEPAVidAFAttachment@@XZ 1000bc80 f i Actor.obj
 0001:0000ace0       ??0?$idLinkList@VidActor@@@@QAE@XZ 1000bce0 f i Actor.obj
 0001:0000ad40       ??1?$idLinkList@VidActor@@@@QAE@XZ 1000bd40 f i Actor.obj
 0001:0000ad80       ?Num@?$idLinkList@VidActor@@@@QBEHXZ 1000bd80 f i Actor.obj
 0001:0000ade0       ?AddToEnd@?$idLinkList@VidActor@@@@QAEXAAV1@@Z 1000bde0 f i Actor.obj
 0001:0000ae30       ?Next@?$idLinkList@VidActor@@@@QBEPAVidActor@@XZ 1000be30 f i Actor.obj
 0001:0000ae80       ?SetOwner@?$idLinkList@VidActor@@@@QAEXPAVidActor@@@Z 1000be80 f i Actor.obj
 0001:0000aec0       ?ListHead@?$idLinkList@VidActor@@@@QBEPAV1@XZ 1000bec0 f i Actor.obj
 0001:0000aef0       ??0?$idList@UcopyJoints_t@@@@QAE@H@Z 1000bef0 f i Actor.obj
 0001:0000af70       ??1?$idList@UcopyJoints_t@@@@QAE@XZ 1000bf70 f i Actor.obj
 0001:0000afb0       ?Num@?$idList@UcopyJoints_t@@@@QBEHXZ 1000bfb0 f i Actor.obj
 0001:0000afe0       ??A?$idList@UcopyJoints_t@@@@QAEAAUcopyJoints_t@@H@Z 1000bfe0 f i Actor.obj
 0001:0000b070       ??A?$idList@UcopyJoints_t@@@@QBEABUcopyJoints_t@@H@Z 1000c070 f i Actor.obj
 0001:0000b100       ?SetNum@?$idList@UcopyJoints_t@@@@QAEXH_N@Z 1000c100 f i Actor.obj
 0001:0000b180       ?Append@?$idList@UcopyJoints_t@@@@QAEHABUcopyJoints_t@@@Z 1000c180 f i Actor.obj
 0001:0000b250       ??0?$idList@VidAttachInfo@@@@QAE@H@Z 1000c250 f i Actor.obj
 0001:0000b2d0       ??1?$idList@VidAttachInfo@@@@QAE@XZ 1000c2d0 f i Actor.obj
 0001:0000b310       ?Num@?$idList@VidAttachInfo@@@@QBEHXZ 1000c310 f i Actor.obj
 0001:0000b340       ?SetGranularity@?$idList@VidAttachInfo@@@@QAEXH@Z 1000c340 f i Actor.obj
 0001:0000b3f0       ??A?$idList@VidAttachInfo@@@@QAEAAVidAttachInfo@@H@Z 1000c3f0 f i Actor.obj
 0001:0000b480       ??A?$idList@VidAttachInfo@@@@QBEABVidAttachInfo@@H@Z 1000c480 f i Actor.obj
 0001:0000b510       ?Alloc@?$idList@VidAttachInfo@@@@QAEAAVidAttachInfo@@XZ 1000c510 f i Actor.obj
 0001:0000b5b0       ??0?$idList@W4jointHandle_t@@@@QAE@H@Z 1000c5b0 f i Actor.obj
 0001:0000b630       ??1?$idList@W4jointHandle_t@@@@QAE@XZ 1000c630 f i Actor.obj
 0001:0000b670       ?Clear@?$idList@W4jointHandle_t@@@@QAEXXZ 1000c670 f i Actor.obj
 0001:0000b6f0       ?Num@?$idList@W4jointHandle_t@@@@QBEHXZ 1000c6f0 f i Actor.obj
 0001:0000b720       ??A?$idList@W4jointHandle_t@@@@QAEAAW4jointHandle_t@@H@Z 1000c720 f i Actor.obj
 0001:0000b7b0       ?Resize@?$idList@M@@QAEXH@Z 1000c7b0 f i Actor.obj
 0001:0000b8d0       ?Clear@?$idList@VidStr@@@@QAEXXZ 1000c8d0 f i Actor.obj
 0001:0000b970       ?Resize@?$idList@VidStr@@@@QAEXH@Z 1000c970 f i Actor.obj
 0001:0000bb60       ?Clear@?$idLinkList@VidActor@@@@QAEXXZ 1000cb60 f i Actor.obj
 0001:0000bbd0       ?InsertBefore@?$idLinkList@VidActor@@@@QAEXAAV1@@Z 1000cbd0 f i Actor.obj
 0001:0000bc50       ?Clear@?$idList@UcopyJoints_t@@@@QAEXXZ 1000cc50 f i Actor.obj
 0001:0000bcd0       ?Resize@?$idList@UcopyJoints_t@@@@QAEXH@Z 1000ccd0 f i Actor.obj
 0001:0000be00       ?Clear@?$idList@VidAttachInfo@@@@QAEXXZ 1000ce00 f i Actor.obj
 0001:0000be80       ?Resize@?$idList@VidAttachInfo@@@@QAEXH@Z 1000ce80 f i Actor.obj
 0001:0000c030       ??_EidStr@@QAEPAXI@Z       1000d030 f i Actor.obj
 0001:0000c0d0       ??0idAttachInfo@@QAE@XZ    1000d0d0 f i Actor.obj
 0001:0000c120       ?Remove@?$idLinkList@VidActor@@@@QAEXXZ 1000d120 f i Actor.obj
 0001:0000c190       ??0?$idEntityPtr@VidEntity@@@@QAE@XZ 1000d190 f i Actor.obj
 0001:0000c1d0       ??0idAngles@@QAE@XZ        1000d1d0 f i Actor.obj
 0001:0000c200       ?Zero@idAngles@@QAEAAV1@XZ 1000d200 f i Actor.obj
 0001:0000c250       ??4idAngles@@QAEAAV0@ABV0@@Z 1000d250 f i Actor.obj
 0001:0000c2b0       ??0idBounds@@QAE@XZ        1000d2b0 f i Actor.obj
 0001:0000c300       ??AidBounds@@QBEABVidVec3@@H@Z 1000d300 f i Actor.obj
 0001:0000c340       ??AidBounds@@QAEAAVidVec3@@H@Z 1000d340 f i Actor.obj
 0001:0000c380       ?GetCenter@idBounds@@QBE?AVidVec3@@XZ 1000d380 f i Actor.obj
 0001:0000c450       ??0idStr@@QAE@XZ           1000d450 f i Actor.obj
 0001:0000c4a0       ?Init@idStr@@IAEXXZ        1000d4a0 f i Actor.obj
 0001:0000c500       ??0idStr@@QAE@PBD@Z        1000d500 f i Actor.obj
 0001:0000c590       ?EnsureAlloced@idStr@@IAEXH_N@Z 1000d590 f i Actor.obj
 0001:0000c5f0       ??1idStr@@QAE@XZ           1000d5f0 f i Actor.obj
 0001:0000c630       ?c_str@idStr@@QBEPBDXZ     1000d630 f i Actor.obj
 0001:0000c660       ??BidStr@@QAEPBDXZ         1000d660 f i Actor.obj
 0001:0000c6a0       ??BidStr@@QBEPBDXZ         1000d6a0 f i Actor.obj
 0001:0000c6e0       ??4idStr@@QAEXABV0@@Z      1000d6e0 f i Actor.obj
 0001:0000c770       ??8@YA_NABVidStr@@0@Z      1000d770 f i Actor.obj
 0001:0000c7c0       ??8@YA_NABVidStr@@PBD@Z    1000d7c0 f i Actor.obj
 0001:0000c830       ??9@YA_NABVidStr@@PBD@Z    1000d830 f i Actor.obj
 0001:0000c880       ?Length@idStr@@QBEHXZ      1000d880 f i Actor.obj
 0001:0000c8b0       ?Strip@idStr@@QAEXPBD@Z    1000d8b0 f i Actor.obj
 0001:0000c910       ?Length@idStr@@SAHPBD@Z    1000d910 f i Actor.obj
 0001:0000c960       ??0idToken@@QAE@XZ         1000d960 f i Actor.obj
 0001:0000c9b0       ??1idToken@@QAE@XZ         1000d9b0 f i Actor.obj
 0001:0000c9f0       ?GetKey@idKeyValue@@QBEABVidStr@@XZ 1000d9f0 f i Actor.obj
 0001:0000ca20       ?GetValue@idKeyValue@@QBEABVidStr@@XZ 1000da20 f i Actor.obj
 0001:0000ca50       ??0idDict@@QAE@XZ          1000da50 f i Actor.obj
 0001:0000cb00       ??0?$idList@VidKeyValue@@@@QAE@H@Z 1000db00 f i Actor.obj
 0001:0000cb80       ??1?$idList@VidKeyValue@@@@QAE@XZ 1000db80 f i Actor.obj
 0001:0000cbc0       ?SetGranularity@?$idList@VidKeyValue@@@@QAEXH@Z 1000dbc0 f i Actor.obj
 0001:0000cc70       ?Clear@?$idList@VidKeyValue@@@@QAEXXZ 1000dc70 f i Actor.obj
 0001:0000ccf0       ?Resize@?$idList@VidKeyValue@@@@QAEXH@Z 1000dcf0 f i Actor.obj
 0001:0000ce20       ??0idHashIndex@@QAE@XZ     1000de20 f i Actor.obj
 0001:0000ce70       ??1idHashIndex@@QAE@XZ     1000de70 f i Actor.obj
 0001:0000ceb0       ?Clear@idHashIndex@@QAEXHH@Z 1000deb0 f i Actor.obj
 0001:0000cf10       ?SetGranularity@idHashIndex@@QAEXH@Z 1000df10 f i Actor.obj
 0001:0000cf80       ??1idDict@@QAE@XZ          1000df80 f i Actor.obj
 0001:0000d010       ?GetString@idDict@@QBE_NPBD0PAPBD@Z 1000e010 f i Actor.obj
 0001:0000d080       ?GetString@idDict@@QBE_NPBD0AAVidStr@@@Z 1000e080 f i Actor.obj
 0001:0000d100       ?GetString@idDict@@QBEPBDPBD0@Z 1000e100 f i Actor.obj
 0001:0000d170       ?GetFloat@idDict@@QBEMPBD0@Z 1000e170 f i Actor.obj
 0001:0000d1d0       ?GetInt@idDict@@QBEHPBD0@Z 1000e1d0 f i Actor.obj
 0001:0000d230       ?GetBool@idDict@@QBE_NPBD0@Z 1000e230 f i Actor.obj
 0001:0000d290       ?GetVector@idDict@@QBE?AVidVec3@@PBD0@Z 1000e290 f i Actor.obj
 0001:0000d330       ?GetAngles@idDict@@QBE?AVidAngles@@PBD0@Z 1000e330 f i Actor.obj
 0001:0000d3d0       ?GetBool@idCVar@@QBE_NXZ   1000e3d0 f i Actor.obj
 0001:0000d410       ?GetInteger@idCVar@@QBEHXZ 1000e410 f i Actor.obj
 0001:0000d450       ?GetSurfaceType@idMaterial@@QBE?BW4surfTypes_t@@XZ 1000e450 f i Actor.obj
 0001:0000d490       ?BitsForInteger@idMath@@SAHH@Z 1000e490 f i Actor.obj
 0001:0000d4e0       ?ILog2@idMath@@SAHM@Z      1000e4e0 f i Actor.obj
 0001:0000d520       ??0idAF@@QAE@XZ            1000e520 f   AF.obj
 0001:0000d660       ??1idAF@@QAE@XZ            1000e660 f   AF.obj
 0001:0000d700       ?Save@idAF@@QBEXPAVidSaveGame@@@Z 1000e700 f   AF.obj
 0001:0000d7f0       ?GetName@idAF@@QBEPBDXZ    1000e7f0 f i AF.obj
 0001:0000d830       ?Restore@idAF@@QAEXPAVidRestoreGame@@@Z 1000e830 f   AF.obj
 0001:0000da10       ?UpdateAnimation@idAF@@QAE_NXZ 1000ea10 f   AF.obj
 0001:0000dee0       ?GetBounds@idAF@@QBE?AVidBounds@@XZ 1000eee0 f   AF.obj
 0001:0000e1e0       ?GetBounds@idClipModel@@QBEABVidBounds@@XZ 1000f1e0 f i AF.obj
 0001:0000e210       ?GetWorldOrigin@idAFBody@@QBEABVidVec3@@XZ 1000f210 f i AF.obj
 0001:0000e250       ?GetWorldAxis@idAFBody@@QBEABVidMat3@@XZ 1000f250 f i AF.obj
 0001:0000e290       ?GetClipModel@idAFBody@@QBEPAVidClipModel@@XZ 1000f290 f i AF.obj
 0001:0000e2c0       ?SetupPose@idAF@@QAEXPAVidEntity@@H@Z 1000f2c0 f   AF.obj
 0001:0000e530       ?SetWorldOrigin@idAFBody@@QAEXABVidVec3@@@Z 1000f530 f i AF.obj
 0001:0000e580       ?SetWorldAxis@idAFBody@@QAEXABVidMat3@@@Z 1000f580 f i AF.obj
 0001:0000e5d0       ?ChangePose@idAF@@QAEXPAVidEntity@@H@Z 1000f5d0 f   AF.obj
 0001:0000e8d0       ?SetLinearVelocity@idAFBody@@QBEXABVidVec3@@@Z 1000f8d0 f i AF.obj
 0001:0000e930       ?EntitiesTouchingAF@idAF@@QBEHQAUafTouch_s@@@Z 1000f930 f   AF.obj
 0001:0000eb70       ?GetEntity@idClipModel@@QBEPAVidEntity@@XZ 1000fb70 f i AF.obj
 0001:0000eba0       ?GetAbsBounds@idClipModel@@QBEABVidBounds@@XZ 1000fba0 f i AF.obj
 0001:0000ebd0       ?GetOrigin@idClipModel@@QBEABVidVec3@@XZ 1000fbd0 f i AF.obj
 0001:0000ec00       ?GetAxis@idClipModel@@QBEABVidMat3@@XZ 1000fc00 f i AF.obj
 0001:0000ec30       ?IsTraceModel@idClipModel@@QBE_NXZ 1000fc30 f i AF.obj
 0001:0000ec70       ?BodyForClipModelId@idAF@@QBEHH@Z 1000fc70 f   AF.obj
 0001:0000ed10       ?GetPhysicsToVisualTransform@idAF@@QBEXAAVidVec3@@AAVidMat3@@@Z 1000fd10 f   AF.obj
 0001:0000ed90       ?GetImpactInfo@idAF@@QAEXPAVidEntity@@HABVidVec3@@PAUimpactInfo_s@@@Z 1000fd90 f   AF.obj
 0001:0000ee10       ?ApplyImpulse@idAF@@QAEXPAVidEntity@@HABVidVec3@@1@Z 1000fe10 f   AF.obj
 0001:0000ee90       ?AddForce@idAF@@QAEXPAVidEntity@@HABVidVec3@@1@Z 1000fe90 f   AF.obj
 0001:0000ef10       ?AddBody@idAF@@IAEXPAVidAFBody@@PBVidJointMat@@PBDW4AFJointModType_t@@@Z 1000ff10 f   AF.obj
 0001:0000f1a0       ?SetBase@idAF@@IAEXPAVidAFBody@@PBVidJointMat@@@Z 100101a0 f   AF.obj
 0001:0000f250       ?LoadBody@idAF@@IAE_NPBVidDeclAF_Body@@PBVidJointMat@@@Z 10010250 f   AF.obj
 0001:0000fc40       ?SetContents@idClipModel@@QAEXH@Z 10010c40 f i AF.obj
 0001:0000fc80       ?IsEqual@idClipModel@@QBE_NABVidTraceModel@@@Z 10010c80 f i AF.obj
 0001:0000fd00       ?GetName@idAFBody@@QBEABVidStr@@XZ 10010d00 f i AF.obj
 0001:0000fd30       ?SetClipMask@idAFBody@@QAEXH@Z 10010d30 f i AF.obj
 0001:0000fd80       ?SetSelfCollision@idAFBody@@QAEX_N@Z 10010d80 f i AF.obj
 0001:0000fdd0       ?LoadConstraint@idAF@@IAE_NPBVidDeclAF_Constraint@@@Z 10010dd0 f   AF.obj
 0001:000108c0       ?SetFriction@idAFConstraint_BallAndSocketJoint@@QAEXM@Z 100118c0 f i AF.obj
 0001:00010900       ?SetFriction@idAFConstraint_UniversalJoint@@QAEXM@Z 10011900 f i AF.obj
 0001:00010940       ?SetFriction@idAFConstraint_Hinge@@QAEXM@Z 10011940 f i AF.obj
 0001:00010980       ?Load@idAF@@QAE_NPAVidEntity@@PBD@Z 10011980 f   AF.obj
 0001:00011330       ?GetType@idAFConstraint@@QBE?AW4constraintType_t@@XZ 10012330 f i AF.obj
 0001:00011360       ?GetName@idAFConstraint@@QBEABVidStr@@XZ 10012360 f i AF.obj
 0001:00011390       ?SetSelfCollision@idPhysics_AF@@QAEX_N@Z 10012390 f i AF.obj
 0001:000113d0       ?SetChanged@idPhysics_AF@@QAEXXZ 100123d0 f i AF.obj
 0001:000114b0       ??9idVec3@@QBE_NABV0@@Z    100124b0 f i AF.obj
 0001:00011500       ?Compare@idVec3@@QBE_NABV1@@Z 10012500 f i AF.obj
 0001:00011590       ?Start@idAF@@QAEXXZ        10012590 f   AF.obj
 0001:00011650       ?TestSolid@idAF@@IBE_NXZ   10012650 f   AF.obj
 0001:000118f0       ?GetClipMask@idAFBody@@QBEHXZ 100128f0 f i AF.obj
 0001:00011920       ?Fabs@idMath@@SAMM@Z       10012920 f i AF.obj
 0001:00011960       ?StartFromCurrentPose@idAF@@QAEXH@Z 10012960 f   AF.obj
 0001:00011a70       ?NormalVectors@idVec3@@QBEXAAV1@0@Z 10012a70 f i AF.obj
 0001:00011b90       ?Cross@idVec3@@QBE?AV1@ABV1@@Z 10012b90 f i AF.obj
 0001:00011c30       ?Stop@idAF@@QAEXXZ         10012c30 f   AF.obj
 0001:00011c90       ?Rest@idAF@@QAEXXZ         10012c90 f   AF.obj
 0001:00011ce0       ?SetConstraintPosition@idAF@@QAEXPBDABVidVec3@@@Z 10012ce0 f   AF.obj
 0001:00011e80       ?GetBody2@idAFConstraint@@QBEPAVidAFBody@@XZ 10012e80 f i AF.obj
 0001:00011eb0       ?OrthogonalBasis@idVec3@@QBEXAAV1@0@Z 10012eb0 f i AF.obj
 0001:00012110       ?SaveState@idAF@@QBEXAAVidDict@@@Z 10013110 f   AF.obj
 0001:000122f0       ?LoadState@idAF@@QAEXABVidDict@@@Z 100132f0 f   AF.obj
 0001:000124c0       ?AddBindConstraints@idAF@@QAEXXZ 100134c0 f   AF.obj
 0001:00012ca0       ?RemoveBindConstraints@idAF@@QAEXXZ 10013ca0 f   AF.obj
 0001:00012df0       ??0?$idList@H@@QAE@H@Z     10013df0 f i AF.obj
 0001:00012e70       ??1?$idList@H@@QAE@XZ      10013e70 f i AF.obj
 0001:00012eb0       ?Clear@?$idList@H@@QAEXXZ  10013eb0 f i AF.obj
 0001:00012f30       ?Num@?$idList@H@@QBEHXZ    10013f30 f i AF.obj
 0001:00012f60       ??A?$idList@H@@QAEAAHH@Z   10013f60 f i AF.obj
 0001:00012ff0       ??A?$idList@H@@QBEABHH@Z   10013ff0 f i AF.obj
 0001:00013080       ?AssureSize@?$idList@H@@QAEXH@Z 10014080 f i AF.obj
 0001:00013120       ?SubVec3@idVec6@@QAEAAVidVec3@@H@Z 10014120 f i AF.obj
 0001:00013160       ?Num@?$idList@PAVidDeclAF_Body@@@@QBEHXZ 10014160 f i AF.obj
 0001:00013190       ??A?$idList@PAVidDeclAF_Body@@@@QBEABQAVidDeclAF_Body@@H@Z 10014190 f i AF.obj
 0001:00013220       ?Num@?$idList@PAVidDeclAF_Constraint@@@@QBEHXZ 10014220 f i AF.obj
 0001:00013250       ??A?$idList@PAVidDeclAF_Constraint@@@@QBEABQAVidDeclAF_Constraint@@H@Z 10014250 f i AF.obj
 0001:000132e0       ??0?$idList@UjointConversion_s@@@@QAE@H@Z 100142e0 f i AF.obj
 0001:00013360       ??1?$idList@UjointConversion_s@@@@QAE@XZ 10014360 f i AF.obj
 0001:000133a0       ?Num@?$idList@UjointConversion_s@@@@QBEHXZ 100143a0 f i AF.obj
 0001:000133d0       ??A?$idList@UjointConversion_s@@@@QAEAAUjointConversion_s@@H@Z 100143d0 f i AF.obj
 0001:00013460       ??A?$idList@UjointConversion_s@@@@QBEABUjointConversion_s@@H@Z 10014460 f i AF.obj
 0001:000134f0       ?SetNum@?$idList@UjointConversion_s@@@@QAEXH_N@Z 100144f0 f i AF.obj
 0001:00013570       ??AidMat3@@QAEAAVidVec3@@H@Z 10014570 f i AF.obj
 0001:000135b0       ?Resize@?$idList@H@@QAEXH@Z 100145b0 f i AF.obj
 0001:000136d0       ??9idMat3@@QBE_NABV0@@Z    100146d0 f i AF.obj
 0001:00013720       ?Compare@idMat3@@QBE_NABV1@@Z 10014720 f i AF.obj
 0001:000137c0       ?Clear@?$idList@UjointConversion_s@@@@QAEXXZ 100147c0 f i AF.obj
 0001:00013840       ?Resize@?$idList@UjointConversion_s@@@@QAEXH@Z 10014840 f i AF.obj
 0001:000139e0       ??0jointConversion_s@@QAE@XZ 100149e0 f i AF.obj
 0001:00013a30       ??4jointConversion_s@@QAEAAU0@ABU0@@Z 10014a30 f i AF.obj
 0001:00013ac0       ??0idRotation@@QAE@ABVidVec3@@0M@Z 10014ac0 f i AF.obj
 0001:00013b50       ??D@YA?AVidVec3@@ABV0@ABVidRotation@@@Z 10014b50 f i AF.obj
 0001:00013ba0       ??DidRotation@@QBE?AVidVec3@@ABV1@@Z 10014ba0 f i AF.obj
 0001:00013c30       ??YidBounds@@QAEAAV0@ABV0@@Z 10014c30 f i AF.obj
 0001:00013c80       ?Clear@idBounds@@QAEXXZ    10014c80 f i AF.obj
 0001:00013d50       ?AddBounds@idBounds@@QAE_NABV1@@Z 10014d50 f i AF.obj
 0001:00013f90       ?Expand@idBounds@@QBE?AV1@M@Z 10014f90 f i AF.obj
 0001:00014060       ??0idBounds@@QAE@ABVidVec3@@0@Z 10015060 f i AF.obj
 0001:000140d0       ?IntersectsBounds@idBounds@@QBE_NABV1@@Z 100150d0 f i AF.obj
 0001:00014220       ?ToMat3@idJointMat@@QBE?AVidMat3@@XZ 10015220 f i AF.obj
 0001:000142b0       ?ToVec3@idJointMat@@QBE?AVidVec3@@XZ 100152b0 f i AF.obj
 0001:00014310       ??0idTraceModel@@QAE@XZ    10015310 f i AF.obj
 0001:000143f0       ?Zero@idBounds@@QAEXXZ     100153f0 f i AF.obj
 0001:00014490       ??0traceModelEdge_t@@QAE@XZ 10015490 f i AF.obj
 0001:000144e0       ??0traceModelPoly_t@@QAE@XZ 100154e0 f i AF.obj
 0001:00014530       ??8idTraceModel@@QBE_NABV0@@Z 10015530 f i AF.obj
 0001:00014580       ??H@YA?AVidStr@@PBDABV0@@Z 10015580 f i AF.obj
 0001:00014650       ??0idStr@@QAE@ABV0@@Z      10015650 f i AF.obj
 0001:000146d0       ??YidStr@@QAEAAV0@PBD@Z    100156d0 f i AF.obj
 0001:00014720       ?Icmp@idStr@@QBEHPBD@Z     10015720 f i AF.obj
 0001:00014790       ?Append@idStr@@QAEXABV1@@Z 10015790 f i AF.obj
 0001:00014840       ??AidStr@@QBEDH@Z          10015840 f i AF.obj
 0001:000148c0       ?Append@idStr@@QAEXPBD@Z   100158c0 f i AF.obj
 0001:00014980       ?GetName@idDecl@@QBEPBDXZ  10015980 f i AF.obj
 0001:000149e0       ?GetState@idDecl@@QBE?AW4declState_t@@XZ 100159e0 f i AF.obj
 0001:00014a40       ?ToVec3@idAFVector@@QBEABVidVec3@@XZ 10015a40 f i AF.obj
 0001:00014a70       ?CreateInstance@idMultiModelAF@@SAPAVidClass@@XZ 10015a70 f   AFEntity.obj
 0001:00014b60       ??0idMultiModelAF@@QAE@XZ  10015b60 f i AFEntity.obj
 0001:00014c10       ??_EidMultiModelAF@@UAEPAXI@Z 10015c10 f i AFEntity.obj
 0001:00014c10       ??_GidMultiModelAF@@UAEPAXI@Z 10015c10 f i AFEntity.obj
 0001:00014c70       ?GetType@idMultiModelAF@@UBEPAVidTypeInfo@@XZ 10015c70 f   AFEntity.obj
 0001:00014ca0       ?Spawn@idMultiModelAF@@QAEXXZ 10015ca0 f   AFEntity.obj
 0001:00014d00       ??1idMultiModelAF@@UAE@XZ  10015d00 f   AFEntity.obj
 0001:00014e30       ?SetModelForId@idMultiModelAF@@IAEXHABVidStr@@@Z 10015e30 f   AFEntity.obj
 0001:00014ef0       ?Present@idMultiModelAF@@UAEXXZ 10015ef0 f   AFEntity.obj
 0001:000150b0       ?Think@idMultiModelAF@@UAEXXZ 100160b0 f   AFEntity.obj
 0001:00015110       ?CreateInstance@idChain@@SAPAVidClass@@XZ 10016110 f   AFEntity.obj
 0001:00015200       ??0idChain@@QAE@XZ         10016200 f i AFEntity.obj
 0001:00015250       ??_GidChain@@UAEPAXI@Z     10016250 f i AFEntity.obj
 0001:00015250       ??_EidChain@@UAEPAXI@Z     10016250 f i AFEntity.obj
 0001:000152b0       ??1idChain@@UAE@XZ         100162b0 f i AFEntity.obj
 0001:000152f0       ?GetType@idChain@@UBEPAVidTypeInfo@@XZ 100162f0 f   AFEntity.obj
 0001:00015320       ?BuildChain@idChain@@IAEXABVidStr@@ABVidVec3@@MMMH_N@Z 10016320 f   AFEntity.obj
 0001:00015c10       ??4idTraceModel@@QAEAAV0@ABV0@@Z 10016c10 f i AFEntity.obj
 0001:00015d80       ??4traceModelEdge_t@@QAEAAU0@ABU0@@Z 10016d80 f i AFEntity.obj
 0001:00015e00       ??4traceModelPoly_t@@QAEAAU0@ABU0@@Z 10016e00 f i AFEntity.obj
 0001:00015ea0       ?Spawn@idChain@@QAEXXZ     10016ea0 f   AFEntity.obj
 0001:00016170       ?CreateInstance@idAFAttachment@@SAPAVidClass@@XZ 10017170 f   AFEntity.obj
 0001:00016260       ?GetType@idAFAttachment@@UBEPAVidTypeInfo@@XZ 10017260 f   AFEntity.obj
 0001:00016290       ??0idAFAttachment@@QAE@XZ  10017290 f   AFEntity.obj
 0001:00016310       ??_EidAFAttachment@@UAEPAXI@Z 10017310 f i AFEntity.obj
 0001:00016310       ??_GidAFAttachment@@UAEPAXI@Z 10017310 f i AFEntity.obj
 0001:00016370       ??1idAFAttachment@@UAE@XZ  10017370 f   AFEntity.obj
 0001:00016450       ?Spawn@idAFAttachment@@QAEXXZ 10017450 f   AFEntity.obj
 0001:000164b0       ?SetBody@idAFAttachment@@QAEXPAVidEntity@@PBDW4jointHandle_t@@@Z 100174b0 f   AFEntity.obj
 0001:00016560       ?ClearBody@idAFAttachment@@QAEXXZ 10017560 f   AFEntity.obj
 0001:000165d0       ?GetBody@idAFAttachment@@QBEPAVidEntity@@XZ 100175d0 f   AFEntity.obj
 0001:00016610       ?Save@idAFAttachment@@QBEXPAVidSaveGame@@@Z 10017610 f   AFEntity.obj
 0001:00016680       ?Restore@idAFAttachment@@QAEXPAVidRestoreGame@@@Z 10017680 f   AFEntity.obj
 0001:00016710       ?Hide@idAFAttachment@@UAEXXZ 10017710 f   AFEntity.obj
 0001:00016770       ?Show@idAFAttachment@@UAEXXZ 10017770 f   AFEntity.obj
 0001:000167d0       ?Damage@idAFAttachment@@UAEXPAVidEntity@@0ABVidVec3@@PBDMH@Z 100177d0 f   AFEntity.obj
 0001:00016860       ?AddDamageEffect@idAFAttachment@@UAEXABUtrace_s@@ABVidVec3@@PBD@Z 10017860 f   AFEntity.obj
 0001:00016920       ?GetImpactInfo@idAFAttachment@@UAEXPAVidEntity@@HABVidVec3@@PAUimpactInfo_s@@@Z 10017920 f   AFEntity.obj
 0001:000169c0       ?ApplyImpulse@idAFAttachment@@UAEXPAVidEntity@@HABVidVec3@@1@Z 100179c0 f   AFEntity.obj
 0001:00016a60       ?AddForce@idAFAttachment@@UAEXPAVidEntity@@HABVidVec3@@1@Z 10017a60 f   AFEntity.obj
 0001:00016b00       ?PlayIdleAnim@idAFAttachment@@QAEXH@Z 10017b00 f   AFEntity.obj
 0001:00016b90       ?Think@idAFAttachment@@UAEXXZ 10017b90 f   AFEntity.obj
 0001:00016bf0       ?SetCombatModel@idAFAttachment@@QAEXXZ 10017bf0 f   AFEntity.obj
 0001:00016d00       ?SetOwner@idClipModel@@QAEXPAVidEntity@@@Z 10017d00 f i AFEntity.obj
 0001:00016d40       ?GetCombatModel@idAFAttachment@@QBEPAVidClipModel@@XZ 10017d40 f   AFEntity.obj
 0001:00016d80       ?LinkCombat@idAFAttachment@@UAEXXZ 10017d80 f   AFEntity.obj
 0001:00016e20       ?UnlinkCombat@idAFAttachment@@UAEXXZ 10017e20 f   AFEntity.obj
 0001:00016e80       ?CreateInstance@idAFEntity_Base@@SAPAVidClass@@XZ 10017e80 f   AFEntity.obj
 0001:00016f70       ?GetType@idAFEntity_Base@@UBEPAVidTypeInfo@@XZ 10017f70 f   AFEntity.obj
 0001:00016fa0       ??0idAFEntity_Base@@QAE@XZ 10017fa0 f   AFEntity.obj
 0001:00017090       ??_GidAFEntity_Base@@UAEPAXI@Z 10018090 f i AFEntity.obj
 0001:00017090       ??_EidAFEntity_Base@@UAEPAXI@Z 10018090 f i AFEntity.obj
 0001:000170f0       ??1idAFEntity_Base@@UAE@XZ 100180f0 f   AFEntity.obj
 0001:000171d0       ?Save@idAFEntity_Base@@QBEXPAVidSaveGame@@@Z 100181d0 f   AFEntity.obj
 0001:00017280       ?Restore@idAFEntity_Base@@QAEXPAVidRestoreGame@@@Z 10018280 f   AFEntity.obj
 0001:00017340       ?Spawn@idAFEntity_Base@@QAEXXZ 10018340 f   AFEntity.obj
 0001:00017400       ?LoadAF@idAFEntity_Base@@UAE_NXZ 10018400 f   AFEntity.obj
 0001:00017630       ?Think@idAFEntity_Base@@UAEXXZ 10018630 f   AFEntity.obj
 0001:000176b0       ?BodyForClipModelId@idAFEntity_Base@@QBEHH@Z 100186b0 f   AFEntity.obj
 0001:00017700       ?SaveState@idAFEntity_Base@@QBEXAAVidDict@@@Z 10018700 f   AFEntity.obj
 0001:00017870       ?LoadState@idAFEntity_Base@@QAEXABVidDict@@@Z 10018870 f   AFEntity.obj
 0001:000178c0       ?AddBindConstraints@idAFEntity_Base@@QAEXXZ 100188c0 f   AFEntity.obj
 0001:00017910       ?RemoveBindConstraints@idAFEntity_Base@@QAEXXZ 10018910 f   AFEntity.obj
 0001:00017960       ?GetImpactInfo@idAFEntity_Base@@UAEXPAVidEntity@@HABVidVec3@@PAUimpactInfo_s@@@Z 10018960 f   AFEntity.obj
 0001:000179f0       ?ApplyImpulse@idAFEntity_Base@@UAEXPAVidEntity@@HABVidVec3@@1@Z 100189f0 f   AFEntity.obj
 0001:00017a90       ?AddForce@idAFEntity_Base@@UAEXPAVidEntity@@HABVidVec3@@1@Z 10018a90 f   AFEntity.obj
 0001:00017b30       ?Collide@idAFEntity_Base@@UAE_NABUtrace_s@@ABVidVec3@@@Z 10018b30 f   AFEntity.obj
 0001:00017c70       ?GetPhysicsToVisualTransform@idAFEntity_Base@@UAE_NAAVidVec3@@AAVidMat3@@@Z 10018c70 f   AFEntity.obj
 0001:00017cf0       ?UpdateAnimationControllers@idAFEntity_Base@@UAE_NXZ 10018cf0 f   AFEntity.obj
 0001:00017d60       ?SetCombatModel@idAFEntity_Base@@QAEXXZ 10018d60 f   AFEntity.obj
 0001:00017e60       ?GetCombatModel@idAFEntity_Base@@QBEPAVidClipModel@@XZ 10018e60 f   AFEntity.obj
 0001:00017ea0       ?SetCombatContents@idAFEntity_Base@@QAEX_N@Z 10018ea0 f   AFEntity.obj
 0001:00017fe0       ?GetContents@idClipModel@@QBEHXZ 10018fe0 f i AFEntity.obj
 0001:00018010       ?LinkCombat@idAFEntity_Base@@UAEXXZ 10019010 f   AFEntity.obj
 0001:000180b0       ?UnlinkCombat@idAFEntity_Base@@UAEXXZ 100190b0 f   AFEntity.obj
 0001:00018110       ?FreeModelDef@idAFEntity_Base@@UAEXXZ 10019110 f   AFEntity.obj
 0001:00018170       ?ShowEditingDialog@idAFEntity_Base@@UAEXXZ 10019170 f   AFEntity.obj
 0001:000181d0       ?DropAFs@idAFEntity_Base@@SAXPAVidEntity@@PBDPAV?$idList@PAVidEntity@@@@@Z 100191d0 f   AFEntity.obj
 0001:00018470       ?Event_SetConstraintPosition@idAFEntity_Base@@IAEXPBDABVidVec3@@@Z 10019470 f   AFEntity.obj
 0001:000184c0       ?CreateInstance@idAFEntity_Gibbable@@SAPAVidClass@@XZ 100194c0 f   AFEntity.obj
 0001:000185b0       ?GetType@idAFEntity_Gibbable@@UBEPAVidTypeInfo@@XZ 100195b0 f   AFEntity.obj
 0001:000185e0       ??0idAFEntity_Gibbable@@QAE@XZ 100195e0 f   AFEntity.obj
 0001:00018650       ??_EidAFEntity_Gibbable@@UAEPAXI@Z 10019650 f i AFEntity.obj
 0001:00018650       ??_GidAFEntity_Gibbable@@UAEPAXI@Z 10019650 f i AFEntity.obj
 0001:000186b0       ??1idAFEntity_Gibbable@@UAE@XZ 100196b0 f   AFEntity.obj
 0001:00018770       ?Save@idAFEntity_Gibbable@@QBEXPAVidSaveGame@@@Z 10019770 f   AFEntity.obj
 0001:000187e0       ?Restore@idAFEntity_Gibbable@@QAEXPAVidRestoreGame@@@Z 100197e0 f   AFEntity.obj
 0001:000188a0       ?Spawn@idAFEntity_Gibbable@@QAEXXZ 100198a0 f   AFEntity.obj
 0001:000188f0       ?InitSkeletonModel@idAFEntity_Gibbable@@IAEXXZ 100198f0 f   AFEntity.obj
 0001:00018aa0       ?Present@idAFEntity_Gibbable@@UAEXXZ 10019aa0 f   AFEntity.obj
 0001:00018c00       ??0renderEntity_s@@QAE@XZ  10019c00 f i AFEntity.obj
 0001:00018c60       ??4renderEntity_s@@QAEAAU0@ABU0@@Z 10019c60 f i AFEntity.obj
 0001:00018ea0       ?Damage@idAFEntity_Gibbable@@UAEXPAVidEntity@@0ABVidVec3@@PBDMH@Z 10019ea0 f   AFEntity.obj
 0001:00018f60       ?SpawnGibs@idAFEntity_Gibbable@@UAEXABVidVec3@@PBD@Z 10019f60 f   AFEntity.obj
 0001:00019430       ?NormalizeFast@idVec3@@QAEMXZ 1001a430 f i AFEntity.obj
 0001:000194d0       ?RSqrt@idMath@@SAMM@Z      1001a4d0 f i AFEntity.obj
 0001:00019540       ?Gib@idAFEntity_Gibbable@@MAEXABVidVec3@@PBD@Z 1001a540 f   AFEntity.obj
 0001:000197b0       ?SetGibTime@idGameLocal@@QAEXH@Z 1001a7b0 f i AFEntity.obj
 0001:000197f0       ?GetGibTime@idGameLocal@@QAEHXZ 1001a7f0 f i AFEntity.obj
 0001:00019830       ?GetAFPhysics@idAFEntity_Base@@QAEPAVidPhysics_AF@@XZ 1001a830 f i AFEntity.obj
 0001:00019880       ?Event_Gib@idAFEntity_Gibbable@@IAEXPBD@Z 1001a880 f   AFEntity.obj
 0001:000198f0       ?CreateInstance@idAFEntity_Generic@@SAPAVidClass@@XZ 1001a8f0 f   AFEntity.obj
 0001:000199e0       ?GetType@idAFEntity_Generic@@UBEPAVidTypeInfo@@XZ 1001a9e0 f   AFEntity.obj
 0001:00019a10       ??0idAFEntity_Generic@@QAE@XZ 1001aa10 f   AFEntity.obj
 0001:00019a70       ??_EidAFEntity_Generic@@UAEPAXI@Z 1001aa70 f i AFEntity.obj
 0001:00019a70       ??_GidAFEntity_Generic@@UAEPAXI@Z 1001aa70 f i AFEntity.obj
 0001:00019ad0       ??1idAFEntity_Generic@@UAE@XZ 1001aad0 f   AFEntity.obj
 0001:00019b20       ?Save@idAFEntity_Generic@@QBEXPAVidSaveGame@@@Z 1001ab20 f   AFEntity.obj
 0001:00019b70       ?Restore@idAFEntity_Generic@@QAEXPAVidRestoreGame@@@Z 1001ab70 f   AFEntity.obj
 0001:00019bc0       ?Think@idAFEntity_Generic@@UAEXXZ 1001abc0 f   AFEntity.obj
 0001:00019c20       ?Spawn@idAFEntity_Generic@@QAEXXZ 1001ac20 f   AFEntity.obj
 0001:00019d40       ?Event_Activate@idAFEntity_Generic@@AAEXPAVidEntity@@@Z 1001ad40 f   AFEntity.obj
 0001:00019f70       ??0idEventArg@@QAE@AAVidVec3@@@Z 1001af70 f i AFEntity.obj
 0001:00019fc0       ?CreateInstance@idAFEntity_WithAttachedHead@@SAPAVidClass@@XZ 1001afc0 f   AFEntity.obj
 0001:0001a0b0       ?GetType@idAFEntity_WithAttachedHead@@UBEPAVidTypeInfo@@XZ 1001b0b0 f   AFEntity.obj
 0001:0001a0e0       ??0idAFEntity_WithAttachedHead@@QAE@XZ 1001b0e0 f   AFEntity.obj
 0001:0001a180       ??_GidAFEntity_WithAttachedHead@@UAEPAXI@Z 1001b180 f i AFEntity.obj
 0001:0001a180       ??_EidAFEntity_WithAttachedHead@@UAEPAXI@Z 1001b180 f i AFEntity.obj
 0001:0001a1e0       ??1idAFEntity_WithAttachedHead@@UAE@XZ 1001b1e0 f   AFEntity.obj
 0001:0001a2a0       ?Spawn@idAFEntity_WithAttachedHead@@QAEXXZ 1001b2a0 f   AFEntity.obj
 0001:0001a440       ?Save@idAFEntity_WithAttachedHead@@QBEXPAVidSaveGame@@@Z 1001b440 f   AFEntity.obj
 0001:0001a490       ?Restore@idAFEntity_WithAttachedHead@@QAEXPAVidRestoreGame@@@Z 1001b490 f   AFEntity.obj
 0001:0001a4e0       ?SetupHead@idAFEntity_WithAttachedHead@@QAEXXZ 1001b4e0 f   AFEntity.obj
 0001:0001a740       ?Think@idAFEntity_WithAttachedHead@@UAEXXZ 1001b740 f   AFEntity.obj
 0001:0001a780       ?LinkCombat@idAFEntity_WithAttachedHead@@UAEXXZ 1001b780 f   AFEntity.obj
 0001:0001a840       ?UnlinkCombat@idAFEntity_WithAttachedHead@@UAEXXZ 1001b840 f   AFEntity.obj
 0001:0001a8c0       ?Hide@idAFEntity_WithAttachedHead@@UAEXXZ 1001b8c0 f   AFEntity.obj
 0001:0001a960       ?Show@idAFEntity_WithAttachedHead@@UAEXXZ 1001b960 f   AFEntity.obj
 0001:0001aa00       ?ProjectOverlay@idAFEntity_WithAttachedHead@@UAEXABVidVec3@@0MPBD@Z 1001ba00 f   AFEntity.obj
 0001:0001aab0       ?Gib@idAFEntity_WithAttachedHead@@MAEXABVidVec3@@PBD@Z 1001bab0 f   AFEntity.obj
 0001:0001ab50       ?Event_Gib@idAFEntity_WithAttachedHead@@AAEXPBD@Z 1001bb50 f   AFEntity.obj
 0001:0001abc0       ?Event_Activate@idAFEntity_WithAttachedHead@@AAEXPAVidEntity@@@Z 1001bbc0 f   AFEntity.obj
 0001:0001adf0       ?CreateInstance@idAFEntity_Vehicle@@SAPAVidClass@@XZ 1001bdf0 f   AFEntity.obj
 0001:0001aee0       ?GetType@idAFEntity_Vehicle@@UBEPAVidTypeInfo@@XZ 1001bee0 f   AFEntity.obj
 0001:0001af10       ??0idAFEntity_Vehicle@@QAE@XZ 1001bf10 f   AFEntity.obj
 0001:0001afc0       ??_GidAFEntity_Vehicle@@UAEPAXI@Z 1001bfc0 f i AFEntity.obj
 0001:0001afc0       ??_EidAFEntity_Vehicle@@UAEPAXI@Z 1001bfc0 f i AFEntity.obj
 0001:0001b020       ??1idAFEntity_Vehicle@@UAE@XZ 1001c020 f i AFEntity.obj
 0001:0001b060       ?Spawn@idAFEntity_Vehicle@@QAEXXZ 1001c060 f   AFEntity.obj
 0001:0001b240       ?Use@idAFEntity_Vehicle@@QAEXPAVidPlayer@@@Z 1001c240 f   AFEntity.obj
 0001:0001b410       ?SetComeToRest@idPhysics_AF@@QAEX_N@Z 1001c410 f i AFEntity.obj
 0001:0001b450       ?GetSteerAngle@idAFEntity_Vehicle@@IAEMXZ 1001c450 f   AFEntity.obj
 0001:0001b530       ?CreateInstance@idAFEntity_VehicleSimple@@SAPAVidClass@@XZ 1001c530 f   AFEntity.obj
 0001:0001b620       ?GetType@idAFEntity_VehicleSimple@@UBEPAVidTypeInfo@@XZ 1001c620 f   AFEntity.obj
 0001:0001b650       ??0idAFEntity_VehicleSimple@@QAE@XZ 1001c650 f   AFEntity.obj
 0001:0001b6d0       ??_GidAFEntity_VehicleSimple@@UAEPAXI@Z 1001c6d0 f i AFEntity.obj
 0001:0001b6d0       ??_EidAFEntity_VehicleSimple@@UAEPAXI@Z 1001c6d0 f i AFEntity.obj
 0001:0001b730       ??1idAFEntity_VehicleSimple@@UAE@XZ 1001c730 f   AFEntity.obj
 0001:0001b800       ?Spawn@idAFEntity_VehicleSimple@@QAEXXZ 1001c800 f   AFEntity.obj
 0001:0001bca0       ?Think@idAFEntity_VehicleSimple@@UAEXXZ 1001cca0 f   AFEntity.obj
 0001:0001c1e0       ?SetSteerAngle@idAFConstraint_Suspension@@QAEXM@Z 1001d1e0 f i AFEntity.obj
 0001:0001c220       ?EnableMotor@idAFConstraint_Suspension@@QAEX_N@Z 1001d220 f i AFEntity.obj
 0001:0001c260       ?SetMotorForce@idAFConstraint_Suspension@@QAEXM@Z 1001d260 f i AFEntity.obj
 0001:0001c2a0       ?SetMotorVelocity@idAFConstraint_Suspension@@QAEXM@Z 1001d2a0 f i AFEntity.obj
 0001:0001c2e0       ?CreateInstance@idAFEntity_VehicleFourWheels@@SAPAVidClass@@XZ 1001d2e0 f   AFEntity.obj
 0001:0001c3d0       ?GetType@idAFEntity_VehicleFourWheels@@UBEPAVidTypeInfo@@XZ 1001d3d0 f   AFEntity.obj
 0001:0001c400       ??0idAFEntity_VehicleFourWheels@@QAE@XZ 1001d400 f   AFEntity.obj
 0001:0001c4c0       ??_EidAFEntity_VehicleFourWheels@@UAEPAXI@Z 1001d4c0 f i AFEntity.obj
 0001:0001c4c0       ??_GidAFEntity_VehicleFourWheels@@UAEPAXI@Z 1001d4c0 f i AFEntity.obj
 0001:0001c520       ??1idAFEntity_VehicleFourWheels@@UAE@XZ 1001d520 f i AFEntity.obj
 0001:0001c560       ?Spawn@idAFEntity_VehicleFourWheels@@QAEXXZ 1001d560 f   AFEntity.obj
 0001:0001c7f0       ?Think@idAFEntity_VehicleFourWheels@@UAEXXZ 1001d7f0 f   AFEntity.obj
 0001:0001cd90       ?GetId@idClipModel@@QBEHXZ 1001dd90 f i AFEntity.obj
 0001:0001cdc0       ?GetContact@idAFConstraint_Contact@@QBEABUcontactInfo_t@@XZ 1001ddc0 f i AFEntity.obj
 0001:0001ce00       ?GetLinearVelocity@idAFBody@@QBEABVidVec3@@XZ 1001de00 f i AFEntity.obj
 0001:0001ce50       ?SetContactMotorVelocity@idAFBody@@QAEXM@Z 1001de50 f i AFEntity.obj
 0001:0001ce90       ?SetContactMotorForce@idAFBody@@QAEXM@Z 1001de90 f i AFEntity.obj
 0001:0001ced0       ?CreateInstance@idAFEntity_VehicleSixWheels@@SAPAVidClass@@XZ 1001ded0 f   AFEntity.obj
 0001:0001cfc0       ?GetType@idAFEntity_VehicleSixWheels@@UBEPAVidTypeInfo@@XZ 1001dfc0 f   AFEntity.obj
 0001:0001cff0       ??0idAFEntity_VehicleSixWheels@@QAE@XZ 1001dff0 f   AFEntity.obj
 0001:0001d0c0       ??_EidAFEntity_VehicleSixWheels@@UAEPAXI@Z 1001e0c0 f i AFEntity.obj
 0001:0001d0c0       ??_GidAFEntity_VehicleSixWheels@@UAEPAXI@Z 1001e0c0 f i AFEntity.obj
 0001:0001d120       ??1idAFEntity_VehicleSixWheels@@UAE@XZ 1001e120 f i AFEntity.obj
 0001:0001d160       ?Spawn@idAFEntity_VehicleSixWheels@@QAEXXZ 1001e160 f   AFEntity.obj
 0001:0001d3f0       ?Think@idAFEntity_VehicleSixWheels@@UAEXXZ 1001e3f0 f   AFEntity.obj
 0001:0001da00       ?CreateInstance@idAFEntity_SteamPipe@@SAPAVidClass@@XZ 1001ea00 f   AFEntity.obj
 0001:0001daf0       ?GetType@idAFEntity_SteamPipe@@UBEPAVidTypeInfo@@XZ 1001eaf0 f   AFEntity.obj
 0001:0001db20       ??0idAFEntity_SteamPipe@@QAE@XZ 1001eb20 f   AFEntity.obj
 0001:0001dc10       ??_GidAFEntity_SteamPipe@@UAEPAXI@Z 1001ec10 f i AFEntity.obj
 0001:0001dc10       ??_EidAFEntity_SteamPipe@@UAEPAXI@Z 1001ec10 f i AFEntity.obj
 0001:0001dc70       ??1idAFEntity_SteamPipe@@UAE@XZ 1001ec70 f   AFEntity.obj
 0001:0001dd30       ?Save@idAFEntity_SteamPipe@@QBEXPAVidSaveGame@@@Z 1001ed30 f   AFEntity.obj
 0001:0001dd60       ?Restore@idAFEntity_SteamPipe@@QAEXPAVidRestoreGame@@@Z 1001ed60 f   AFEntity.obj
 0001:0001ddb0       ?Spawn@idAFEntity_SteamPipe@@QAEXXZ 1001edb0 f   AFEntity.obj
 0001:0001dfd0       ?InitSteamRenderEntity@idAFEntity_SteamPipe@@AAEXXZ 1001efd0 f   AFEntity.obj
 0001:0001e220       ?Think@idAFEntity_SteamPipe@@UAEXXZ 1001f220 f   AFEntity.obj
 0001:0001e3f0       ?CRandomFloat@idRandom@@QAEMXZ 1001f3f0 f i AFEntity.obj
 0001:0001e440       ?CreateInstance@idAFEntity_ClawFourFingers@@SAPAVidClass@@XZ 1001f440 f   AFEntity.obj
 0001:0001e530       ?GetType@idAFEntity_ClawFourFingers@@UBEPAVidTypeInfo@@XZ 1001f530 f   AFEntity.obj
 0001:0001e560       ??0idAFEntity_ClawFourFingers@@QAE@XZ 1001f560 f   AFEntity.obj
 0001:0001e5e0       ??_GidAFEntity_ClawFourFingers@@UAEPAXI@Z 1001f5e0 f i AFEntity.obj
 0001:0001e5e0       ??_EidAFEntity_ClawFourFingers@@UAEPAXI@Z 1001f5e0 f i AFEntity.obj
 0001:0001e640       ??1idAFEntity_ClawFourFingers@@UAE@XZ 1001f640 f i AFEntity.obj
 0001:0001e680       ?Save@idAFEntity_ClawFourFingers@@QBEXPAVidSaveGame@@@Z 1001f680 f   AFEntity.obj
 0001:0001e700       ?Restore@idAFEntity_ClawFourFingers@@QAEXPAVidRestoreGame@@@Z 1001f700 f   AFEntity.obj
 0001:0001e7d0       ?Spawn@idAFEntity_ClawFourFingers@@QAEXXZ 1001f7d0 f   AFEntity.obj
 0001:0001e900       ?LockWorldConstraints@idPhysics_AF@@QAEX_N@Z 1001f900 f i AFEntity.obj
 0001:0001e940       ?SetForcePushable@idPhysics_AF@@QAEX_N@Z 1001f940 f i AFEntity.obj
 0001:0001e980       ?Event_SetFingerAngle@idAFEntity_ClawFourFingers@@AAEXM@Z 1001f980 f   AFEntity.obj
 0001:0001ea30       ?Event_StopFingers@idAFEntity_ClawFourFingers@@AAEXXZ 1001fa30 f   AFEntity.obj
 0001:0001eab0       ?AF_SpawnEntity@idGameEdit@@UAE_NPBD@Z 1001fab0 f   AFEntity.obj
 0001:0001edf0       ?KeepRunningPhysics@idAFEntity_Generic@@QAEXXZ 1001fdf0 f i AFEntity.obj
 0001:0001ee30       ?AF_UpdateEntities@idGameEdit@@UAEXPBD@Z 1001fe30 f   AFEntity.obj
 0001:0001ef80       ?GetAFName@idAFEntity_Base@@QBEPBDXZ 1001ff80 f i AFEntity.obj
 0001:0001efd0       ?AF_UndoChanges@idGameEdit@@UAEXXZ 1001ffd0 f   AFEntity.obj
 0001:0001f120       ?AF_CreateMesh@idGameEdit@@UAEPAVidRenderModel@@ABVidDict@@AAVidVec3@@AAVidMat3@@AA_N@Z 10020120 f   AFEntity.obj
 0001:000202b0       ?AssureSize@?$idList@H@@QAEXHABH@Z 100212b0 f i AFEntity.obj
 0001:00020380       ?Next@?$idLinkList@VidEntity@@@@QBEPAVidEntity@@XZ 10021380 f i AFEntity.obj
 0001:000203d0       ??0?$idList@PAVidEntity@@@@QAE@H@Z 100213d0 f i AFEntity.obj
 0001:00020450       ??1?$idList@PAVidEntity@@@@QAE@XZ 10021450 f i AFEntity.obj
 0001:00020490       ?Num@?$idList@PAVidEntity@@@@QBEHXZ 10021490 f i AFEntity.obj
 0001:000204c0       ??A?$idList@PAVidEntity@@@@QAEAAPAVidEntity@@H@Z 100214c0 f i AFEntity.obj
 0001:00020550       ?Append@?$idList@PAVidEntity@@@@QAEHABQAVidEntity@@@Z 10021550 f i AFEntity.obj
 0001:00020610       ??0?$idList@PAVidRenderModel@@@@QAE@H@Z 10021610 f i AFEntity.obj
 0001:00020690       ??1?$idList@PAVidRenderModel@@@@QAE@XZ 10021690 f i AFEntity.obj
 0001:000206d0       ?Num@?$idList@PAVidRenderModel@@@@QBEHXZ 100216d0 f i AFEntity.obj
 0001:00020700       ??A?$idList@PAVidRenderModel@@@@QAEAAPAVidRenderModel@@H@Z 10021700 f i AFEntity.obj
 0001:00020790       ?AssureSize@?$idList@PAVidRenderModel@@@@QAEXHABQAVidRenderModel@@@Z 10021790 f i AFEntity.obj
 0001:00020860       ?Clear@?$idList@PAVidEntity@@@@QAEXXZ 10021860 f i AFEntity.obj
 0001:000208e0       ?Resize@?$idList@PAVidEntity@@@@QAEXH@Z 100218e0 f i AFEntity.obj
 0001:00020a00       ?Clear@?$idList@PAVidRenderModel@@@@QAEXXZ 10021a00 f i AFEntity.obj
 0001:00020a80       ?Resize@?$idList@PAVidRenderModel@@@@QAEXH@Z 10021a80 f i AFEntity.obj
 0001:00020ba0       ??0idAngles@@QAE@MMM@Z     10021ba0 f i AFEntity.obj
 0001:00020bf0       ??0idRotation@@QAE@XZ      10021bf0 f i AFEntity.obj
 0001:00020c50       ?SetVec@idRotation@@QAEXABVidVec3@@@Z 10021c50 f i AFEntity.obj
 0001:00020ca0       ?SetVec@idRotation@@QAEXMMM@Z 10021ca0 f i AFEntity.obj
 0001:00020d20       ?SetAngle@idRotation@@QAEXM@Z 10021d20 f i AFEntity.obj
 0001:00020d60       ??4idBounds@@QAEAAV0@ABV0@@Z 10021d60 f i AFEntity.obj
 0001:00020dd0       ?SetRotation@idJointMat@@QAEXABVidMat3@@@Z 10021dd0 f i AFEntity.obj
 0001:00020ef0       ?SetTranslation@idJointMat@@QAEXABVidVec3@@@Z 10021ef0 f i AFEntity.obj
 0001:00020f60       ??0idTraceModel@@QAE@MM@Z  10021f60 f i AFEntity.obj
 0001:00021020       ??0idStr@@QAE@H@Z          10022020 f i AFEntity.obj
 0001:000210e0       ??0idStr@@QAE@M@Z          100220e0 f i AFEntity.obj
 0001:000211f0       ??H@YA?AVidStr@@ABV0@0@Z   100221f0 f i AFEntity.obj
 0001:000212c0       ?SetBool@idDict@@QAEXPBD_N@Z 100222c0 f i AFEntity.obj
 0001:00021320       ?GetFloat@idCVar@@QBEMXZ   10022320 f i AFEntity.obj
 0001:00021360       ?Invalidate@idDecl@@QAEXXZ 10022360 f i AFEntity.obj
 0001:000213c0       ?CreateInstance@idBrittleFracture@@SAPAVidClass@@XZ 100223c0 f   BrittleFracture.obj
 0001:000214b0       ?GetType@idBrittleFracture@@UBEPAVidTypeInfo@@XZ 100224b0 f   BrittleFracture.obj
 0001:000214e0       ??0idBrittleFracture@@QAE@XZ 100224e0 f   BrittleFracture.obj
 0001:00021690       ??_EidBrittleFracture@@UAEPAXI@Z 10022690 f i BrittleFracture.obj
 0001:00021690       ??_GidBrittleFracture@@UAEPAXI@Z 10022690 f i BrittleFracture.obj
 0001:000216f0       ??1idBrittleFracture@@UAE@XZ 100226f0 f   BrittleFracture.obj
 0001:00021860       ??_Gshard_s@@QAEPAXI@Z     10022860 f i BrittleFracture.obj
 0001:000218c0       ??1shard_s@@QAE@XZ         100228c0 f i BrittleFracture.obj
 0001:00021980       ?Save@idBrittleFracture@@QBEXPAVidSaveGame@@@Z 10022980 f   BrittleFracture.obj
 0001:00021e40       ?Restore@idBrittleFracture@@QAEXPAVidRestoreGame@@@Z 10022e40 f   BrittleFracture.obj
 0001:00022580       ??0shard_s@@QAE@XZ         10023580 f i BrittleFracture.obj
 0001:00022640       ?Spawn@idBrittleFracture@@QAEXXZ 10023640 f   BrittleFracture.obj
 0001:000229b0       ?ClampFloat@idMath@@SAMMMM@Z 100239b0 f i BrittleFracture.obj
 0001:00022a00       ?AddShard@idBrittleFracture@@AAEXPAVidClipModel@@AAVidFixedWinding@@@Z 10023a00 f   BrittleFracture.obj
 0001:00022b60       ??4idFixedWinding@@QAEAAV0@ABV0@@Z 10023b60 f i BrittleFracture.obj
 0001:00022c00       ?RemoveShard@idBrittleFracture@@AAEXH@Z 10023c00 f   BrittleFracture.obj
 0001:00022d00       ?SetId@idClipModel@@QAEXH@Z 10023d00 f i BrittleFracture.obj
 0001:00022d40       ?UpdateRenderEntity@idBrittleFracture@@ABE_NPAUrenderEntity_s@@PBUrenderView_s@@@Z 10023d40 f   BrittleFracture.obj
 0001:00023d30       ??AidVec2@@QAEAAMH@Z       10024d30 f i BrittleFracture.obj
 0001:00023d70       ?ModelCallback@idBrittleFracture@@CA_NPAUrenderEntity_s@@PBUrenderView_s@@@Z 10024d70 f   BrittleFracture.obj
 0001:00023de0       ?Present@idBrittleFracture@@UAEXXZ 10024de0 f   BrittleFracture.obj
 0001:00023ef0       ?Think@idBrittleFracture@@UAEXXZ 10024ef0 f   BrittleFracture.obj
 0001:00024160       ?ApplyImpulse@idBrittleFracture@@UAEXPAVidEntity@@HABVidVec3@@1@Z 10025160 f   BrittleFracture.obj
 0001:00024250       ?AddForce@idBrittleFracture@@UAEXPAVidEntity@@HABVidVec3@@1@Z 10025250 f   BrittleFracture.obj
 0001:00024340       ?ProjectDecal@idBrittleFracture@@QAEXABVidVec3@@0HPBD@Z 10025340 f   BrittleFracture.obj
 0001:00024bb0       ?sin@@YAMM@Z               10025bb0 f i BrittleFracture.obj
 0001:00024bf0       _sinf                      10025bf0 f i BrittleFracture.obj
 0001:00024c40       ??0idVec2@@QAE@XZ          10025c40 f i BrittleFracture.obj
 0001:00024c70       ?DropShard@idBrittleFracture@@AAEXPAUshard_s@@ABVidVec3@@1MH@Z 10025c70 f   BrittleFracture.obj
 0001:00025120       ??D@YA?AVidVec3@@MV0@@Z    10026120 f i BrittleFracture.obj
 0001:00025180       ?Shatter@idBrittleFracture@@AAEXABVidVec3@@0H@Z 10026180 f   BrittleFracture.obj
 0001:00025490       ?DropFloatingIslands@idBrittleFracture@@AAEXABVidVec3@@0H@Z 10026490 f   BrittleFracture.obj
 0001:00025790       ?Break@idBrittleFracture@@AAEXXZ 10026790 f   BrittleFracture.obj
 0001:00025810       ?IsBroken@idBrittleFracture@@QBE_NXZ 10026810 f   BrittleFracture.obj
 0001:00025860       ?Killed@idBrittleFracture@@UAEXPAVidEntity@@0HABVidVec3@@H@Z 10026860 f   BrittleFracture.obj
 0001:000258c0       ??0idVec4@@QAE@MMMM@Z      100268c0 f i BrittleFracture.obj
 0001:00025920       ?AddDamageEffect@idBrittleFracture@@UAEXABUtrace_s@@ABVidVec3@@PBD@Z 10026920 f   BrittleFracture.obj
 0001:00025990       ?Fracture_r@idBrittleFracture@@AAEXAAVidFixedWinding@@@Z 10026990 f   BrittleFracture.obj
 0001:00025fb0       ?CreateFractures@idBrittleFracture@@AAEXPBVidRenderModel@@@Z 10026fb0 f   BrittleFracture.obj
 0001:000262b0       ??AidVec2@@QBEMH@Z         100272b0 f i BrittleFracture.obj
 0001:000262f0       ?FindNeighbours@idBrittleFracture@@AAEXXZ 100272f0 f   BrittleFracture.obj
 0001:00026980       ?Event_Activate@idBrittleFracture@@AAEXPAVidEntity@@@Z 10027980 f   BrittleFracture.obj
 0001:000269e0       ?ToVec3@idVec5@@QBEABVidVec3@@XZ 100279e0 f i BrittleFracture.obj
 0001:00026a10       ?Event_Touch@idBrittleFracture@@AAEXPAVidEntity@@PAUtrace_s@@@Z 10027a10 f   BrittleFracture.obj
 0001:00026b80       ?ToVec3@idVec5@@QAEAAVidVec3@@XZ 10027b80 f i BrittleFracture.obj
 0001:00026bb0       ?ClientPredictionThink@idBrittleFracture@@UAEXXZ 10027bb0 f   BrittleFracture.obj
 0001:00026c10       ?ClientReceiveEvent@idBrittleFracture@@UAE_NHHABVidBitMsg@@@Z 10027c10 f   BrittleFracture.obj
 0001:00026e90       ??0?$idList@PAVidFixedWinding@@@@QAE@H@Z 10027e90 f i BrittleFracture.obj
 0001:00026f10       ??1?$idList@PAVidFixedWinding@@@@QAE@XZ 10027f10 f i BrittleFracture.obj
 0001:00026f50       ?Clear@?$idList@PAVidFixedWinding@@@@QAEXXZ 10027f50 f i BrittleFracture.obj
 0001:00026fd0       ?Num@?$idList@PAVidFixedWinding@@@@QBEHXZ 10027fd0 f i BrittleFracture.obj
 0001:00027000       ??A?$idList@PAVidFixedWinding@@@@QAEAAPAVidFixedWinding@@H@Z 10028000 f i BrittleFracture.obj
 0001:00027090       ?SetNum@?$idList@PAVidFixedWinding@@@@QAEXH_N@Z 10028090 f i BrittleFracture.obj
 0001:00027110       ?Append@?$idList@PAVidFixedWinding@@@@QAEHABQAVidFixedWinding@@@Z 10028110 f i BrittleFracture.obj
 0001:000271d0       ?DeleteContents@?$idList@PAVidFixedWinding@@@@QAEX_N@Z 100281d0 f i BrittleFracture.obj
 0001:000272c0       ??0?$idList@_N@@QAE@H@Z    100282c0 f i BrittleFracture.obj
 0001:00027340       ??1?$idList@_N@@QAE@XZ     10028340 f i BrittleFracture.obj
 0001:00027380       ?Num@?$idList@_N@@QBEHXZ   10028380 f i BrittleFracture.obj
 0001:000273b0       ??A?$idList@_N@@QAEAA_NH@Z 100283b0 f i BrittleFracture.obj
 0001:00027440       ?SetNum@?$idList@_N@@QAEXH_N@Z 10028440 f i BrittleFracture.obj
 0001:000274c0       ?AssureSize@?$idList@_N@@QAEXHAB_N@Z 100284c0 f i BrittleFracture.obj
 0001:00027590       ??0?$idList@PAUshard_s@@@@QAE@H@Z 10028590 f i BrittleFracture.obj
 0001:00027610       ??1?$idList@PAUshard_s@@@@QAE@XZ 10028610 f i BrittleFracture.obj
 0001:00027650       ?Clear@?$idList@PAUshard_s@@@@QAEXXZ 10028650 f i BrittleFracture.obj
 0001:000276d0       ?Num@?$idList@PAUshard_s@@@@QBEHXZ 100286d0 f i BrittleFracture.obj
 0001:00027700       ??A?$idList@PAUshard_s@@@@QAEAAPAUshard_s@@H@Z 10028700 f i BrittleFracture.obj
 0001:00027790       ??A?$idList@PAUshard_s@@@@QBEABQAUshard_s@@H@Z 10028790 f i BrittleFracture.obj
 0001:00027820       ?SetNum@?$idList@PAUshard_s@@@@QAEXH_N@Z 10028820 f i BrittleFracture.obj
 0001:000278a0       ?Append@?$idList@PAUshard_s@@@@QAEHABQAUshard_s@@@Z 100288a0 f i BrittleFracture.obj
 0001:00027960       ?FindIndex@?$idList@PAUshard_s@@@@QBEHABQAUshard_s@@@Z 10028960 f i BrittleFracture.obj
 0001:000279d0       ?RemoveIndex@?$idList@PAUshard_s@@@@QAE_NH@Z 100289d0 f i BrittleFracture.obj
 0001:00027ad0       ??$Square@M@@YAMM@Z        10028ad0 f i BrittleFracture.obj
 0001:00027b00       ?Resize@?$idList@PAVidFixedWinding@@@@QAEXH@Z 10028b00 f i BrittleFracture.obj
 0001:00027c20       ?Clear@?$idList@_N@@QAEXXZ 10028c20 f i BrittleFracture.obj
 0001:00027ca0       ?Resize@?$idList@_N@@QAEXH@Z 10028ca0 f i BrittleFracture.obj
 0001:00027dc0       ?Resize@?$idList@PAUshard_s@@@@QAEXH@Z 10028dc0 f i BrittleFracture.obj
 0001:00027ee0       ??0idPlane@@QAE@XZ         10028ee0 f i BrittleFracture.obj
 0001:00027f10       ??AidPlane@@QAEAAMH@Z      10028f10 f i BrittleFracture.obj
 0001:00027f50       ??4idPlane@@QAEAAV0@ABVidVec3@@@Z 10028f50 f i BrittleFracture.obj
 0001:00027fb0       ?SetNormal@idPlane@@QAEXABVidVec3@@@Z 10028fb0 f i BrittleFracture.obj
 0001:00028000       ?Normal@idPlane@@QAEAAVidVec3@@XZ 10029000 f i BrittleFracture.obj
 0001:00028030       ?FitThroughPoint@idPlane@@QAEXABVidVec3@@@Z 10029030 f i BrittleFracture.obj
 0001:00028090       ?Distance@idPlane@@QBEMABVidVec3@@@Z 10029090 f i BrittleFracture.obj
 0001:000280f0       ?Side@idPlane@@QBEHABVidVec3@@M@Z 100290f0 f i BrittleFracture.obj
 0001:00028170       ?IsCleared@idBounds@@QBE_NXZ 10029170 f i BrittleFracture.obj
 0001:000281f0       ?Clear@idDrawVert@@QAEXXZ  100291f0 f i BrittleFracture.obj
 0001:00028280       ?Zero@idVec2@@QAEXXZ       10029280 f i BrittleFracture.obj
 0001:000282c0       ?SetColor@idDrawVert@@QAEXI@Z 100292c0 f i BrittleFracture.obj
 0001:00028300       ??4idWinding@@QAEAAV0@ABV0@@Z 10029300 f i BrittleFracture.obj
 0001:000283d0       ??AidWinding@@QBEABVidVec5@@H@Z 100293d0 f i BrittleFracture.obj
 0001:00028410       ??AidWinding@@QAEAAVidVec5@@H@Z 10029410 f i BrittleFracture.obj
 0001:00028450       ?AddPoint@idWinding@@QAEXABVidVec3@@@Z 10029450 f i BrittleFracture.obj
 0001:000284d0       ??4idVec5@@QAEAAV0@ABVidVec3@@@Z 100294d0 f i BrittleFracture.obj
 0001:00028540       ?GetNumPoints@idWinding@@QBEHXZ 10029540 f i BrittleFracture.obj
 0001:00028570       ?SetNumPoints@idWinding@@QAEXH@Z 10029570 f i BrittleFracture.obj
 0001:000285d0       ?EnsureAlloced@idWinding@@IAE_NH_N@Z 100295d0 f i BrittleFracture.obj
 0001:00028640       ??0idFixedWinding@@QAE@XZ  10029640 f i BrittleFracture.obj
 0001:000286f0       ??0idVec5@@QAE@XZ          100296f0 f i BrittleFracture.obj
 0001:00028720       ??0idWinding@@QAE@XZ       10029720 f i BrittleFracture.obj
 0001:00028780       ??_EidWinding@@UAEPAXI@Z   10029780 f i BrittleFracture.obj
 0001:00028780       ??_GidWinding@@UAEPAXI@Z   10029780 f i BrittleFracture.obj
 0001:000287e0       ??1idWinding@@UAE@XZ       100297e0 f i BrittleFracture.obj
 0001:00028850       ?Clear@idWinding@@UAEXXZ   10029850 f i BrittleFracture.obj
 0001:000288c0       ??_EidFixedWinding@@UAEPAXI@Z 100298c0 f i BrittleFracture.obj
 0001:000288c0       ??_GidFixedWinding@@UAEPAXI@Z 100298c0 f i BrittleFracture.obj
 0001:00028920       ??1idFixedWinding@@UAE@XZ  10029920 f i BrittleFracture.obj
 0001:00028980       ?Clear@idFixedWinding@@UAEXXZ 10029980 f i BrittleFracture.obj
 0001:000289c0       ?Clear@idStr@@QAEXXZ       100299c0 f i BrittleFracture.obj
 0001:00028a10       ??1idBitMsg@@QAE@XZ        10029a10 f i BrittleFracture.obj
 0001:00028a40       ?Init@idBitMsg@@QAEXPAEH@Z 10029a40 f i BrittleFracture.obj
 0001:00028a90       ?BeginWriting@idBitMsg@@QAEXXZ 10029a90 f i BrittleFracture.obj
 0001:00028ae0       ?WriteFloat@idBitMsg@@QAEXM@Z 10029ae0 f i BrittleFracture.obj
 0001:00028b30       ?ReadFloat@idBitMsg@@QBEMXZ 10029b30 f i BrittleFracture.obj
 0001:00028b80       ?ShouldCreateBackSides@idMaterial@@QBE_NXZ 10029b80 f i BrittleFracture.obj
 0001:00028bc0       ?GetContentFlags@idMaterial@@QBE?BHXZ 10029bc0 f i BrittleFracture.obj
 0001:00028bf0       ?CreateInstance@idCamera@@SAPAVidClass@@XZ 10029bf0 f   Camera.obj
 0001:00028c40       ?GetType@idCamera@@UBEPAVidTypeInfo@@XZ 10029c40 f   Camera.obj
 0001:00028c70       ?Spawn@idCamera@@QAEXXZ    10029c70 f   Camera.obj
 0001:00028ca0       ?GetRenderView@idCamera@@UAEPAUrenderView_s@@XZ 10029ca0 f   Camera.obj
 0001:00028d00       ?CreateInstance@idCameraView@@SAPAVidClass@@XZ 10029d00 f   Camera.obj
 0001:00028df0       ?GetType@idCameraView@@UBEPAVidTypeInfo@@XZ 10029df0 f   Camera.obj
 0001:00028e20       ??0idCameraView@@QAE@XZ    10029e20 f   Camera.obj
 0001:00028ea0       ??_EidCameraView@@UAEPAXI@Z 10029ea0 f i Camera.obj
 0001:00028ea0       ??_GidCameraView@@UAEPAXI@Z 10029ea0 f i Camera.obj
 0001:00028f00       ??0idCamera@@QAE@XZ        10029f00 f i Camera.obj
 0001:00028f50       ?Stop@idCamera@@UAEXXZ     10029f50 f i Camera.obj
 0001:00028f80       ??1idCameraView@@UAE@XZ    10029f80 f i Camera.obj
 0001:00028fc0       ??1idCamera@@UAE@XZ        10029fc0 f i Camera.obj
 0001:00029000       ??_EidCamera@@UAEPAXI@Z    1002a000 f i Camera.obj
 0001:00029000       ??_GidCamera@@UAEPAXI@Z    1002a000 f i Camera.obj
 0001:00029060       ?Save@idCameraView@@QBEXPAVidSaveGame@@@Z 1002a060 f   Camera.obj
 0001:000290d0       ?Restore@idCameraView@@QAEXPAVidRestoreGame@@@Z 1002a0d0 f   Camera.obj
 0001:00029140       ?Event_SetAttachments@idCameraView@@IAEXXZ 1002a140 f   Camera.obj
 0001:000291b0       ?Event_Activate@idCameraView@@IAEXPAVidEntity@@@Z 1002a1b0 f   Camera.obj
 0001:000292a0       ?Stop@idCameraView@@UAEXXZ 1002a2a0 f   Camera.obj
 0001:00029330       ?SetAttachment@idCameraView@@IAEXPAPAVidEntity@@PBD@Z 1002a330 f   Camera.obj
 0001:000293b0       ?Spawn@idCameraView@@QAEXXZ 1002a3b0 f   Camera.obj
 0001:00029480       ?GetViewParms@idCameraView@@UAEXPAUrenderView_s@@@Z 1002a480 f   Camera.obj
 0001:00029650       ?CreateInstance@idCameraAnim@@SAPAVidClass@@XZ 1002a650 f   Camera.obj
 0001:00029740       ?GetType@idCameraAnim@@UBEPAVidTypeInfo@@XZ 1002a740 f   Camera.obj
 0001:00029770       ??0idCameraAnim@@QAE@XZ    1002a770 f   Camera.obj
 0001:00029880       ??_GidCameraAnim@@UAEPAXI@Z 1002a880 f i Camera.obj
 0001:00029880       ??_EidCameraAnim@@UAEPAXI@Z 1002a880 f i Camera.obj
 0001:000298e0       ??1idCameraAnim@@UAE@XZ    1002a8e0 f   Camera.obj
 0001:000299a0       ?Save@idCameraAnim@@QBEXPAVidSaveGame@@@Z 1002a9a0 f   Camera.obj
 0001:00029a50       ?Restore@idCameraAnim@@QAEXPAVidRestoreGame@@@Z 1002aa50 f   Camera.obj
 0001:00029b00       ?Spawn@idCameraAnim@@QAEXXZ 1002ab00 f   Camera.obj
 0001:00029be0       ?LoadAnim@idCameraAnim@@AAEXXZ 1002abe0 f   Camera.obj
 0001:0002a160       ?Start@idCameraAnim@@AAEXXZ 1002b160 f   Camera.obj
 0001:0002a270       ?Stop@idCameraAnim@@EAEXXZ 1002b270 f   Camera.obj
 0001:0002a350       ?Think@idCameraAnim@@EAEXXZ 1002b350 f   Camera.obj
 0001:0002a4d0       ?GetViewParms@idCameraAnim@@UAEXPAUrenderView_s@@@Z 1002b4d0 f   Camera.obj
 0001:0002abb0       ?Event_Activate@idCameraAnim@@AAEXPAVidEntity@@@Z 1002bbb0 f   Camera.obj
 0001:0002ac30       ?Event_Start@idCameraAnim@@AAEXXZ 1002bc30 f   Camera.obj
 0001:0002ac70       ?Event_Stop@idCameraAnim@@AAEXXZ 1002bc70 f   Camera.obj
 0001:0002acc0       ?Event_SetCallback@idCameraAnim@@AAEXXZ 1002bcc0 f   Camera.obj
 0001:0002ad40       ?SetGranularity@?$idList@H@@QAEXH@Z 1002bd40 f i Camera.obj
 0001:0002adf0       ?SetNum@?$idList@H@@QAEXH_N@Z 1002bdf0 f i Camera.obj
 0001:0002ae70       ?ToFloatPtr@idVec3@@QAEPAMXZ 1002be70 f i Camera.obj
 0001:0002aea0       ??0?$idList@UcameraFrame_t@@@@QAE@H@Z 1002bea0 f i Camera.obj
 0001:0002af20       ??1?$idList@UcameraFrame_t@@@@QAE@XZ 1002bf20 f i Camera.obj
 0001:0002af60       ?Clear@?$idList@UcameraFrame_t@@@@QAEXXZ 1002bf60 f i Camera.obj
 0001:0002afe0       ?Num@?$idList@UcameraFrame_t@@@@QBEHXZ 1002bfe0 f i Camera.obj
 0001:0002b010       ?SetGranularity@?$idList@UcameraFrame_t@@@@QAEXH@Z 1002c010 f i Camera.obj
 0001:0002b0c0       ??A?$idList@UcameraFrame_t@@@@QAEAAUcameraFrame_t@@H@Z 1002c0c0 f i Camera.obj
 0001:0002b150       ?SetNum@?$idList@UcameraFrame_t@@@@QAEXH_N@Z 1002c150 f i Camera.obj
 0001:0002b1d0       ?Resize@?$idList@UcameraFrame_t@@@@QAEXH@Z 1002c1d0 f i Camera.obj
 0001:0002b370       ??0cameraFrame_t@@QAE@XZ   1002c370 f i Camera.obj
 0001:0002b3c0       ??4cameraFrame_t@@QAEAAU0@ABU0@@Z 1002c3c0 f i Camera.obj
 0001:0002b430       ??0idQuat@@QAE@XZ          1002c430 f i Camera.obj
 0001:0002b460       ??4idQuat@@QAEAAV0@ABV0@@Z 1002c460 f i Camera.obj
 0001:0002b4c0       ??0idCQuat@@QAE@XZ         1002c4c0 f i Camera.obj
 0001:0002b4f0       ?ToQuat@idCQuat@@QBE?AVidQuat@@XZ 1002c4f0 f i Camera.obj
 0001:0002b590       ?fabs@@YAMM@Z              1002c590 f i Camera.obj
 0001:0002b5d0       _fabsf                     1002c5d0 f i Camera.obj
 0001:0002b620       ?sqrt@@YAMM@Z              1002c620 f i Camera.obj
 0001:0002b660       _sqrtf                     1002c660 f i Camera.obj
 0001:0002b6b0       ??0idQuat@@QAE@MMMM@Z      1002c6b0 f i Camera.obj
 0001:0002b710       ?ToFloatPtr@idCQuat@@QAEPAMXZ 1002c710 f i Camera.obj
 0001:0002b740       ?CreateInstance@idEntity@@SAPAVidClass@@XZ 1002c740 f   Entity.obj
 0001:0002b790       ?GetType@idEntity@@UBEPAVidTypeInfo@@XZ 1002c790 f   Entity.obj
 0001:0002b7c0       ?UpdateGuiParms@@YAXPAVidUserInterface@@PBVidDict@@@Z 1002c7c0 f   Entity.obj
 0001:0002b8b0       ?AddRenderGui@@YAXPBDPAPAVidUserInterface@@PBVidDict@@@Z 1002c8b0 f   Entity.obj
 0001:0002b940       ?ParseSpawnArgsToRenderEntity@idGameEdit@@UAEXPBVidDict@@PAUrenderEntity_s@@@Z 1002c940 f   Entity.obj
 0001:0002bdf0       ?ParseSpawnArgsToRefSound@idGameEdit@@UAEXPBVidDict@@PAUrefSound_t@@@Z 1002cdf0 f   Entity.obj
 0001:0002c020       ?UpdateChangeableSpawnArgs@idEntity@@UAEXPBVidDict@@@Z 1002d020 f   Entity.obj
 0001:0002c0e0       ??0idEntity@@QAE@XZ        1002d0e0 f   Entity.obj
 0001:0002c390       ??_GidEntity@@UAEPAXI@Z    1002d390 f i Entity.obj
 0001:0002c390       ??_EidEntity@@UAEPAXI@Z    1002d390 f i Entity.obj
 0001:0002c3f0       ??0idClass@@QAE@XZ         1002d3f0 f i Entity.obj
 0001:0002c430       ??0refSound_t@@QAE@XZ      1002d430 f i Entity.obj
 0001:0002c480       ??_GidClass@@UAEPAXI@Z     1002d480 f i Entity.obj
 0001:0002c480       ??_EidClass@@UAEPAXI@Z     1002d480 f i Entity.obj
 0001:0002c4e0       ?FixupLocalizedStrings@idEntity@@AAEXXZ 1002d4e0 f   Entity.obj
 0001:0002c5d0       ?Spawn@idEntity@@QAEXXZ    1002d5d0 f   Entity.obj
 0001:0002cba0       ??1idEntity@@UAE@XZ        1002dba0 f   Entity.obj
 0001:0002ceb0       ??_GsignalList_t@@QAEPAXI@Z 1002deb0 f i Entity.obj
 0001:0002cf10       ??1signalList_t@@QAE@XZ    1002df10 f i Entity.obj
 0001:0002cf60       ?Save@idEntity@@QBEXPAVidSaveGame@@@Z 1002df60 f   Entity.obj
 0001:0002d2f0       ?Restore@idEntity@@QAEXPAVidRestoreGame@@@Z 1002e2f0 f   Entity.obj
 0001:0002d7d0       ??0signalList_t@@QAE@XZ    1002e7d0 f i Entity.obj
 0001:0002d830       ??_F?$idList@Usignal_t@@@@QAEXXZ 1002e830 f i Entity.obj
 0001:0002d880       ?GetEntityDefName@idEntity@@QBEPBDXZ 1002e880 f   Entity.obj
 0001:0002d900       ?SetName@idEntity@@QAEXPBD@Z 1002e900 f   Entity.obj
 0001:0002da30       ?GetName@idEntity@@QBEPBDXZ 1002ea30 f   Entity.obj
 0001:0002da80       ?Think@idEntity@@UAEXXZ    1002ea80 f   Entity.obj
 0001:0002dae0       ?DoDormantTests@idEntity@@AAE_NXZ 1002eae0 f   Entity.obj
 0001:0002dbe0       ?CheckDormant@idEntity@@QAE_NXZ 1002ebe0 f   Entity.obj
 0001:0002dcc0       ?DormantBegin@idEntity@@UAEXXZ 1002ecc0 f   Entity.obj
 0001:0002dcf0       ?DormantEnd@idEntity@@UAEXXZ 1002ecf0 f   Entity.obj
 0001:0002dd20       ?IsActive@idEntity@@QBE_NXZ 1002ed20 f   Entity.obj
 0001:0002dd70       ?BecomeActive@idEntity@@QAEXH@Z 1002ed70 f   Entity.obj
 0001:0002de90       ?BecomeInactive@idEntity@@QAEXH@Z 1002ee90 f   Entity.obj
 0001:0002dff0       ?SetShaderParm@idEntity@@QAEXHM@Z 1002eff0 f   Entity.obj
 0001:0002e070       ?SetColor@idEntity@@UAEXMMM@Z 1002f070 f   Entity.obj
 0001:0002e0e0       ?SetColor@idEntity@@UAEXABVidVec3@@@Z 1002f0e0 f   Entity.obj
 0001:0002e160       ?GetColor@idEntity@@UBEXAAVidVec3@@@Z 1002f160 f   Entity.obj
 0001:0002e1e0       ?SetColor@idEntity@@UAEXABVidVec4@@@Z 1002f1e0 f   Entity.obj
 0001:0002e270       ?GetColor@idEntity@@UBEXAAVidVec4@@@Z 1002f270 f   Entity.obj
 0001:0002e300       ?UpdateAnimationControllers@idEntity@@UAE_NXZ 1002f300 f   Entity.obj
 0001:0002e330       ?SetModel@idEntity@@UAEXPBD@Z 1002f330 f   Entity.obj
 0001:0002e480       ?SetSkin@idEntity@@QAEXPBVidDeclSkin@@@Z 1002f480 f   Entity.obj
 0001:0002e4d0       ?GetSkin@idEntity@@QBEPBVidDeclSkin@@XZ 1002f4d0 f   Entity.obj
 0001:0002e510       ?FreeModelDef@idEntity@@UAEXXZ 1002f510 f   Entity.obj
 0001:0002e590       ?FreeLightDef@idEntity@@UAEXXZ 1002f590 f   Entity.obj
 0001:0002e5c0       ?IsHidden@idEntity@@QBE_NXZ 1002f5c0 f   Entity.obj
 0001:0002e600       ?Hide@idEntity@@UAEXXZ     1002f600 f   Entity.obj
 0001:0002e680       ?Show@idEntity@@UAEXXZ     1002f680 f   Entity.obj
 0001:0002e6f0       ??AidVec4@@QBEMH@Z         1002f6f0 f i Entity.obj
 0001:0002e730       ??AidVec4@@QAEAAMH@Z       1002f730 f i Entity.obj
 0001:0002e770       ?UpdateModelTransform@idEntity@@QAEXXZ 1002f770 f   Entity.obj
 0001:0002e950       ?UpdateModel@idEntity@@QAEXXZ 1002f950 f   Entity.obj
 0001:0002e9e0       ?UpdateVisuals@idEntity@@QAEXXZ 1002f9e0 f   Entity.obj
 0001:0002ea30       ?UpdatePVSAreas@idEntity@@AAEXXZ 1002fa30 f   Entity.obj
 0001:0002ebf0       ?UpdatePVSAreas@idEntity@@QAEXABVidVec3@@@Z 1002fbf0 f   Entity.obj
 0001:0002ec90       ?GetNumPVSAreas@idEntity@@QAEHXZ 1002fc90 f   Entity.obj
 0001:0002ecf0       ?GetPVSAreas@idEntity@@QAEPBHXZ 1002fcf0 f   Entity.obj
 0001:0002ed50       ?ClearPVSAreas@idEntity@@QAEXXZ 1002fd50 f   Entity.obj
 0001:0002ed90       ?PhysicsTeamInPVS@idEntity@@QAE_NUpvsHandle_s@@@Z 1002fd90 f   Entity.obj
 0001:0002ee50       ?ProjectOverlay@idEntity@@UAEXABVidVec3@@0MPBD@Z 1002fe50 f   Entity.obj
 0001:0002f260       ?SinCos16@idMath@@SAXMAAM0@Z 10030260 f i Entity.obj
 0001:0002f3d0       _floorf                    100303d0 f i Entity.obj
 0001:0002f420       ??XidVec3@@QAEAAV0@M@Z     10030420 f i Entity.obj
 0001:0002f480       ?Present@idEntity@@UAEXXZ  10030480 f   Entity.obj
 0001:0002f5c0       ?GetRenderEntity@idEntity@@UAEPAUrenderEntity_s@@XZ 100305c0 f   Entity.obj
 0001:0002f600       ?GetModelDefHandle@idEntity@@UAEHXZ 10030600 f   Entity.obj
 0001:0002f640       ?UpdateRenderEntity@idEntity@@QAE_NPAUrenderEntity_s@@PBUrenderView_s@@@Z 10030640 f   Entity.obj
 0001:0002f6d0       ?ModelCallback@idEntity@@SA_NPAUrenderEntity_s@@PBUrenderView_s@@@Z 100306d0 f   Entity.obj
 0001:0002f740       ?GetAnimator@idEntity@@UAEPAVidAnimator@@XZ 10030740 f   Entity.obj
 0001:0002f770       ?GetRenderView@idEntity@@UAEPAUrenderView_s@@XZ 10030770 f   Entity.obj
 0001:0002f960       ??0renderView_s@@QAE@XZ    10030960 f i Entity.obj
 0001:0002f9b0       ?CanPlayChatterSounds@idEntity@@UBE_NXZ 100309b0 f   Entity.obj
 0001:0002f9e0       ?StartSound@idEntity@@QAE_NPBDHH_NPAH@Z 100309e0 f   Entity.obj
 0001:0002fb10       ?StartSoundShader@idEntity@@QAE_NPBVidSoundShader@@HH_NPAH@Z 10030b10 f   Entity.obj
 0001:0002fd20       ?StopSound@idEntity@@QAEXH_N@Z 10030d20 f   Entity.obj
 0001:0002fe60       ?SetSoundVolume@idEntity@@QAEXM@Z 10030e60 f   Entity.obj
 0001:0002fea0       ?UpdateSound@idEntity@@QAEXXZ 10030ea0 f   Entity.obj
 0001:00030040       ?GetListenerId@idEntity@@QBEHXZ 10031040 f   Entity.obj
 0001:00030080       ?GetSoundEmitter@idEntity@@QBEPAVidSoundEmitter@@XZ 10031080 f   Entity.obj
 0001:000300c0       ?FreeSoundEmitter@idEntity@@QAEX_N@Z 100310c0 f   Entity.obj
 0001:00030140       ?PreBind@idEntity@@UAEXXZ  10031140 f   Entity.obj
 0001:00030170       ?PostBind@idEntity@@UAEXXZ 10031170 f   Entity.obj
 0001:000301a0       ?PreUnbind@idEntity@@UAEXXZ 100311a0 f   Entity.obj
 0001:000301d0       ?PostUnbind@idEntity@@UAEXXZ 100311d0 f   Entity.obj
 0001:00030200       ?InitBind@idEntity@@AAE_NPAV1@@Z 10031200 f   Entity.obj
 0001:000302c0       ?FinishBind@idEntity@@AAEXXZ 100312c0 f   Entity.obj
 0001:00030370       ?Bind@idEntity@@QAEXPAV1@_N@Z 10031370 f   Entity.obj
 0001:00030440       ?BindToJoint@idEntity@@QAEXPAV1@PBD_N@Z 10031440 f   Entity.obj
 0001:00030580       ?BindToJoint@idEntity@@QAEXPAV1@W4jointHandle_t@@_N@Z 10031580 f   Entity.obj
 0001:00030650       ?BindToBody@idEntity@@QAEXPAV1@H_N@Z 10031650 f   Entity.obj
 0001:00030740       ?Unbind@idEntity@@QAEXXZ   10031740 f   Entity.obj
 0001:000309c0       ?RemoveBinds@idEntity@@AAEXXZ 100319c0 f   Entity.obj
 0001:00030a50       ?IsBound@idEntity@@QBE_NXZ 10031a50 f   Entity.obj
 0001:00030a90       ?IsBoundTo@idEntity@@QBE_NPAV1@@Z 10031a90 f   Entity.obj
 0001:00030b00       ?GetBindMaster@idEntity@@QBEPAV1@XZ 10031b00 f   Entity.obj
 0001:00030b40       ?GetBindJoint@idEntity@@QBE?AW4jointHandle_t@@XZ 10031b40 f   Entity.obj
 0001:00030b80       ?GetBindBody@idEntity@@QBEHXZ 10031b80 f   Entity.obj
 0001:00030bc0       ?GetTeamMaster@idEntity@@QBEPAV1@XZ 10031bc0 f   Entity.obj
 0001:00030c00       ?GetNextTeamEntity@idEntity@@QBEPAV1@XZ 10031c00 f   Entity.obj
 0001:00030c40       ?ConvertLocalToWorldTransform@idEntity@@QAEXAAVidVec3@@AAVidMat3@@@Z 10031c40 f   Entity.obj
 0001:00030cd0       ?GetLocalVector@idEntity@@QBE?AVidVec3@@ABV2@@Z 10031cd0 f   Entity.obj
 0001:00030de0       ?GetLocalCoordinates@idEntity@@QBE?AVidVec3@@ABV2@@Z 10031de0 f   Entity.obj
 0001:00030f00       ?GetWorldVector@idEntity@@QBE?AVidVec3@@ABV2@@Z 10031f00 f   Entity.obj
 0001:00031010       ?GetWorldCoordinates@idEntity@@QBE?AVidVec3@@ABV2@@Z 10032010 f   Entity.obj
 0001:00031130       ?GetMasterPosition@idEntity@@QBE_NAAVidVec3@@AAVidMat3@@@Z 10032130 f   Entity.obj
 0001:000313c0       ?GetWorldVelocities@idEntity@@QBEXAAVidVec3@@0@Z 100323c0 f   Entity.obj
 0001:000315d0       ?JoinTeam@idEntity@@QAEXPAV1@@Z 100325d0 f   Entity.obj
 0001:00031790       ?QuitTeam@idEntity@@AAEXXZ 10032790 f   Entity.obj
 0001:00031940       ?InitDefaultPhysics@idEntity@@AAEXABVidVec3@@ABVidMat3@@@Z 10032940 f   Entity.obj
 0001:00031f80       ?Set@idVec3@@QAEXMMM@Z     10032f80 f i Entity.obj
 0001:00031fd0       ?SetPhysics@idEntity@@QAEXPAVidPhysics@@@Z 10032fd0 f   Entity.obj
 0001:00032110       ?RestorePhysics@idEntity@@QAEXPAVidPhysics@@@Z 10033110 f   Entity.obj
 0001:00032180       ?GetPhysics@idEntity@@QBEPAVidPhysics@@XZ 10033180 f   Entity.obj
 0001:000321c0       ?RunPhysics@idEntity@@QAE_NXZ 100331c0 f   Entity.obj
 0001:00032740       ??0idEventArg@@QAE@PBVidEntity@@@Z 10033740 f i Entity.obj
 0001:00032790       ?GetNumPushedEntities@idPush@@QBEHXZ 10033790 f i Entity.obj
 0001:000327d0       ?GetPushedEntity@idPush@@QBEPAVidEntity@@H@Z 100337d0 f i Entity.obj
 0001:00032840       ?UpdateFromPhysics@idEntity@@AAEX_N@Z 10033840 f   Entity.obj
 0001:00032930       ?SetOrigin@idEntity@@QAEXABVidVec3@@@Z 10033930 f   Entity.obj
 0001:000329a0       ?SetAxis@idEntity@@QAEXABVidMat3@@@Z 100339a0 f   Entity.obj
 0001:00032a40       ?SetAngles@idEntity@@QAEXABVidAngles@@@Z 10033a40 f   Entity.obj
 0001:00032aa0       ?GetFloorPos@idEntity@@QBE_NMAAVidVec3@@@Z 10033aa0 f   Entity.obj
 0001:00032c50       ?GetPhysicsToVisualTransform@idEntity@@UAE_NAAVidVec3@@AAVidMat3@@@Z 10033c50 f   Entity.obj
 0001:00032c80       ?GetPhysicsToSoundTransform@idEntity@@UAE_NAAVidVec3@@AAVidMat3@@@Z 10033c80 f   Entity.obj
 0001:00032d40       ?Collide@idEntity@@UAE_NABUtrace_s@@ABVidVec3@@@Z 10033d40 f   Entity.obj
 0001:00032d70       ?GetImpactInfo@idEntity@@UAEXPAV1@HABVidVec3@@PAUimpactInfo_s@@@Z 10033d70 f   Entity.obj
 0001:00032de0       ?ApplyImpulse@idEntity@@UAEXPAV1@HABVidVec3@@1@Z 10033de0 f   Entity.obj
 0001:00032e50       ?AddForce@idEntity@@UAEXPAV1@HABVidVec3@@1@Z 10033e50 f   Entity.obj
 0001:00032ec0       ?ActivatePhysics@idEntity@@UAEXPAV1@@Z 10033ec0 f   Entity.obj
 0001:00032f30       ?IsAtRest@idEntity@@UBE_NXZ 10033f30 f   Entity.obj
 0001:00032f90       ?GetRestStartTime@idEntity@@UBEHXZ 10033f90 f   Entity.obj
 0001:00032ff0       ?AddContactEntity@idEntity@@UAEXPAV1@@Z 10033ff0 f   Entity.obj
 0001:00033060       ?RemoveContactEntity@idEntity@@UAEXPAV1@@Z 10034060 f   Entity.obj
 0001:000330d0       ?CanDamage@idEntity@@UBE_NABVidVec3@@AAV2@@Z 100340d0 f   Entity.obj
 0001:00033680       ?DamageFeedback@idEntity@@UAEXPAV1@0AAH@Z 10034680 f   Entity.obj
 0001:000336b0       ?Damage@idEntity@@UAEXPAV1@0ABVidVec3@@PBDMH@Z 100346b0 f   Entity.obj
 0001:00033860       ?AddDamageEffect@idEntity@@UAEXABUtrace_s@@ABVidVec3@@PBD@Z 10034860 f   Entity.obj
 0001:00033a30       ?Pain@idEntity@@UAE_NPAV1@0HABVidVec3@@H@Z 10034a30 f   Entity.obj
 0001:00033a60       ?Killed@idEntity@@UAEXPAV1@0HABVidVec3@@H@Z 10034a60 f   Entity.obj
 0001:00033a90       ?ShouldConstructScriptObjectAtSpawn@idEntity@@UBE_NXZ 10034a90 f   Entity.obj
 0001:00033ac0       ?ConstructScriptObject@idEntity@@UAEPAVidThread@@XZ 10034ac0 f   Entity.obj
 0001:00033bf0       ?DeconstructScriptObject@idEntity@@UAEXXZ 10034bf0 f   Entity.obj
 0001:00033d50       ?HasSignal@idEntity@@QBE_NW4signalNum_t@@@Z 10034d50 f   Entity.obj
 0001:00033de0       ?SetSignal@idEntity@@QAEXW4signalNum_t@@PAVidThread@@PBVfunction_t@@@Z 10034de0 f   Entity.obj
 0001:00033fe0       ?GetThreadNum@idThread@@QAEHXZ 10034fe0 f i Entity.obj
 0001:00034020       ?ClearSignal@idEntity@@QAEXPAVidThread@@W4signalNum_t@@@Z 10035020 f   Entity.obj
 0001:000340c0       ?ClearSignalThread@idEntity@@QAEXW4signalNum_t@@PAVidThread@@@Z 100350c0 f   Entity.obj
 0001:000341c0       ?Signal@idEntity@@QAEXW4signalNum_t@@@Z 100351c0 f   Entity.obj
 0001:00034340       ?SignalEvent@idEntity@@QAEXPAVidThread@@W4signalNum_t@@@Z 10035340 f   Entity.obj
 0001:000343c0       ?TriggerGuis@idEntity@@QAEXXZ 100353c0 f   Entity.obj
 0001:00034450       ?HandleGuiCommands@idEntity@@QAE_NPAV1@PBD@Z 10035450 f   Entity.obj
 0001:00034eb0       ??XidMat3@@QAEAAV0@ABV0@@Z 10035eb0 f i Entity.obj
 0001:00034fe0       ?HandleSingleGuiCommand@idEntity@@UAE_NPAV1@PAVidLexer@@@Z 10035fe0 f   Entity.obj
 0001:00035010       ?FindTargets@idEntity@@QAEXXZ 10036010 f   Entity.obj
 0001:000350d0       ?RemoveNullTargets@idEntity@@QAEXXZ 100360d0 f   Entity.obj
 0001:00035160       ?ActivateTargets@idEntity@@QBEXPAV1@@Z 10036160 f   Entity.obj
 0001:00035290       ?RespondsTo@idClass@@QBE_NABVidEventDef@@@Z 10036290 f i Entity.obj
 0001:00035320       ?RespondsTo@idTypeInfo@@QBE_NABVidEventDef@@@Z 10036320 f i Entity.obj
 0001:000353a0       ?GetEventNum@idEventDef@@QBEHXZ 100363a0 f i Entity.obj
 0001:000353d0       ?Teleport@idEntity@@UAEXABVidVec3@@ABVidAngles@@PAV1@@Z 100363d0 f   Entity.obj
 0001:00035480       ?TouchTriggers@idEntity@@QBE_NXZ 10036480 f   Entity.obj
 0001:00035730       ??0idEventArg@@QAE@PBUtrace_s@@@Z 10036730 f i Entity.obj
 0001:00035780       ?GetOwner@idClipModel@@QBEPAVidEntity@@XZ 10036780 f i Entity.obj
 0001:000357b0       ?GetSpline@idEntity@@QBEPAV?$idCurve_Spline@VidVec3@@@@XZ 100367b0 f   Entity.obj
 0001:00035be0       ?ProjectVector@idMat3@@QBEXABVidVec3@@AAV2@@Z 10036be0 f i Entity.obj
 0001:00035c60       ?UnprojectVector@idMat3@@QBEXABVidVec3@@AAV2@@Z 10036c60 f i Entity.obj
 0001:00035d10       ?ShowEditingDialog@idEntity@@UAEXXZ 10036d10 f   Entity.obj
 0001:00035d40       ?Event_GetName@idEntity@@AAEXXZ 10036d40 f   Entity.obj
 0001:00035d90       ?Event_SetName@idEntity@@AAEXPBD@Z 10036d90 f   Entity.obj
 0001:00035de0       ?Event_FindTargets@idEntity@@AAEXXZ 10036de0 f   Entity.obj
 0001:00035e20       ?Event_ActivateTargets@idEntity@@AAEXPAV1@@Z 10036e20 f   Entity.obj
 0001:00035e70       ?Event_NumTargets@idEntity@@AAEXXZ 10036e70 f   Entity.obj
 0001:00035ed0       ?Event_GetTarget@idEntity@@AAEXM@Z 10036ed0 f   Entity.obj
 0001:00035f60       ?Event_RandomTarget@idEntity@@AAEXPBD@Z 10036f60 f   Entity.obj
 0001:000360e0       ?RandomInt@idRandom@@QAEHH@Z 100370e0 f i Entity.obj
 0001:00036140       ?Event_BindToJoint@idEntity@@AAEXPAV1@PBDM@Z 10037140 f   Entity.obj
 0001:000361c0       ?Event_RemoveBinds@idEntity@@AAEXXZ 100371c0 f   Entity.obj
 0001:00036200       ?Event_Bind@idEntity@@AAEXPAV1@@Z 10037200 f   Entity.obj
 0001:00036250       ?Event_BindPosition@idEntity@@AAEXPAV1@@Z 10037250 f   Entity.obj
 0001:000362a0       ?Event_Unbind@idEntity@@AAEXXZ 100372a0 f   Entity.obj
 0001:000362e0       ?Event_SpawnBind@idEntity@@AAEXXZ 100372e0 f   Entity.obj
 0001:00036650       ?Event_SetOwner@idEntity@@AAEXPAV1@@Z 10037650 f   Entity.obj
 0001:00036710       ?Event_SetModel@idEntity@@AAEXPBD@Z 10037710 f   Entity.obj
 0001:00036770       ?Event_SetSkin@idEntity@@AAEXPBD@Z 10037770 f   Entity.obj
 0001:000367e0       ?Event_GetShaderParm@idEntity@@AAEXH@Z 100377e0 f   Entity.obj
 0001:00036860       ?Event_SetShaderParm@idEntity@@AAEXHM@Z 10037860 f   Entity.obj
 0001:000368b0       ?Event_SetShaderParms@idEntity@@AAEXMMMM@Z 100378b0 f   Entity.obj
 0001:00036930       ?Event_SetColor@idEntity@@AAEXMMM@Z 10037930 f   Entity.obj
 0001:00036990       ?Event_GetColor@idEntity@@AAEXXZ 10037990 f   Entity.obj
 0001:00036a20       ?Event_IsHidden@idEntity@@AAEXXZ 10037a20 f   Entity.obj
 0001:00036a80       ?Event_Hide@idEntity@@AAEXXZ 10037a80 f   Entity.obj
 0001:00036ad0       ?Event_Show@idEntity@@AAEXXZ 10037ad0 f   Entity.obj
 0001:00036b20       ?Event_CacheSoundShader@idEntity@@AAEXPBD@Z 10037b20 f   Entity.obj
 0001:00036b80       ?Event_StartSoundShader@idEntity@@AAEXPBDH@Z 10037b80 f   Entity.obj
 0001:00036c30       ?Event_StopSound@idEntity@@AAEXHH@Z 10037c30 f   Entity.obj
 0001:00036c80       ?Event_StartSound@idEntity@@AAEXPBDHH@Z 10037c80 f   Entity.obj
 0001:00036d20       ?Event_FadeSound@idEntity@@AAEXHMM@Z 10037d20 f   Entity.obj
 0001:00036da0       ?Event_GetWorldOrigin@idEntity@@AAEXXZ 10037da0 f   Entity.obj
 0001:00036e10       ?Event_SetWorldOrigin@idEntity@@AAEXABVidVec3@@@Z 10037e10 f   Entity.obj
 0001:00036ea0       ?Event_SetOrigin@idEntity@@AAEXABVidVec3@@@Z 10037ea0 f   Entity.obj
 0001:00036ef0       ?Event_GetOrigin@idEntity@@AAEXXZ 10037ef0 f   Entity.obj
 0001:00036f70       ?Event_SetAngles@idEntity@@AAEXABVidAngles@@@Z 10037f70 f   Entity.obj
 0001:00036fc0       ?Event_GetAngles@idEntity@@AAEXXZ 10037fc0 f   Entity.obj
 0001:000370a0       ?Event_SetLinearVelocity@idEntity@@AAEXABVidVec3@@@Z 100380a0 f   Entity.obj
 0001:00037110       ?Event_GetLinearVelocity@idEntity@@AAEXXZ 10038110 f   Entity.obj
 0001:00037180       ?Event_SetAngularVelocity@idEntity@@AAEXABVidVec3@@@Z 10038180 f   Entity.obj
 0001:000371f0       ?Event_GetAngularVelocity@idEntity@@AAEXXZ 100381f0 f   Entity.obj
 0001:00037260       ?Event_SetSize@idEntity@@AAEXABVidVec3@@0@Z 10038260 f   Entity.obj
 0001:000372e0       ?Event_GetSize@idEntity@@AAEXXZ 100382e0 f   Entity.obj
 0001:000373b0       ?Event_GetMins@idEntity@@AAEXXZ 100383b0 f   Entity.obj
 0001:00037430       ?Event_GetMaxs@idEntity@@AAEXXZ 10038430 f   Entity.obj
 0001:000374b0       ?Event_Touches@idEntity@@AAEXPAV1@@Z 100384b0 f   Entity.obj
 0001:00037570       ?Event_SetGuiParm@idEntity@@AAEXPBD0@Z 10038570 f   Entity.obj
 0001:00037670       ?Event_SetGuiFloat@idEntity@@AAEXPBDM@Z 10038670 f   Entity.obj
 0001:00037750       ?Event_GetNextKey@idEntity@@AAEXPBD0@Z 10038750 f   Entity.obj
 0001:00037800       ?Event_SetKey@idEntity@@AAEXPBD0@Z 10038800 f   Entity.obj
 0001:00037850       ?Event_GetKey@idEntity@@AAEXPBD@Z 10038850 f   Entity.obj
 0001:000378e0       ?Event_GetIntKey@idEntity@@AAEXPBD@Z 100388e0 f   Entity.obj
 0001:00037970       ?Event_GetFloatKey@idEntity@@AAEXPBD@Z 10038970 f   Entity.obj
 0001:00037a00       ?Event_GetVectorKey@idEntity@@AAEXPBD@Z 10038a00 f   Entity.obj
 0001:00037a90       ?Event_GetEntityKey@idEntity@@AAEXPBD@Z 10038a90 f   Entity.obj
 0001:00037b70       ?Event_RestorePosition@idEntity@@AAEXXZ 10038b70 f   Entity.obj
 0001:00037da0       ?Event_UpdateCameraTarget@idEntity@@AAEXXZ 10038da0 f   Entity.obj
 0001:00037fa0       ?Event_DistanceTo@idEntity@@AAEXPAV1@@Z 10038fa0 f   Entity.obj
 0001:00038070       ?LengthFast@idVec3@@QBEMXZ 10039070 f i Entity.obj
 0001:000380e0       ?Event_DistanceToPoint@idEntity@@AAEXABVidVec3@@@Z 100390e0 f   Entity.obj
 0001:00038170       ?Event_StartFx@idEntity@@AAEXPBD@Z 10039170 f   Entity.obj
 0001:000381c0       ?Event_WaitFrame@idEntity@@AAEXXZ 100391c0 f   Entity.obj
 0001:00038210       ?Event_Wait@idEntity@@AAEXM@Z 10039210 f   Entity.obj
 0001:00038280       ?Event_HasFunction@idEntity@@AAEXPBD@Z 10039280 f   Entity.obj
 0001:000382f0       ?Event_CallFunction@idEntity@@AAEXPBD@Z 100392f0 f   Entity.obj
 0001:00038410       ?Event_SetNeverDormant@idEntity@@AAEXH@Z 10039410 f   Entity.obj
 0001:00038470       ?ClientPredictionThink@idEntity@@UAEXXZ 10039470 f   Entity.obj
 0001:000384d0       ?WriteBindToSnapshot@idEntity@@QBEXAAVidBitMsgDelta@@@Z 100394d0 f   Entity.obj
 0001:000385c0       ?ReadBindFromSnapshot@idEntity@@QAEXABVidBitMsgDelta@@@Z 100395c0 f   Entity.obj
 0001:000386d0       ?WriteColorToSnapshot@idEntity@@QBEXAAVidBitMsgDelta@@@Z 100396d0 f   Entity.obj
 0001:000387b0       ??0idVec4@@QAE@XZ          100397b0 f i Entity.obj
 0001:000387e0       ?ReadColorFromSnapshot@idEntity@@QAEXABVidBitMsgDelta@@@Z 100397e0 f   Entity.obj
 0001:000388c0       ?WriteGUIToSnapshot@idEntity@@QBEXAAVidBitMsgDelta@@@Z 100398c0 f   Entity.obj
 0001:00038950       ?ReadGUIFromSnapshot@idEntity@@QAEXABVidBitMsgDelta@@@Z 10039950 f   Entity.obj
 0001:00038a00       ?WriteToSnapshot@idEntity@@UBEXAAVidBitMsgDelta@@@Z 10039a00 f   Entity.obj
 0001:00038a30       ?ReadFromSnapshot@idEntity@@UAEXABVidBitMsgDelta@@@Z 10039a30 f   Entity.obj
 0001:00038a60       ?ServerSendEvent@idEntity@@QBEXHPBVidBitMsg@@_NH@Z 10039a60 f   Entity.obj
 0001:00038c80       ?ClientSendEvent@idEntity@@QBEXHPBVidBitMsg@@@Z 10039c80 f   Entity.obj
 0001:00038e50       ?ServerReceiveEvent@idEntity@@UAE_NHHABVidBitMsg@@@Z 10039e50 f   Entity.obj
 0001:00038e90       ?ClientReceiveEvent@idEntity@@UAE_NHHABVidBitMsg@@@Z 10039e90 f   Entity.obj
 0001:00039030       ?CreateInstance@idAnimatedEntity@@SAPAVidClass@@XZ 1003a030 f   Entity.obj
 0001:00039120       ?GetType@idAnimatedEntity@@UBEPAVidTypeInfo@@XZ 1003a120 f   Entity.obj
 0001:00039150       ??0idAnimatedEntity@@QAE@XZ 1003a150 f   Entity.obj
 0001:00039200       ??_EidAnimatedEntity@@UAEPAXI@Z 1003a200 f i Entity.obj
 0001:00039200       ??_GidAnimatedEntity@@UAEPAXI@Z 1003a200 f i Entity.obj
 0001:00039260       ??1idAnimatedEntity@@UAE@XZ 1003a260 f   Entity.obj
 0001:00039330       ?Save@idAnimatedEntity@@QBEXPAVidSaveGame@@@Z 1003a330 f   Entity.obj
 0001:00039380       ?Restore@idAnimatedEntity@@QAEXPAVidRestoreGame@@@Z 1003a380 f   Entity.obj
 0001:00039470       ?ClientPredictionThink@idAnimatedEntity@@UAEXXZ 1003a470 f   Entity.obj
 0001:000394d0       ?Think@idAnimatedEntity@@UAEXXZ 1003a4d0 f   Entity.obj
 0001:00039540       ?UpdateAnimation@idAnimatedEntity@@QAEXXZ 1003a540 f   Entity.obj
 0001:00039670       ?GetAnimator@idAnimatedEntity@@UAEPAVidAnimator@@XZ 1003a670 f   Entity.obj
 0001:000396b0       ?SetModel@idAnimatedEntity@@UAEXPBD@Z 1003a6b0 f   Entity.obj
 0001:000397b0       ?GetJointWorldTransform@idAnimatedEntity@@QAE_NW4jointHandle_t@@HAAVidVec3@@AAVidMat3@@@Z 1003a7b0 f   Entity.obj
 0001:00039830       ?GetJointTransformForAnim@idAnimatedEntity@@QBE_NW4jointHandle_t@@HHAAVidVec3@@AAVidMat3@@@Z 1003a830 f   Entity.obj
 0001:000399c0       ?AddDamageEffect@idAnimatedEntity@@UAEXABUtrace_s@@ABVidVec3@@PBD@Z 1003a9c0 f   Entity.obj
 0001:00039e30       ?GetDefaultSurfaceType@idAnimatedEntity@@UBEHXZ 1003ae30 f   Entity.obj
 0001:00039e60       ?AddLocalDamageEffect@idAnimatedEntity@@QAEXW4jointHandle_t@@ABVidVec3@@11PBVidDeclEntityDef@@PBVidMaterial@@@Z 1003ae60 f   Entity.obj
 0001:0003a330       ??0damageEffect_s@@QAE@XZ  1003b330 f i Entity.obj
 0001:0003a380       ?UpdateDamageEffects@idAnimatedEntity@@QAEXXZ 1003b380 f   Entity.obj
 0001:0003a590       ?ClientReceiveEvent@idAnimatedEntity@@UAE_NHHABVidBitMsg@@@Z 1003b590 f   Entity.obj
 0001:0003a7b0       ?Event_GetJointHandle@idAnimatedEntity@@AAEXPBD@Z 1003b7b0 f   Entity.obj
 0001:0003a810       ?Event_ClearAllJoints@idAnimatedEntity@@AAEXXZ 1003b810 f   Entity.obj
 0001:0003a860       ?Event_ClearJoint@idAnimatedEntity@@AAEXW4jointHandle_t@@@Z 1003b860 f   Entity.obj
 0001:0003a8b0       ?Event_SetJointPos@idAnimatedEntity@@AAEXW4jointHandle_t@@W4jointModTransform_t@@ABVidVec3@@@Z 1003b8b0 f   Entity.obj
 0001:0003a910       ?Event_SetJointAngle@idAnimatedEntity@@AAEXW4jointHandle_t@@W4jointModTransform_t@@ABVidAngles@@@Z 1003b910 f   Entity.obj
 0001:0003a9b0       ?Event_GetJointPos@idAnimatedEntity@@AAEXW4jointHandle_t@@@Z 1003b9b0 f   Entity.obj
 0001:0003aa90       ?Event_GetJointAngle@idAnimatedEntity@@AAEXW4jointHandle_t@@@Z 1003ba90 f   Entity.obj
 0001:0003abd0       ??0?$idLinkList@VidEntity@@@@QAE@XZ 1003bbd0 f i Entity.obj
 0001:0003ac30       ??1?$idLinkList@VidEntity@@@@QAE@XZ 1003bc30 f i Entity.obj
 0001:0003ac70       ?InList@?$idLinkList@VidEntity@@@@QBE_NXZ 1003bc70 f i Entity.obj
 0001:0003acb0       ?AddToEnd@?$idLinkList@VidEntity@@@@QAEXAAV1@@Z 1003bcb0 f i Entity.obj
 0001:0003ad00       ?Remove@?$idLinkList@VidEntity@@@@QAEXXZ 1003bd00 f i Entity.obj
 0001:0003ad70       ?SetOwner@?$idLinkList@VidEntity@@@@QAEXPAVidEntity@@@Z 1003bd70 f i Entity.obj
 0001:0003adb0       ??0?$idList@V?$idEntityPtr@VidEntity@@@@@@QAE@H@Z 1003bdb0 f i Entity.obj
 0001:0003ae30       ??1?$idList@V?$idEntityPtr@VidEntity@@@@@@QAE@XZ 1003be30 f i Entity.obj
 0001:0003ae70       ?Clear@?$idList@V?$idEntityPtr@VidEntity@@@@@@QAEXXZ 1003be70 f i Entity.obj
 0001:0003aef0       ?Num@?$idList@V?$idEntityPtr@VidEntity@@@@@@QBEHXZ 1003bef0 f i Entity.obj
 0001:0003af20       ??A?$idList@V?$idEntityPtr@VidEntity@@@@@@QAEAAV?$idEntityPtr@VidEntity@@@@H@Z 1003bf20 f i Entity.obj
 0001:0003afb0       ??A?$idList@V?$idEntityPtr@VidEntity@@@@@@QBEABV?$idEntityPtr@VidEntity@@@@H@Z 1003bfb0 f i Entity.obj
 0001:0003b040       ?SetNum@?$idList@V?$idEntityPtr@VidEntity@@@@@@QAEXH_N@Z 1003c040 f i Entity.obj
 0001:0003b0c0       ?RemoveIndex@?$idList@V?$idEntityPtr@VidEntity@@@@@@QAE_NH@Z 1003c0c0 f i Entity.obj
 0001:0003b1c0       ??0?$idList@Usignal_t@@@@QAE@H@Z 1003c1c0 f i Entity.obj
 0001:0003b240       ??1?$idList@Usignal_t@@@@QAE@XZ 1003c240 f i Entity.obj
 0001:0003b280       ?Clear@?$idList@Usignal_t@@@@QAEXXZ 1003c280 f i Entity.obj
 0001:0003b300       ?Num@?$idList@Usignal_t@@@@QBEHXZ 1003c300 f i Entity.obj
 0001:0003b330       ??A?$idList@Usignal_t@@@@QAEAAUsignal_t@@H@Z 1003c330 f i Entity.obj
 0001:0003b3c0       ?SetNum@?$idList@Usignal_t@@@@QAEXH_N@Z 1003c3c0 f i Entity.obj
 0001:0003b440       ?Append@?$idList@Usignal_t@@@@QAEHABUsignal_t@@@Z 1003c440 f i Entity.obj
 0001:0003b510       ?RemoveIndex@?$idList@Usignal_t@@@@QAE_NH@Z 1003c510 f i Entity.obj
 0001:0003b610       ??0?$idCurve_CatmullRomSpline@VidVec3@@@@QAE@XZ 1003c610 f i Entity.obj
 0001:0003b660       ?SetBoundaryType@?$idCurve_Spline@VidVec3@@@@UAEXW4boundary_t@1@@Z 1003c660 f i Entity.obj
 0001:0003b6a0       ?GetBoundaryType@?$idCurve_Spline@VidVec3@@@@UBE?AW4boundary_t@1@XZ 1003c6a0 f i Entity.obj
 0001:0003b6d0       ?SetCloseTime@?$idCurve_Spline@VidVec3@@@@UAEXM@Z 1003c6d0 f i Entity.obj
 0001:0003b710       ?GetCloseTime@?$idCurve_Spline@VidVec3@@@@UAEMXZ 1003c710 f i Entity.obj
 0001:0003b770       ?RemoveIndex@?$idCurve@VidVec3@@@@UAEXH@Z 1003c770 f i Entity.obj
 0001:0003b7d0       ?Clear@?$idCurve@VidVec3@@@@UAEXXZ 1003c7d0 f i Entity.obj
 0001:0003b830       ?RemoveIndex@?$idList@M@@QAE_NH@Z 1003c830 f i Entity.obj
 0001:0003b930       ?Clear@?$idList@VidVec3@@@@QAEXXZ 1003c930 f i Entity.obj
 0001:0003b9b0       ?RemoveIndex@?$idList@VidVec3@@@@QAE_NH@Z 1003c9b0 f i Entity.obj
 0001:0003bab0       ?AddValue@?$idCurve@VidVec3@@@@UAEHMABVidVec3@@@Z 1003cab0 f i Entity.obj
 0001:0003bb30       ?IsDone@?$idCurve_Spline@VidVec3@@@@UBE_NM@Z 1003cb30 f i Entity.obj
 0001:0003bbc0       ?GetCurrentValue@?$idCurve_CatmullRomSpline@VidVec3@@@@UBE?AVidVec3@@M@Z 1003cbc0 f i Entity.obj
 0001:0003bd60       ??A?$idList@VidVec3@@@@QBEABVidVec3@@H@Z 1003cd60 f i Entity.obj
 0001:0003bdf0       ?GetCurrentFirstDerivative@?$idCurve_CatmullRomSpline@VidVec3@@@@UBE?AVidVec3@@M@Z 1003cdf0 f i Entity.obj
 0001:0003bfc0       ??KidVec3@@QBE?AV0@M@Z     1003cfc0 f i Entity.obj
 0001:0003c040       ?GetCurrentSecondDerivative@?$idCurve_CatmullRomSpline@VidVec3@@@@UBE?AVidVec3@@M@Z 1003d040 f i Entity.obj
 0001:0003c220       ??0?$idCurve_BSpline@VidVec3@@@@QAE@XZ 1003d220 f i Entity.obj
 0001:0003c280       ?GetOrder@?$idCurve_BSpline@VidVec3@@@@UBEHXZ 1003d280 f i Entity.obj
 0001:0003c2b0       ?SetOrder@?$idCurve_BSpline@VidVec3@@@@UAEXH@Z 1003d2b0 f i Entity.obj
 0001:0003c320       ?GetCurrentValue@?$idCurve_BSpline@VidVec3@@@@UBE?AVidVec3@@M@Z 1003d320 f i Entity.obj
 0001:0003c4c0       ?GetCurrentFirstDerivative@?$idCurve_BSpline@VidVec3@@@@UBE?AVidVec3@@M@Z 1003d4c0 f i Entity.obj
 0001:0003c660       ?GetCurrentSecondDerivative@?$idCurve_BSpline@VidVec3@@@@UBE?AVidVec3@@M@Z 1003d660 f i Entity.obj
 0001:0003c800       ??0?$idCurve_NonUniformBSpline@VidVec3@@@@QAE@XZ 1003d800 f i Entity.obj
 0001:0003c850       ?GetCurrentValue@?$idCurve_NonUniformBSpline@VidVec3@@@@UBE?AVidVec3@@M@Z 1003d850 f i Entity.obj
 0001:0003ca20       ?GetCurrentFirstDerivative@?$idCurve_NonUniformBSpline@VidVec3@@@@UBE?AVidVec3@@M@Z 1003da20 f i Entity.obj
 0001:0003cbf0       ?GetCurrentSecondDerivative@?$idCurve_NonUniformBSpline@VidVec3@@@@UBE?AVidVec3@@M@Z 1003dbf0 f i Entity.obj
 0001:0003cdc0       ??0?$idCurve_NURBS@VidVec3@@@@QAE@XZ 1003ddc0 f i Entity.obj
 0001:0003ce50       ?RemoveIndex@?$idCurve_NURBS@VidVec3@@@@UAEXH@Z 1003de50 f i Entity.obj
 0001:0003cec0       ?Clear@?$idCurve_NURBS@VidVec3@@@@UAEXXZ 1003dec0 f i Entity.obj
 0001:0003cf30       ?AddValue@?$idCurve_NURBS@VidVec3@@@@UAEHMABVidVec3@@M@Z 1003df30 f i Entity.obj
 0001:0003cfc0       ?AddValue@?$idCurve_NURBS@VidVec3@@@@UAEHMABVidVec3@@@Z 1003dfc0 f i Entity.obj
 0001:0003d060       ?GetCurrentValue@?$idCurve_NURBS@VidVec3@@@@UBE?AVidVec3@@M@Z 1003e060 f i Entity.obj
 0001:0003d250       ?GetCurrentFirstDerivative@?$idCurve_NURBS@VidVec3@@@@UBE?AVidVec3@@M@Z 1003e250 f i Entity.obj
 0001:0003d5c0       ?GetCurrentSecondDerivative@?$idCurve_NURBS@VidVec3@@@@UBE?AVidVec3@@M@Z 1003e5c0 f i Entity.obj
 0001:0003dae0       ??_G?$idCurve_CatmullRomSpline@VidVec3@@@@UAEPAXI@Z 1003eae0 f i Entity.obj
 0001:0003dae0       ??_E?$idCurve_CatmullRomSpline@VidVec3@@@@UAEPAXI@Z 1003eae0 f i Entity.obj
 0001:0003db40       ??_G?$idCurve_BSpline@VidVec3@@@@UAEPAXI@Z 1003eb40 f i Entity.obj
 0001:0003db40       ??_E?$idCurve_BSpline@VidVec3@@@@UAEPAXI@Z 1003eb40 f i Entity.obj
 0001:0003dba0       ??_G?$idCurve_NonUniformBSpline@VidVec3@@@@UAEPAXI@Z 1003eba0 f i Entity.obj
 0001:0003dba0       ??_E?$idCurve_NonUniformBSpline@VidVec3@@@@UAEPAXI@Z 1003eba0 f i Entity.obj
 0001:0003dc00       ??1?$idCurve_BSpline@VidVec3@@@@UAE@XZ 1003ec00 f i Entity.obj
 0001:0003dc40       ??1?$idCurve_Spline@VidVec3@@@@UAE@XZ 1003ec40 f i Entity.obj
 0001:0003dc80       ??1?$idCurve@VidVec3@@@@UAE@XZ 1003ec80 f i Entity.obj
 0001:0003dd10       ??1?$idList@VidVec3@@@@QAE@XZ 1003ed10 f i Entity.obj
 0001:0003dd50       ?GetCurrentValue@?$idCurve@VidVec3@@@@UBE?AVidVec3@@M@Z 1003ed50 f i Entity.obj
 0001:0003de00       ?Num@?$idList@VidVec3@@@@QBEHXZ 1003ee00 f i Entity.obj
 0001:0003de30       ?GetCurrentFirstDerivative@?$idCurve@VidVec3@@@@UBE?AVidVec3@@M@Z 1003ee30 f i Entity.obj
 0001:0003dea0       ?GetCurrentSecondDerivative@?$idCurve@VidVec3@@@@UBE?AVidVec3@@M@Z 1003eea0 f i Entity.obj
 0001:0003df10       ?IsDone@?$idCurve@VidVec3@@@@UBE_NM@Z 1003ef10 f i Entity.obj
 0001:0003df90       ??_G?$idCurve@VidVec3@@@@UAEPAXI@Z 1003ef90 f i Entity.obj
 0001:0003df90       ??_E?$idCurve@VidVec3@@@@UAEPAXI@Z 1003ef90 f i Entity.obj
 0001:0003dff0       ??_E?$idCurve_NURBS@VidVec3@@@@UAEPAXI@Z 1003eff0 f i Entity.obj
 0001:0003dff0       ??_G?$idCurve_NURBS@VidVec3@@@@UAEPAXI@Z 1003eff0 f i Entity.obj
 0001:0003e050       ??1?$idCurve_NonUniformBSpline@VidVec3@@@@UAE@XZ 1003f050 f i Entity.obj
 0001:0003e090       ??1?$idCurve_CatmullRomSpline@VidVec3@@@@UAE@XZ 1003f090 f i Entity.obj
 0001:0003e0d0       ??1?$idCurve_NURBS@VidVec3@@@@UAE@XZ 1003f0d0 f i Entity.obj
 0001:0003e150       ?Insert@?$idList@M@@QAEHABMH@Z 1003f150 f i Entity.obj
 0001:0003e260       ??AidAngles@@QAEAAMH@Z     1003f260 f i Entity.obj
 0001:0003e2d0       ?Insert@?$idList@VidVec3@@@@QAEHABVidVec3@@H@Z 1003f2d0 f i Entity.obj
 0001:0003e3f0       ?Clear@?$idLinkList@VidEntity@@@@QAEXXZ 1003f3f0 f i Entity.obj
 0001:0003e460       ?InsertBefore@?$idLinkList@VidEntity@@@@QAEXAAV1@@Z 1003f460 f i Entity.obj
 0001:0003e4e0       ?Resize@?$idList@V?$idEntityPtr@VidEntity@@@@@@QAEXH@Z 1003f4e0 f i Entity.obj
 0001:0003e680       ?Resize@?$idList@Usignal_t@@@@QAEXH@Z 1003f680 f i Entity.obj
 0001:0003e7b0       ?IndexForTime@?$idCurve@VidVec3@@@@IBEHM@Z 1003f7b0 f i Entity.obj
 0001:0003ea00       ??0?$idCurve_Spline@VidVec3@@@@QAE@XZ 1003fa00 f i Entity.obj
 0001:0003ea60       ?ValueForIndex@?$idCurve_Spline@VidVec3@@@@IBE?AVidVec3@@H@Z 1003fa60 f i Entity.obj
 0001:0003ec80       ?TimeForIndex@?$idCurve_Spline@VidVec3@@@@IBEMH@Z 1003fc80 f i Entity.obj
 0001:0003eec0       ?ClampedTime@?$idCurve_Spline@VidVec3@@@@IBEMM@Z 1003fec0 f i Entity.obj
 0001:0003ef80       ?Basis@?$idCurve_CatmullRomSpline@VidVec3@@@@IBEXHMPAM@Z 1003ff80 f i Entity.obj
 0001:0003f090       ?BasisFirstDerivative@?$idCurve_CatmullRomSpline@VidVec3@@@@IBEXHMPAM@Z 10040090 f i Entity.obj
 0001:0003f180       ?BasisSecondDerivative@?$idCurve_CatmullRomSpline@VidVec3@@@@IBEXHMPAM@Z 10040180 f i Entity.obj
 0001:0003f260       ?Basis@?$idCurve_BSpline@VidVec3@@@@IBEMHHM@Z 10040260 f i Entity.obj
 0001:0003f3f0       ?BasisFirstDerivative@?$idCurve_BSpline@VidVec3@@@@IBEMHHM@Z 100403f0 f i Entity.obj
 0001:0003f4c0       ?BasisSecondDerivative@?$idCurve_BSpline@VidVec3@@@@IBEMHHM@Z 100404c0 f i Entity.obj
 0001:0003f590       ?Basis@?$idCurve_NonUniformBSpline@VidVec3@@@@IBEXHHMPAM@Z 10040590 f i Entity.obj
 0001:0003f6d0       ?BasisFirstDerivative@?$idCurve_NonUniformBSpline@VidVec3@@@@IBEXHHMPAM@Z 100406d0 f i Entity.obj
 0001:0003f840       ?BasisSecondDerivative@?$idCurve_NonUniformBSpline@VidVec3@@@@IBEXHHMPAM@Z 10040840 f i Entity.obj
 0001:0003f9b0       ?WeightForIndex@?$idCurve_NURBS@VidVec3@@@@IBEMH@Z 100409b0 f i Entity.obj
 0001:0003fb30       ??_G?$idCurve_Spline@VidVec3@@@@UAEPAXI@Z 10040b30 f i Entity.obj
 0001:0003fb30       ??_E?$idCurve_Spline@VidVec3@@@@UAEPAXI@Z 10040b30 f i Entity.obj
 0001:0003fb90       ?Resize@?$idList@VidVec3@@@@QAEXH@Z 10040b90 f i Entity.obj
 0001:0003fd30       ??0?$idCurve@VidVec3@@@@QAE@XZ 10040d30 f i Entity.obj
 0001:0003fdd0       ??0?$idList@VidVec3@@@@QAE@H@Z 10040dd0 f i Entity.obj
 0001:0003fe50       ??0idBounds@@QAE@ABVidVec3@@@Z 10040e50 f i Entity.obj
 0001:0003fec0       ??YidStr@@QAEAAV0@ABV0@@Z  10040ec0 f i Entity.obj
 0001:0003ff10       ?Right@idStr@@QBE?AV1@H@Z  10040f10 f i Entity.obj
 0001:0003ffb0       ?GetNumKeyVals@idDict@@QBEHXZ 10040fb0 f i Entity.obj
 0001:0003fff0       ?Num@?$idList@VidKeyValue@@@@QBEHXZ 10040ff0 f i Entity.obj
 0001:00040020       ?GetKeyVal@idDict@@QBEPBVidKeyValue@@H@Z 10041020 f i Entity.obj
 0001:00040080       ??A?$idList@VidKeyValue@@@@QBEABVidKeyValue@@H@Z 10041080 f i Entity.obj
 0001:00040110       ?GetData@idBitMsg@@QBEPBEXZ 10041110 f i Entity.obj
 0001:00040140       ?GetSize@idBitMsg@@QBEHXZ  10041140 f i Entity.obj
 0001:00040170       ?WriteByte@idBitMsg@@QAEXH@Z 10041170 f i Entity.obj
 0001:000401c0       ?WriteShort@idBitMsg@@QAEXH@Z 100411c0 f i Entity.obj
 0001:00040210       ?WriteLong@idBitMsg@@QAEXH@Z 10041210 f i Entity.obj
 0001:00040260       ?WriteDir@idBitMsg@@QAEXABVidVec3@@H@Z 10041260 f i Entity.obj
 0001:000402c0       ?ReadByte@idBitMsg@@QBEHXZ 100412c0 f i Entity.obj
 0001:00040310       ?ReadShort@idBitMsg@@QBEHXZ 10041310 f i Entity.obj
 0001:00040360       ?ReadLong@idBitMsg@@QBEHXZ 10041360 f i Entity.obj
 0001:000403b0       ?ReadDir@idBitMsg@@QBE?AVidVec3@@H@Z 100413b0 f i Entity.obj
 0001:00040410       ?WriteByte@idBitMsgDelta@@QAEXH@Z 10041410 f i Entity.obj
 0001:00040460       ?WriteLong@idBitMsgDelta@@QAEXH@Z 10041460 f i Entity.obj
 0001:000404b0       ?ReadByte@idBitMsgDelta@@QBEHXZ 100414b0 f i Entity.obj
 0001:00040500       ?ReadLong@idBitMsgDelta@@QBEHXZ 10041500 f i Entity.obj
 0001:00040550       ?Index@idDecl@@QBEHXZ      10041550 f i Entity.obj
 0001:000405b0       ?CreateInstance@idEntityFx@@SAPAVidClass@@XZ 100415b0 f   Fx.obj
 0001:000406a0       ?GetType@idEntityFx@@UBEPAVidTypeInfo@@XZ 100416a0 f   Fx.obj
 0001:000406d0       ?Save@idEntityFx@@QBEXPAVidSaveGame@@@Z 100416d0 f   Fx.obj
 0001:00040900       ?Restore@idEntityFx@@QAEXPAVidRestoreGame@@@Z 10041900 f   Fx.obj
 0001:00040c60       ?Setup@idEntityFx@@QAEXPBD@Z 10041c60 f   Fx.obj
 0001:00040f10       ??0idFXLocalAction@@QAE@XZ 10041f10 f i Fx.obj
 0001:00040f60       ??0renderLight_s@@QAE@XZ   10041f60 f i Fx.obj
 0001:00041000       ?EffectName@idEntityFx@@QAEPBDXZ 10042000 f   Fx.obj
 0001:00041070       ?Joint@idEntityFx@@QAEPBDXZ 10042070 f   Fx.obj
 0001:000410e0       ?CleanUp@idEntityFx@@IAEXXZ 100420e0 f   Fx.obj
 0001:00041190       ?CleanUpSingleAction@idEntityFx@@IAEXABUidFXSingleAction@@AAUidFXLocalAction@@@Z 10042190 f   Fx.obj
 0001:00041280       ?Start@idEntityFx@@QAEXH@Z 10042280 f   Fx.obj
 0001:00041360       ?Stop@idEntityFx@@QAEXXZ   10042360 f   Fx.obj
 0001:000413b0       ?Duration@idEntityFx@@QAE?BHXZ 100423b0 f   Fx.obj
 0001:00041470       ?Done@idEntityFx@@QAE?B_NXZ 10042470 f   Fx.obj
 0001:000414e0       ?ApplyFade@idEntityFx@@IAEXABUidFXSingleAction@@AAUidFXLocalAction@@HH@Z 100424e0 f   Fx.obj
 0001:000417c0       ?Run@idEntityFx@@QAEXH@Z   100427c0 f   Fx.obj
 0001:00042770       ??0idEntityFx@@QAE@XZ      10043770 f   Fx.obj
 0001:00042850       ??_GidEntityFx@@UAEPAXI@Z  10043850 f i Fx.obj
 0001:00042850       ??_EidEntityFx@@UAEPAXI@Z  10043850 f i Fx.obj
 0001:000428b0       ??1idEntityFx@@UAE@XZ      100438b0 f   Fx.obj
 0001:00042960       ?Spawn@idEntityFx@@QAEXXZ  10043960 f   Fx.obj
 0001:00042ad0       ?Think@idEntityFx@@UAEXXZ  10043ad0 f   Fx.obj
 0001:00042b60       ?Event_ClearFx@idEntityFx@@IAEXXZ 10043b60 f   Fx.obj
 0001:00042cc0       ?Event_Trigger@idEntityFx@@IAEXPAVidEntity@@@Z 10043cc0 f   Fx.obj
 0001:00042e30       ?StartFx@idEntityFx@@SAPAV1@PBDPBVidVec3@@PBVidMat3@@PAVidEntity@@_N@Z 10043e30 f   Fx.obj
 0001:00043070       ?WriteToSnapshot@idEntityFx@@UBEXAAVidBitMsgDelta@@@Z 10044070 f   Fx.obj
 0001:00043140       ?ReadFromSnapshot@idEntityFx@@UAEXABVidBitMsgDelta@@@Z 10044140 f   Fx.obj
 0001:000432e0       ?ClientPredictionThink@idEntityFx@@UAEXXZ 100442e0 f   Fx.obj
 0001:00043350       ?CreateInstance@idTeleporter@@SAPAVidClass@@XZ 10044350 f   Fx.obj
 0001:00043440       ??0idTeleporter@@QAE@XZ    10044440 f i Fx.obj
 0001:00043490       ??_GidTeleporter@@UAEPAXI@Z 10044490 f i Fx.obj
 0001:00043490       ??_EidTeleporter@@UAEPAXI@Z 10044490 f i Fx.obj
 0001:000434f0       ??1idTeleporter@@UAE@XZ    100444f0 f i Fx.obj
 0001:00043530       ?GetType@idTeleporter@@UBEPAVidTypeInfo@@XZ 10044530 f   Fx.obj
 0001:00043560       ?Event_DoAction@idTeleporter@@AAEXPAVidEntity@@@Z 10044560 f   Fx.obj
 0001:00043650       ?Num@?$idList@UidFXSingleAction@@@@QBEHXZ 10044650 f i Fx.obj
 0001:00043680       ??A?$idList@UidFXSingleAction@@@@QBEABUidFXSingleAction@@H@Z 10044680 f i Fx.obj
 0001:00043710       ??0?$idList@UidFXLocalAction@@@@QAE@H@Z 10044710 f i Fx.obj
 0001:00043790       ??1?$idList@UidFXLocalAction@@@@QAE@XZ 10044790 f i Fx.obj
 0001:000437d0       ?Num@?$idList@UidFXLocalAction@@@@QBEHXZ 100447d0 f i Fx.obj
 0001:00043800       ??A?$idList@UidFXLocalAction@@@@QAEAAUidFXLocalAction@@H@Z 10044800 f i Fx.obj
 0001:00043890       ??A?$idList@UidFXLocalAction@@@@QBEABUidFXLocalAction@@H@Z 10044890 f i Fx.obj
 0001:00043920       ?SetNum@?$idList@UidFXLocalAction@@@@QAEXH_N@Z 10044920 f i Fx.obj
 0001:000439a0       ?AssureSize@?$idList@UidFXLocalAction@@@@QAEXHABUidFXLocalAction@@@Z 100449a0 f i Fx.obj
 0001:00043a80       ??4idFXLocalAction@@QAEAAU0@ABU0@@Z 10044a80 f i Fx.obj
 0001:00043b90       ??4renderLight_s@@QAEAAU0@ABU0@@Z 10044b90 f i Fx.obj
 0001:00043d40       ?Clear@?$idList@UidFXLocalAction@@@@QAEXXZ 10044d40 f i Fx.obj
 0001:00043dc0       ?Resize@?$idList@UidFXLocalAction@@@@QAEXH@Z 10044dc0 f i Fx.obj
 0001:00043f70       ?SetFloat@idDict@@QAEXPBDM@Z 10044f70 f i Fx.obj
 0001:00043fd0       _GetGameAPI                10044fd0 f   Game_local.obj
 0001:000440f0       ?TestGameAPI@@YAXXZ        100450f0 f   Game_local.obj
 0001:000441f0       ??0idGameLocal@@QAE@XZ     100451f0 f   Game_local.obj
 0001:000444c0       ??0idEventQueue@@QAE@XZ    100454c0 f i Game_local.obj
 0001:00044520       ??1idClip@@QAE@XZ          10045520 f i Game_local.obj
 0001:000445a0       ??1idMultiplayerGame@@QAE@XZ 100455a0 f i Game_local.obj
 0001:00044650       ??1idEventQueue@@QAE@XZ    10045650 f i Game_local.obj
 0001:000446a0       ??1mpChatLine_s@@QAE@XZ    100456a0 f i Game_local.obj
 0001:000446e0       ??0idRandom@@QAE@H@Z       100456e0 f i Game_local.obj
 0001:00044720       ??_GidGameLocal@@UAEPAXI@Z 10045720 f i Game_local.obj
 0001:00044720       ??_EidGameLocal@@UAEPAXI@Z 10045720 f i Game_local.obj
 0001:00044780       ??1idGameLocal@@UAE@XZ     10045780 f i Game_local.obj
 0001:000449e0       ??0idGame@@QAE@XZ          100459e0 f i Game_local.obj
 0001:00044a20       ??0idPush@@QAE@XZ          10045a20 f i Game_local.obj
 0001:00044a70       ??_F?$idList@H@@QAEXXZ     10045a70 f i Game_local.obj
 0001:00044ac0       ??0pushed_s@idPush@@QAE@XZ 10045ac0 f i Game_local.obj
 0001:00044b10       ?Clear@idGameLocal@@AAEXXZ 10045b10 f   Game_local.obj
 0001:00044f70       ?SetSeed@idRandom@@QAEXH@Z 10045f70 f i Game_local.obj
 0001:00044fb0       ?Init@idGameLocal@@UAEXXZ  10045fb0 f   Game_local.obj
 0001:00045360       ?Shutdown@idGameLocal@@UAEXXZ 10046360 f   Game_local.obj
 0001:00045560       ??_GidSmokeParticles@@QAEPAXI@Z 10046560 f i Game_local.obj
 0001:000455c0       ??_GidMapFile@@QAEPAXI@Z   100465c0 f i Game_local.obj
 0001:00045620       ??1idSmokeParticles@@QAE@XZ 10046620 f i Game_local.obj
 0001:00045670       ?SaveGame@idGameLocal@@UAEXPAVidFile@@@Z 10046670 f   Game_local.obj
 0001:00045db0       ?GetThreads@idThread@@SAAAV?$idList@PAVidThread@@@@XZ 10046db0 f i Game_local.obj
 0001:00045de0       ?GetSeed@idRandom@@QBEHXZ  10046de0 f i Game_local.obj
 0001:00045e10       ?GetPersistentPlayerInfo@idGameLocal@@UAEABVidDict@@H@Z 10046e10 f   Game_local.obj
 0001:00045ea0       ?SetPersistentPlayerInfo@idGameLocal@@UAEXHABVidDict@@@Z 10046ea0 f   Game_local.obj
 0001:00045f00       ?Printf@idGameLocal@@QBAXPBDZZ 10046f00 f   Game_local.obj
 0001:00045fb0       ?DPrintf@idGameLocal@@QBAXPBDZZ 10046fb0 f   Game_local.obj
 0001:00046080       ?Warning@idGameLocal@@QBAXPBDZZ 10047080 f   Game_local.obj
 0001:00046160       ?DWarning@idGameLocal@@QBAXPBDZZ 10047160 f   Game_local.obj
 0001:00046260       ?Error@idGameLocal@@QBAXPBDZZ 10047260 f   Game_local.obj
 0001:00046340       ?SetLocalClient@idGameLocal@@UAEXH@Z 10047340 f   Game_local.obj
 0001:00046380       ?SetUserInfo@idGameLocal@@UAEPBVidDict@@HABV2@_N1@Z 10047380 f   Game_local.obj
 0001:00046630       ?GetUserInfo@idGameLocal@@UAEPBVidDict@@H@Z 10047630 f   Game_local.obj
 0001:000466b0       ?SetServerInfo@idGameLocal@@UAEXABVidDict@@@Z 100476b0 f   Game_local.obj
 0001:000467e0       ?LoadMap@idGameLocal@@QAEXPBDH@Z 100477e0 f   Game_local.obj
 0001:00046ee0       ?LocalMapRestart@idGameLocal@@QAEXXZ 10047ee0 f   Game_local.obj
 0001:000470d0       ?MapRestart@idGameLocal@@QAEXXZ 100480d0 f   Game_local.obj
 0001:000473b0       ?MapRestart_f@idGameLocal@@SAXABVidCmdArgs@@@Z 100483b0 f   Game_local.obj
 0001:00047450       ?NextMap@idGameLocal@@QAE_NXZ 10048450 f   Game_local.obj
 0001:00047840       ?NextMap_f@idGameLocal@@SAXABVidCmdArgs@@@Z 10048840 f   Game_local.obj
 0001:000478c0       ?MapPopulate@idGameLocal@@AAEXXZ 100488c0 f   Game_local.obj
 0001:00047970       ?InitFromNewMap@idGameLocal@@UAEXPBDPAVidRenderWorld@@PAVidSoundWorld@@_N3H@Z 10048970 f   Game_local.obj
 0001:00047ab0       ?InitFromSaveGame@idGameLocal@@UAE_NPBDPAVidRenderWorld@@PAVidSoundWorld@@PAVidFile@@@Z 10048ab0 f   Game_local.obj
 0001:00048410       ?MapClear@idGameLocal@@AAEX_N@Z 10049410 f   Game_local.obj
 0001:00048680       ??_GidEditEntities@@QAEPAXI@Z 10049680 f i Game_local.obj
 0001:000486e0       ??1idEditEntities@@QAE@XZ  100496e0 f i Game_local.obj
 0001:00048760       ?MapShutdown@idGameLocal@@UAEXXZ 10049760 f   Game_local.obj
 0001:000488c0       ?DumpOggSounds@idGameLocal@@AAEXXZ 100498c0 f   Game_local.obj
 0001:000490d0       ?GetShakeSounds@idGameLocal@@AAEXPBVidDict@@@Z 1004a0d0 f   Game_local.obj
 0001:00049250       ?CacheDictionaryMedia@idGameLocal@@UAEXPBVidDict@@@Z 1004a250 f   Game_local.obj
 0001:00049c10       ?InitScriptForMap@idGameLocal@@AAEXXZ 1004ac10 f   Game_local.obj
 0001:00049dd0       ?SpawnPlayer@idGameLocal@@UAEXH@Z 1004add0 f   Game_local.obj
 0001:00049fc0       ?GetClientByNum@idGameLocal@@QBEPAVidPlayer@@H@Z 1004afc0 f   Game_local.obj
 0001:0004a030       ?GetClientByName@idGameLocal@@QBEPAVidPlayer@@PBD@Z 1004b030 f   Game_local.obj
 0001:0004a0f0       ?GetClientByCmdArgs@idGameLocal@@QBEPAVidPlayer@@ABVidCmdArgs@@@Z 1004b0f0 f   Game_local.obj
 0001:0004a250       ?GetNextClientNum@idGameLocal@@QBEHH@Z 1004b250 f   Game_local.obj
 0001:0004a300       ?GetLocalPlayer@idGameLocal@@QBEPAVidPlayer@@XZ 1004b300 f   Game_local.obj
 0001:0004a3a0       ?GetClientPVS@idGameLocal@@AAE?AUpvsHandle_s@@PAVidPlayer@@W4pvsType_t@@@Z 1004b3a0 f   Game_local.obj
 0001:0004a490       ?GetPrivateCameraView@idPlayer@@QBEPAVidCamera@@XZ 1004b490 f i Game_local.obj
 0001:0004a4d0       ?SetupPlayerPVS@idGameLocal@@AAEXXZ 1004b4d0 f   Game_local.obj
 0001:0004a770       ?FreePlayerPVS@idGameLocal@@AAEXXZ 1004b770 f   Game_local.obj
 0001:0004a820       ?InPlayerPVS@idGameLocal@@QBE_NPAVidEntity@@@Z 1004b820 f   Game_local.obj
 0001:0004a8a0       ?InPlayerConnectedArea@idGameLocal@@QBE_NPAVidEntity@@@Z 1004b8a0 f   Game_local.obj
 0001:0004a920       ?UpdateGravity@idGameLocal@@AAEXXZ 1004b920 f   Game_local.obj
 0001:0004aa30       ?GetGravity@idGameLocal@@QBEABVidVec3@@XZ 1004ba30 f   Game_local.obj
 0001:0004aa70       ?SortActiveEntityList@idGameLocal@@AAEXXZ 1004ba70 f   Game_local.obj
 0001:0004aca0       ?RunFrame@idGameLocal@@UAE?AUgameReturn_t@@PBVusercmd_t@@@Z 1004bca0 f   Game_local.obj
 0001:0004b600       ?CalcFov@idGameLocal@@QBEXMAAM0@Z 1004c600 f   Game_local.obj
 0001:0004b8e0       ?atan2@@YAMMM@Z            1004c8e0 f i Game_local.obj
 0001:0004b930       _atan2f                    1004c930 f i Game_local.obj
 0001:0004b990       ?tan@@YAMM@Z               1004c990 f i Game_local.obj
 0001:0004b9d0       _tanf                      1004c9d0 f i Game_local.obj
 0001:0004ba20       ?Draw@idGameLocal@@UAE_NH@Z 1004ca20 f   Game_local.obj
 0001:0004bab0       ?HandleESC@idGameLocal@@UAE?AW4escReply_t@@PAPAVidUserInterface@@@Z 1004cab0 f   Game_local.obj
 0001:0004bb50       ?StartMenu@idGameLocal@@UAEPAVidUserInterface@@XZ 1004cb50 f   Game_local.obj
 0001:0004bbb0       ?HandleGuiCommands@idGameLocal@@UAEPBDPBD@Z 1004cbb0 f   Game_local.obj
 0001:0004bc10       ?GetLevelMap@idGameLocal@@QAEPAVidMapFile@@XZ 1004cc10 f   Game_local.obj
 0001:0004bde0       ?GetMapName@idGameLocal@@QBEPBDXZ 1004cde0 f   Game_local.obj
 0001:0004be30       ?CallFrameCommand@idGameLocal@@QAEXPAVidEntity@@PBVfunction_t@@@Z 1004ce30 f   Game_local.obj
 0001:0004be90       ?CallObjectFrameCommand@idGameLocal@@QAEXPAVidEntity@@PBD@Z 1004ce90 f   Game_local.obj
 0001:0004bf50       ?ShowTargets@idGameLocal@@AAEXXZ 1004cf50 f   Game_local.obj
 0001:0004c6d0       ??DidVec4@@QBE?AV0@M@Z     1004d6d0 f i Game_local.obj
 0001:0004c750       ?RunDebugInfo@idGameLocal@@AAEXXZ 1004d750 f   Game_local.obj
 0001:0004d1e0       ??0predictedPath_s@@QAE@XZ 1004e1e0 f i Game_local.obj
 0001:0004d240       ??0obstaclePath_s@@QAE@XZ  1004e240 f i Game_local.obj
 0001:0004d2a0       ?NumAAS@idGameLocal@@QBEHXZ 1004e2a0 f   Game_local.obj
 0001:0004d2f0       ?GetAAS@idGameLocal@@QBEPAVidAAS@@H@Z 1004e2f0 f   Game_local.obj
 0001:0004d3b0       ?GetAAS@idGameLocal@@QBEPAVidAAS@@PBD@Z 1004e3b0 f   Game_local.obj
 0001:0004d490       ?SetAASAreaState@idGameLocal@@QAEXABVidBounds@@H_N@Z 1004e490 f   Game_local.obj
 0001:0004d530       ?AddAASObstacle@idGameLocal@@QAEHABVidBounds@@@Z 1004e530 f   Game_local.obj
 0001:0004d650       ?RemoveAASObstacle@idGameLocal@@QAEXH@Z 1004e650 f   Game_local.obj
 0001:0004d6f0       ?RemoveAllAASObstacles@idGameLocal@@QAEXXZ 1004e6f0 f   Game_local.obj
 0001:0004d790       ?CheatsOk@idGameLocal@@QAE_N_N@Z 1004e790 f   Game_local.obj
 0001:0004d870       ?RegisterEntity@idGameLocal@@QAEXPAVidEntity@@@Z 1004e870 f   Game_local.obj
 0001:0004da30       ?UnregisterEntity@idGameLocal@@QAEXPAVidEntity@@@Z 1004ea30 f   Game_local.obj
 0001:0004db40       ?SpawnEntityType@idGameLocal@@QAEPAVidEntity@@ABVidTypeInfo@@PBVidDict@@_N@Z 1004eb40 f   Game_local.obj
 0001:0004dc80       ?SpawnEntityDef@idGameLocal@@QAE_NABVidDict@@PAPAVidEntity@@_N@Z 1004ec80 f   Game_local.obj
 0001:0004e0a0       ?FindEntityDef@idGameLocal@@QBEPBVidDeclEntityDef@@PBD_N@Z 1004f0a0 f   Game_local.obj
 0001:0004e160       ?FindEntityDefDict@idGameLocal@@QBEPBVidDict@@PBD_N@Z 1004f160 f   Game_local.obj
 0001:0004e1d0       ?InhibitEntitySpawn@idGameLocal@@AAE_NAAVidDict@@@Z 1004f1d0 f   Game_local.obj
 0001:0004e390       ?SetSkill@idGameLocal@@QAEXH@Z 1004f390 f   Game_local.obj
 0001:0004e400       ?GameState@idGameLocal@@QBE?AW4gameState_t@@XZ 1004f400 f   Game_local.obj
 0001:0004e440       ?SpawnMapEntities@idGameLocal@@AAEXXZ 1004f440 f   Game_local.obj
 0001:0004e6c0       ?AddEntityToHash@idGameLocal@@QAEXPBDPAVidEntity@@@Z 1004f6c0 f   Game_local.obj
 0001:0004e750       ?RemoveEntityFromHash@idGameLocal@@QAE_NPBDPAVidEntity@@@Z 1004f750 f   Game_local.obj
 0001:0004e830       ?GetTargets@idGameLocal@@QBEHABVidDict@@AAV?$idList@V?$idEntityPtr@VidEntity@@@@@@PBD@Z 1004f830 f   Game_local.obj
 0001:0004e920       ?GetTraceEntity@idGameLocal@@QBEPAVidEntity@@ABUtrace_s@@@Z 1004f920 f   Game_local.obj
 0001:0004e9b0       ?ArgCompletion_EntityName@idGameLocal@@SAXABVidCmdArgs@@P6AXPBD@Z@Z 1004f9b0 f   Game_local.obj
 0001:0004ea50       ?FindEntity@idGameLocal@@QBEPAVidEntity@@PBD@Z 1004fa50 f   Game_local.obj
 0001:0004eb20       ?FindEntityUsingDef@idGameLocal@@QBEPAVidEntity@@PAV2@PBD@Z 1004fb20 f   Game_local.obj
 0001:0004ebe0       ?FindTraceEntity@idGameLocal@@QBEPAVidEntity@@VidVec3@@0ABVidTypeInfo@@PBV2@@Z 1004fbe0 f   Game_local.obj
 0001:0004ed60       ?EntitiesWithinRadius@idGameLocal@@QBEHVidVec3@@MPAPAVidEntity@@H@Z 1004fd60 f   Game_local.obj
 0001:0004ee60       ?KillBox@idGameLocal@@QAEXPAVidEntity@@_N@Z 1004fe60 f   Game_local.obj
 0001:0004f090       ?IsRenderModel@idClipModel@@QBE_NXZ 10050090 f i Game_local.obj
 0001:0004f0d0       ?IsInTeleport@idPlayer@@QAE_NXZ 100500d0 f i Game_local.obj
 0001:0004f120       ?RequirementMet@idGameLocal@@QAE_NPAVidEntity@@ABVidStr@@H@Z 10050120 f   Game_local.obj
 0001:0004f1c0       ?AlertAI@idGameLocal@@QAEXPAVidEntity@@@Z 100501c0 f   Game_local.obj
 0001:0004f240       ?GetAlertEntity@idGameLocal@@QAEPAVidActor@@XZ 10050240 f   Game_local.obj
 0001:0004f2a0       ?RadiusDamage@idGameLocal@@QAEXABVidVec3@@PAVidEntity@@111PBDM@Z 100502a0 f   Game_local.obj
 0001:0004fa30       ?RadiusPush@idGameLocal@@QAEXABVidVec3@@MMPBVidEntity@@1M_N@Z 10050a30 f   Game_local.obj
 0001:0004fda0       ??0modelTrace_s@@QAE@XZ    10050da0 f i Game_local.obj
 0001:0004fdf0       ?RadiusPushClipModel@idGameLocal@@QAEXABVidVec3@@MPBVidClipModel@@@Z 10050df0 f   Game_local.obj
 0001:000502e0       ?GetTraceModel@idClipModel@@QBEPBVidTraceModel@@XZ 100512e0 f i Game_local.obj
 0001:00050340       ??_0idVec3@@QAEAAV0@M@Z    10051340 f i Game_local.obj
 0001:000503b0       ?ProjectDecal@idGameLocal@@QAEXABVidVec3@@0M_NMPBDM@Z 100513b0 f   Game_local.obj
 0001:000509d0       ??0idVec2@@QAE@MM@Z        100519d0 f i Game_local.obj
 0001:00050a10       ??0idVec5@@QAE@ABVidVec3@@ABVidVec2@@@Z 10051a10 f i Game_local.obj
 0001:00050a90       ?BloodSplat@idGameLocal@@QAEXABVidVec3@@0MPBD@Z 10051a90 f   Game_local.obj
 0001:00050cd0       ?SetCamera@idGameLocal@@QAEXPAVidCamera@@@Z 10051cd0 f   Game_local.obj
 0001:00051040       ?GetCamera@idGameLocal@@QBEPAVidCamera@@XZ 10052040 f   Game_local.obj
 0001:00051080       ?SkipCinematic@idGameLocal@@QAE_NXZ 10052080 f   Game_local.obj
 0001:00051210       ?SpreadLocations@idGameLocal@@QAEXXZ 10052210 f   Game_local.obj
 0001:00051470       ?LocationForPoint@idGameLocal@@QAEPAVidLocationEntity@@ABVidVec3@@@Z 10052470 f   Game_local.obj
 0001:00051530       ?SetPortalState@idGameLocal@@QAEXHH@Z 10052530 f   Game_local.obj
 0001:00051680       ?sortSpawnPoints@idGameLocal@@CAHPBX0@Z 10052680 f   Game_local.obj
 0001:00051700       ?RandomizeInitialSpawns@idGameLocal@@AAEXXZ 10052700 f   Game_local.obj
 0001:000519c0       ?SelectInitialSpawnPoint@idGameLocal@@QAEPAVidEntity@@PAVidPlayer@@@Z 100529c0 f   Game_local.obj
 0001:00051dc0       ?UpdateServerInfoFlags@idGameLocal@@AAEXXZ 10052dc0 f   Game_local.obj
 0001:00051f90       ?SetGlobalMaterial@idGameLocal@@QAEXPBVidMaterial@@@Z 10052f90 f   Game_local.obj
 0001:00051fd0       ?GetGlobalMaterial@idGameLocal@@QAEPBVidMaterial@@XZ 10052fd0 f   Game_local.obj
 0001:00052010       ?GetSpawnId@idGameLocal@@QBEHPBVidEntity@@@Z 10053010 f   Game_local.obj
 0001:00052060       ?ThrottleUserInfo@idGameLocal@@UAEXXZ 10053060 f   Game_local.obj
 0001:000520b0       ?SelectTimeGroup@idGameLocal@@UAEXH@Z 100530b0 f   Game_local.obj
 0001:000520e0       ?GetTimeGroupTime@idGameLocal@@UAEHH@Z 100530e0 f   Game_local.obj
 0001:00052120       ?GetBestGameType@idGameLocal@@UAE?AVidStr@@PBD0@Z 10053120 f   Game_local.obj
 0001:00052190       ?NeedRestart@idGameLocal@@QAE_NXZ 10053190 f   Game_local.obj
 0001:00052360       ?GetClientStats@idGameLocal@@UAEXHPADH@Z 10053360 f   Game_local.obj
 0001:000523c0       ?SwitchTeam@idGameLocal@@UAEXHH@Z 100533c0 f   Game_local.obj
 0001:00052460       ?Append@?$idList@VidStr@@@@QAEHABVidStr@@@Z 10053460 f i Game_local.obj
 0001:00052530       ?AddUnique@?$idList@VidStr@@@@QAEHABVidStr@@@Z 10053530 f i Game_local.obj
 0001:00052590       ??0?$idBlockAlloc@UentityNetEvent_s@@$0CA@@@QAE@XZ 10053590 f i Game_local.obj
 0001:000525f0       ??1?$idBlockAlloc@UentityNetEvent_s@@$0CA@@@QAE@XZ 100535f0 f i Game_local.obj
 0001:00052630       ?Num@?$idLinkList@VidEntity@@@@QBEHXZ 10053630 f i Game_local.obj
 0001:00052690       ?AddToFront@?$idLinkList@VidEntity@@@@QAEXAAV1@@Z 10053690 f i Game_local.obj
 0001:000526e0       ??0?$idList@PAVidAAS@@@@QAE@H@Z 100536e0 f i Game_local.obj
 0001:00052760       ??1?$idList@PAVidAAS@@@@QAE@XZ 10053760 f i Game_local.obj
 0001:000527a0       ?Clear@?$idList@PAVidAAS@@@@QAEXXZ 100537a0 f i Game_local.obj
 0001:00052820       ?Num@?$idList@PAVidAAS@@@@QBEHXZ 10053820 f i Game_local.obj
 0001:00052850       ??A?$idList@PAVidAAS@@@@QAEAAPAVidAAS@@H@Z 10053850 f i Game_local.obj
 0001:000528e0       ??A?$idList@PAVidAAS@@@@QBEABQAVidAAS@@H@Z 100538e0 f i Game_local.obj
 0001:00052970       ?Append@?$idList@PAVidAAS@@@@QAEHABQAVidAAS@@@Z 10053970 f i Game_local.obj
 0001:00052a30       ?DeleteContents@?$idList@PAVidAAS@@@@QAEX_N@Z 10053a30 f i Game_local.obj
 0001:00052b20       ??0?$idEntityPtr@VidActor@@@@QAE@XZ 10053b20 f i Game_local.obj
 0001:00052b60       ?Save@?$idEntityPtr@VidActor@@@@QBEXPAVidSaveGame@@@Z 10053b60 f i Game_local.obj
 0001:00052bb0       ?Restore@?$idEntityPtr@VidActor@@@@QAEXPAVidRestoreGame@@@Z 10053bb0 f i Game_local.obj
 0001:00052c00       ??4?$idEntityPtr@VidActor@@@@QAEAAV0@PAVidActor@@@Z 10053c00 f i Game_local.obj
 0001:00052c60       ?GetEntity@?$idEntityPtr@VidActor@@@@QBEPAVidActor@@XZ 10053c60 f i Game_local.obj
 0001:00052cc0       ??0?$idBlockAlloc@UentityState_s@@$0BAA@@@QAE@XZ 10053cc0 f i Game_local.obj
 0001:00052d20       ??1?$idBlockAlloc@UentityState_s@@$0BAA@@@QAE@XZ 10053d20 f i Game_local.obj
 0001:00052d60       ??0?$idBlockAlloc@Usnapshot_s@@$0EA@@@QAE@XZ 10053d60 f i Game_local.obj
 0001:00052dc0       ??1?$idBlockAlloc@Usnapshot_s@@$0EA@@@QAE@XZ 10053dc0 f i Game_local.obj
 0001:00052e00       ??0?$idStaticList@UspawnSpot_t@@$0BAAA@@@QAE@XZ 10053e00 f i Game_local.obj
 0001:00052e40       ??1?$idStaticList@UspawnSpot_t@@$0BAAA@@@QAE@XZ 10053e40 f i Game_local.obj
 0001:00052e70       ?Clear@?$idStaticList@UspawnSpot_t@@$0BAAA@@@QAEXXZ 10053e70 f i Game_local.obj
 0001:00052eb0       ?Num@?$idStaticList@UspawnSpot_t@@$0BAAA@@@QBEHXZ 10053eb0 f i Game_local.obj
 0001:00052ee0       ??A?$idStaticList@UspawnSpot_t@@$0BAAA@@@QAEAAUspawnSpot_t@@H@Z 10053ee0 f i Game_local.obj
 0001:00052f70       ?Ptr@?$idStaticList@UspawnSpot_t@@$0BAAA@@@QAEPAUspawnSpot_t@@XZ 10053f70 f i Game_local.obj
 0001:00052fa0       ?Append@?$idStaticList@UspawnSpot_t@@$0BAAA@@@QAEHABUspawnSpot_t@@@Z 10053fa0 f i Game_local.obj
 0001:00053040       ??0?$idStaticList@PAVidEntity@@$0BAAA@@@QAE@XZ 10054040 f i Game_local.obj
 0001:00053080       ??1?$idStaticList@PAVidEntity@@$0BAAA@@@QAE@XZ 10054080 f i Game_local.obj
 0001:000530b0       ?Clear@?$idStaticList@PAVidEntity@@$0BAAA@@@QAEXXZ 100540b0 f i Game_local.obj
 0001:000530f0       ?Num@?$idStaticList@PAVidEntity@@$0BAAA@@@QBEHXZ 100540f0 f i Game_local.obj
 0001:00053120       ??A?$idStaticList@PAVidEntity@@$0BAAA@@@QAEAAPAVidEntity@@H@Z 10054120 f i Game_local.obj
 0001:000531b0       ?Append@?$idStaticList@PAVidEntity@@$0BAAA@@@QAEHABQAVidEntity@@@Z 100541b0 f i Game_local.obj
 0001:00053250       ?Alloc@?$idList@V?$idEntityPtr@VidEntity@@@@@@QAEAAV?$idEntityPtr@VidEntity@@@@XZ 10054250 f i Game_local.obj
 0001:000532f0       ??1?$idList@UactiveSmokeStage_t@@@@QAE@XZ 100542f0 f i Game_local.obj
 0001:00053330       ??1?$idList@UselectedTypeInfo_s@@@@QAE@XZ 10054330 f i Game_local.obj
 0001:00053370       ??B?$idScriptVariable@H$0O@H@@QBEHXZ 10054370 f i Game_local.obj
 0001:000533e0       ??0?$idList@PAVidThread@@@@QAE@H@Z 100543e0 f i Game_local.obj
 0001:00053460       ??1?$idList@PAVidThread@@@@QAE@XZ 10054460 f i Game_local.obj
 0001:000534a0       ?Num@?$idList@PAVidThread@@@@QBEHXZ 100544a0 f i Game_local.obj
 0001:000534d0       ??4?$idList@PAVidThread@@@@QAEAAV0@ABV0@@Z 100544d0 f i Game_local.obj
 0001:000535a0       ??A?$idList@PAVidThread@@@@QAEAAPAVidThread@@H@Z 100545a0 f i Game_local.obj
 0001:00053630       ??$idDeclAllocator@VidDeclModelDef@@@@YAPAVidDecl@@XZ 10054630 f i Game_local.obj
 0001:000536e0       ??$idDeclAllocator@VidDecl@@@@YAPAVidDecl@@XZ 100546e0 f i Game_local.obj
 0001:00053790       ??$idListDecls_f@$04@@YAXABVidCmdArgs@@@Z 10054790 f i Game_local.obj
 0001:000537f0       ??$ArgCompletion_Decl@$04@idCmdSystem@@SAXABVidCmdArgs@@P6AXPBD@Z@Z 100547f0 f i Game_local.obj
 0001:00053850       ??$idPrintDecls_f@$04@@YAXABVidCmdArgs@@@Z 10054850 f i Game_local.obj
 0001:000538b0       ?FindIndex@?$idList@VidStr@@@@QBEHABVidStr@@@Z 100548b0 f i Game_local.obj
 0001:00053930       ?Shutdown@?$idBlockAlloc@UentityNetEvent_s@@$0CA@@@QAEXXZ 10054930 f i Game_local.obj
 0001:000539d0       ?InsertAfter@?$idLinkList@VidEntity@@@@QAEXAAV1@@Z 100549d0 f i Game_local.obj
 0001:00053a50       ?Resize@?$idList@PAVidAAS@@@@QAEXH@Z 10054a50 f i Game_local.obj
 0001:00053b70       ?Shutdown@?$idBlockAlloc@UentityState_s@@$0BAA@@@QAEXXZ 10054b70 f i Game_local.obj
 0001:00053c30       ?Shutdown@?$idBlockAlloc@Usnapshot_s@@$0EA@@@QAEXXZ 10054c30 f i Game_local.obj
 0001:00053cd0       ?Clear@?$idList@UactiveSmokeStage_t@@@@QAEXXZ 10054cd0 f i Game_local.obj
 0001:00053d50       ?Clear@?$idList@UselectedTypeInfo_s@@@@QAEXXZ 10054d50 f i Game_local.obj
 0001:00053df0       ?Clear@?$idList@PAVidThread@@@@QAEXXZ 10054df0 f i Game_local.obj
 0001:00053e70       ??_Gblock_s@?$idBlockAlloc@UentityState_s@@$0BAA@@@QAEPAXI@Z 10054e70 f i Game_local.obj
 0001:00053ed0       ??_EselectedTypeInfo_s@@QAEPAXI@Z 10054ed0 f i Game_local.obj
 0001:00053f70       ??1block_s@?$idBlockAlloc@UentityState_s@@$0BAA@@@QAE@XZ 10054f70 f i Game_local.obj
 0001:00053fc0       ??1selectedTypeInfo_s@@QAE@XZ 10054fc0 f i Game_local.obj
 0001:00054010       ??1element_s@?$idBlockAlloc@UentityState_s@@$0BAA@@@QAE@XZ 10055010 f i Game_local.obj
 0001:00054060       ??1entityState_s@@QAE@XZ   10055060 f i Game_local.obj
 0001:000540b0       ?GetVolume@idBounds@@QBEMXZ 100550b0 f i Game_local.obj
 0001:00054200       ?ExpandSelf@idBounds@@QAEAAV1@M@Z 10055200 f i Game_local.obj
 0001:00054320       ??YidWinding@@QAEAAV0@ABVidVec5@@@Z 10055320 f i Game_local.obj
 0001:00054370       ?AddPoint@idWinding@@QAEXABVidVec5@@@Z 10055370 f i Game_local.obj
 0001:00054410       ??H@YA?AVidStr@@ABV0@PBD@Z 10055410 f i Game_local.obj
 0001:000544e0       ?Cmp@idStr@@QBEHPBD@Z      100554e0 f i Game_local.obj
 0001:00054550       ?Icmpn@idStr@@QBEHPBDH@Z   10055550 f i Game_local.obj
 0001:000545d0       ?IcmpPath@idStr@@QBEHPBD@Z 100555d0 f i Game_local.obj
 0001:00054640       ?IsNumeric@idStr@@QBE_NXZ  10055640 f i Game_local.obj
 0001:00054690       ?Find@idStr@@QBEHDHH@Z     10055690 f i Game_local.obj
 0001:00054700       ?Find@idStr@@QBEHPBD_NHH@Z 10055700 f i Game_local.obj
 0001:00054770       ?Left@idStr@@QBE?AV1@H@Z   10055770 f i Game_local.obj
 0001:000547e0       ?Argv@idCmdArgs@@QBEPBDH@Z 100557e0 f i Game_local.obj
 0001:00054840       ?Add@idHashIndex@@QAEXHH@Z 10055840 f i Game_local.obj
 0001:00054940       ?Remove@idHashIndex@@QAEXHH@Z 10055940 f i Game_local.obj
 0001:00054a20       ?First@idHashIndex@@QBEHH@Z 10055a20 f i Game_local.obj
 0001:00054a70       ?Next@idHashIndex@@QBEHH@Z 10055a70 f i Game_local.obj
 0001:00054af0       ?GenerateKey@idHashIndex@@QBEHPBD_N@Z 10055af0 f i Game_local.obj
 0001:00054b60       ?Hash@idStr@@SAHPBD@Z      10055b60 f i Game_local.obj
 0001:00054bd0       ?IHash@idStr@@SAHPBD@Z     10055bd0 f i Game_local.obj
 0001:00054c60       ?ToLower@idStr@@SADD@Z     10055c60 f i Game_local.obj
 0001:00054cb0       ?SetInt@idDict@@QAEXPBDH@Z 10055cb0 f i Game_local.obj
 0001:00054d10       ??1idMapFile@@QAE@XZ       10055d10 f i Game_local.obj
 0001:00054da0       ??1?$idList@PAVidMapEntity@@@@QAE@XZ 10055da0 f i Game_local.obj
 0001:00054de0       ?DeleteContents@?$idList@PAVidMapEntity@@@@QAEX_N@Z 10055de0 f i Game_local.obj
 0001:00054ec0       ??_GidMapEntity@@QAEPAXI@Z 10055ec0 f i Game_local.obj
 0001:00054f20       ?Clear@?$idList@PAVidMapEntity@@@@QAEXXZ 10055f20 f i Game_local.obj
 0001:00054fa0       ??1idMapEntity@@QAE@XZ     10055fa0 f i Game_local.obj
 0001:00055030       ??1?$idList@PAVidMapPrimitive@@@@QAE@XZ 10056030 f i Game_local.obj
 0001:00055070       ?DeleteContents@?$idList@PAVidMapPrimitive@@@@QAEX_N@Z 10056070 f i Game_local.obj
 0001:00055160       ?Clear@?$idList@PAVidMapPrimitive@@@@QAEXXZ 10056160 f i Game_local.obj
 0001:000551e0       ?GetNumEntities@idMapFile@@QBEHXZ 100561e0 f i Game_local.obj
 0001:00055230       ?Num@?$idList@PAVidMapEntity@@@@QBEHXZ 10056230 f i Game_local.obj
 0001:00055260       ?GetEntity@idMapFile@@QBEPAVidMapEntity@@H@Z 10056260 f i Game_local.obj
 0001:000552b0       ??A?$idList@PAVidMapEntity@@@@QBEABQAVidMapEntity@@H@Z 100562b0 f i Game_local.obj
 0001:00055340       ?GetName@idMapFile@@QBEPBDXZ 10056340 f i Game_local.obj
 0001:00055390       ?GetGeometryCRC@idMapFile@@QBEIXZ 10056390 f i Game_local.obj
 0001:000553c0       ?HasPrimitiveData@idMapFile@@QAE_NXZ 100563c0 f i Game_local.obj
 0001:000553f0       ??0idMapFile@@QAE@XZ       100563f0 f i Game_local.obj
 0001:000554b0       ??0?$idList@PAVidMapEntity@@@@QAE@H@Z 100564b0 f i Game_local.obj
 0001:00055530       ?Resize@?$idList@PAVidMapEntity@@@@QAEXHH@Z 10056530 f i Game_local.obj
 0001:00055670       ??0idTimer@@QAE@XZ         10056670 f i Game_local.obj
 0001:000556c0       ??1idTimer@@QAE@XZ         100566c0 f i Game_local.obj
 0001:000556f0       ?Start@idTimer@@QAEXXZ     100566f0 f i Game_local.obj
 0001:00055780       ?Stop@idTimer@@QAEXXZ      10056780 f i Game_local.obj
 0001:00055850       ?Clear@idTimer@@QAEXXZ     10056850 f i Game_local.obj
 0001:00055890       ?Milliseconds@idTimer@@QBENXZ 10056890 f i Game_local.obj
 0001:00055920       ?IsModified@idCVar@@QBE_NXZ 10056920 f i Game_local.obj
 0001:00055960       ?ClearModified@idCVar@@QAEXXZ 10056960 f i Game_local.obj
 0001:000559b0       ?GetString@idCVar@@QBEPBDXZ 100569b0 f i Game_local.obj
 0001:000559f0       ?SetString@idCVar@@QAEXPBD@Z 100569f0 f i Game_local.obj
 0001:00055a50       ?SetInteger@idCVar@@QAEXH@Z 10056a50 f i Game_local.obj
 0001:00055ab0       ?SetFloat@idCVar@@QAEXM@Z  10056ab0 f i Game_local.obj
 0001:00055b10       ?RegisterStaticVars@idCVar@@SAXXZ 10056b10 f i Game_local.obj
 0001:00055b90       ??0idDecl@@QAE@XZ          10056b90 f i Game_local.obj
 0001:00055bd0       ?EnsureNotPurged@idDecl@@QAEXXZ 10056bd0 f i Game_local.obj
 0001:00055c30       ?EverReferenced@idDecl@@QBE_NXZ 10056c30 f i Game_local.obj
 0001:00055c90       ?SetDefaultText@idDecl@@UAE_NXZ 10056c90 f i Game_local.obj
 0001:00055cf0       ?DefaultDefinition@idDecl@@UBEPBDXZ 10056cf0 f i Game_local.obj
 0001:00055d50       ?Parse@idDecl@@UAE_NPBDH@Z 10056d50 f i Game_local.obj
 0001:00055db0       ?FreeData@idDecl@@UAEXXZ   10056db0 f i Game_local.obj
 0001:00055e10       ?Size@idDecl@@UBEIXZ       10056e10 f i Game_local.obj
 0001:00055e70       ?List@idDecl@@UBEXXZ       10056e70 f i Game_local.obj
 0001:00055ed0       ?Print@idDecl@@UBEXXZ      10056ed0 f i Game_local.obj
 0001:00055f30       ??_GidDecl@@UAEPAXI@Z      10056f30 f i Game_local.obj
 0001:00055f30       ??_EidDecl@@UAEPAXI@Z      10056f30 f i Game_local.obj
 0001:00055f90       ??1idDecl@@UAE@XZ          10056f90 f i Game_local.obj
 0001:00055fd0       ??1idGame@@UAE@XZ          10056fd0 f i Game_local.obj
 0001:00056010       ??_EidGame@@UAEPAXI@Z      10057010 f i Game_local.obj
 0001:00056010       ??_GidGame@@UAEPAXI@Z      10057010 f i Game_local.obj
 0001:00056070       ??0idCVar@@QAE@PBD0H0P6AXABVidCmdArgs@@P6AX0@Z@Z@Z 10057070 f i Game_local.obj
 0001:00056100       ?ArgCompletion_Boolean@idCmdSystem@@SAXABVidCmdArgs@@P6AXPBD@Z@Z 10057100 f i Game_local.obj
 0001:00056190       ?InternalSetString@idCVar@@EAEXPBD@Z 10057190 f i Game_local.obj
 0001:000561c0       ?InternalSetBool@idCVar@@EAEX_N@Z 100571c0 f i Game_local.obj
 0001:000561f0       ?InternalSetInteger@idCVar@@EAEXH@Z 100571f0 f i Game_local.obj
 0001:00056220       ?InternalSetFloat@idCVar@@EAEXM@Z 10057220 f i Game_local.obj
 0001:00056250       ??_GidCVar@@UAEPAXI@Z      10057250 f i Game_local.obj
 0001:00056250       ??_EidCVar@@UAEPAXI@Z      10057250 f i Game_local.obj
 0001:000562b0       ??1idCVar@@UAE@XZ          100572b0 f i Game_local.obj
 0001:000562f0       ?Init@idCVar@@AAEXPBD0H0MMPAPBDP6AXABVidCmdArgs@@P6AX0@Z@Z@Z 100572f0 f i Game_local.obj
 0001:000563e0       ?InitAsyncNetwork@idGameLocal@@AAEXXZ 100573e0 f   Game_network.obj
 0001:00056550       ?ShutdownAsyncNetwork@idGameLocal@@AAEXXZ 10057550 f   Game_network.obj
 0001:00056610       ?InitLocalClient@idGameLocal@@AAEXH@Z 10057610 f   Game_network.obj
 0001:00056680       ?InitClientDeclRemap@idGameLocal@@AAEXH@Z 10057680 f   Game_network.obj
 0001:000567f0       ?ServerSendDeclRemapToClient@idGameLocal@@AAEXHW4declType_t@@H@Z 100577f0 f   Game_network.obj
 0001:00056a80       ?ServerRemapDecl@idGameLocal@@QAEHHW4declType_t@@H@Z 10057a80 f   Game_network.obj
 0001:00056b20       ?ClientRemapDecl@idGameLocal@@QAEHW4declType_t@@H@Z 10057b20 f   Game_network.obj
 0001:00056ce0       ?ServerAllowClient@idGameLocal@@UAE?AW4allowReply_t@@HPBD00QAD@Z 10057ce0 f   Game_network.obj
 0001:00056ef0       ?IsPureReady@idMultiplayerGame@@QBE_NXZ 10057ef0 f i Game_network.obj
 0001:00056f30       ?ServerClientConnect@idGameLocal@@UAEXH@Z 10057f30 f   Game_network.obj
 0001:00057030       ?ServerClientBegin@idGameLocal@@UAEXH@Z 10058030 f   Game_network.obj
 0001:000571e0       ?ServerClientDisconnect@idGameLocal@@UAEXH@Z 100581e0 f   Game_network.obj
 0001:00057410       ?ServerWriteInitialReliableMessages@idGameLocal@@UAEXH@Z 10058410 f   Game_network.obj
 0001:00057750       ?Start@idEventQueue@@QAEPAUentityNetEvent_s@@XZ 10058750 f i Game_network.obj
 0001:00057780       ?SaveEntityNetworkEvent@idGameLocal@@QAEXPBVidEntity@@HPBVidBitMsg@@@Z 10058780 f   Game_network.obj
 0001:00057850       ?FreeSnapshotsOlderThanSequence@idGameLocal@@AAEXHH@Z 10058850 f   Game_network.obj
 0001:00057960       ?ApplySnapshot@idGameLocal@@AAE_NHH@Z 10058960 f   Game_network.obj
 0001:00057ae0       ?WriteGameStateToSnapshot@idGameLocal@@ABEXAAVidBitMsgDelta@@@Z 10058ae0 f   Game_network.obj
 0001:00057b60       ?ReadGameStateFromSnapshot@idGameLocal@@AAEXABVidBitMsgDelta@@@Z 10058b60 f   Game_network.obj
 0001:00057be0       ?ServerWriteSnapshot@idGameLocal@@UAEXHHAAVidBitMsg@@PAEH@Z 10058be0 f   Game_network.obj
 0001:000582f0       ?GetTypeNumBits@idClass@@SAHXZ 100592f0 f i Game_network.obj
 0001:00058320       ?GetPlayerPhysics@idPlayer@@QAEPAVidPhysics@@XZ 10059320 f i Game_network.obj
 0001:00058360       ?ServerApplySnapshot@idGameLocal@@UAE_NHH@Z 10059360 f   Game_network.obj
 0001:000583b0       ?NetworkEventWarning@idGameLocal@@AAAXPBUentityNetEvent_s@@PBDZZ 100593b0 f   Game_network.obj
 0001:00058500       ?ServerProcessEntityNetworkEventQueue@idGameLocal@@AAEXXZ 10059500 f   Game_network.obj
 0001:00058720       ?ServerSendChatMessage@idGameLocal@@QAEXHPBD0@Z 10059720 f   Game_network.obj
 0001:00058880       ?ServerProcessReliableMessage@idGameLocal@@UAEXHABVidBitMsg@@@Z 10059880 f   Game_network.obj
 0001:00058b80       ?ClientShowSnapshot@idGameLocal@@ABEXH@Z 10059b80 f   Game_network.obj
 0001:00058e50       ?UpdateLagometer@idGameLocal@@AAEXHH@Z 10059e50 f   Game_network.obj
 0001:000590c0       ?Rint@idMath@@SAMM@Z       1005a0c0 f i Game_network.obj
 0001:00059110       ?ClientReadSnapshot@idGameLocal@@UAEXHHHHHHABVidBitMsg@@@Z 1005a110 f   Game_network.obj
 0001:00059f00       ?SetSelfSmooth@idPlayer@@QAEX_N@Z 1005af00 f i Game_network.obj
 0001:00059f40       ??8idVec3@@QBE_NABV0@@Z    1005af40 f i Game_network.obj
 0001:00059f90       ?ClientApplySnapshot@idGameLocal@@UAE_NHH@Z 1005af90 f   Game_network.obj
 0001:00059fe0       ?ClientProcessEntityNetworkEventQueue@idGameLocal@@AAEXXZ 1005afe0 f   Game_network.obj
 0001:0005a210       ?ClientProcessReliableMessage@idGameLocal@@UAEXHABVidBitMsg@@@Z 1005b210 f   Game_network.obj
 0001:0005aaf0       ?ClientPrediction@idGameLocal@@UAE?AUgameReturn_t@@HPBVusercmd_t@@@Z 1005baf0 f   Game_network.obj
 0001:0005ad30       ?Tokenize@idGameLocal@@AAEXAAV?$idList@VidStr@@@@PBD@Z 1005bd30 f   Game_network.obj
 0001:0005aea0       ?DownloadRequest@idGameLocal@@UAE_NPBD00QAD@Z 1005bea0 f   Game_network.obj
 0001:0005b310       ?Alloc@idEventQueue@@QAEPAUentityNetEvent_s@@XZ 1005c310 f   Game_network.obj
 0001:0005b380       ?Free@idEventQueue@@QAEXPAUentityNetEvent_s@@@Z 1005c380 f   Game_network.obj
 0001:0005b400       ?Shutdown@idEventQueue@@QAEXXZ 1005c400 f   Game_network.obj
 0001:0005b450       ?Init@idEventQueue@@QAEXXZ 1005c450 f   Game_network.obj
 0001:0005b490       ?Dequeue@idEventQueue@@QAEPAUentityNetEvent_s@@XZ 1005c490 f   Game_network.obj
 0001:0005b520       ?RemoveLast@idEventQueue@@QAEPAUentityNetEvent_s@@XZ 1005c520 f   Game_network.obj
 0001:0005b5b0       ?Enqueue@idEventQueue@@QAEXPAUentityNetEvent_s@@W4outOfOrderBehaviour_t@1@@Z 1005c5b0 f   Game_network.obj
 0001:0005b760       ?Alloc@?$idBlockAlloc@UentityNetEvent_s@@$0CA@@@QAEPAUentityNetEvent_s@@XZ 1005c760 f i Game_network.obj
 0001:0005b860       ?Free@?$idBlockAlloc@UentityNetEvent_s@@$0CA@@@QAEXPAUentityNetEvent_s@@@Z 1005c860 f i Game_network.obj
 0001:0005b8c0       ?SetSpawnId@?$idEntityPtr@VidEntity@@@@QAE_NH@Z 1005c8c0 f i Game_network.obj
 0001:0005b920       ?Alloc@?$idBlockAlloc@UentityState_s@@$0BAA@@@QAEPAUentityState_s@@XZ 1005c920 f i Game_network.obj
 0001:0005ba80       ?Free@?$idBlockAlloc@UentityState_s@@$0BAA@@@QAEXPAUentityState_s@@@Z 1005ca80 f i Game_network.obj
 0001:0005bae0       ?Alloc@?$idBlockAlloc@Usnapshot_s@@$0EA@@@QAEPAUsnapshot_s@@XZ 1005cae0 f i Game_network.obj
 0001:0005bbe0       ?Free@?$idBlockAlloc@Usnapshot_s@@$0EA@@@QAEXPAUsnapshot_s@@@Z 1005cbe0 f i Game_network.obj
 0001:0005bc40       ?GetEntity@?$idEntityPtr@VidWeapon@@@@QBEPAVidWeapon@@XZ 1005cc40 f i Game_network.obj
 0001:0005bca0       ??$Max@H@@YAHHH@Z          1005cca0 f i Game_network.obj
 0001:0005bcf0       ??$Min@H@@YAHHH@Z          1005ccf0 f i Game_network.obj
 0001:0005bd40       ??0block_s@?$idBlockAlloc@UentityState_s@@$0BAA@@@QAE@XZ 1005cd40 f i Game_network.obj
 0001:0005bda0       ??0element_s@?$idBlockAlloc@UentityState_s@@$0BAA@@@QAE@XZ 1005cda0 f i Game_network.obj
 0001:0005bdf0       ??0entityState_s@@QAE@XZ   1005cdf0 f i Game_network.obj
 0001:0005be40       ??AidStr@@QAEAADH@Z        1005ce40 f i Game_network.obj
 0001:0005beb0       ?ToLower@idStr@@SAPADPAD@Z 1005ceb0 f i Game_network.obj
 0001:0005bf40       ?CharIsUpper@idStr@@SA_NH@Z 1005cf40 f i Game_network.obj
 0001:0005bfa0       ?SetSize@idBitMsg@@QAEXH@Z 1005cfa0 f i Game_network.obj
 0001:0005bff0       ?GetNumBitsWritten@idBitMsg@@QBEHXZ 1005cff0 f i Game_network.obj
 0001:0005c050       ?SaveWriteState@idBitMsg@@QBEXAAH0@Z 1005d050 f i Game_network.obj
 0001:0005c0a0       ?RestoreWriteState@idBitMsg@@QAEXHH@Z 1005d0a0 f i Game_network.obj
 0001:0005c120       ?GetNumBitsRead@idBitMsg@@QBEHXZ 1005d120 f i Game_network.obj
 0001:0005c180       ?WriteDeltaLong@idBitMsg@@QAEXHH@Z 1005d180 f i Game_network.obj
 0001:0005c1d0       ?BeginReading@idBitMsg@@QBEXXZ 1005d1d0 f i Game_network.obj
 0001:0005c210       ?ReadByteAlign@idBitMsg@@QBEXXZ 1005d210 f i Game_network.obj
 0001:0005c250       ?ReadDeltaLong@idBitMsg@@QBEHH@Z 1005d250 f i Game_network.obj
 0001:0005c2a0       ??1idBitMsgDelta@@QAE@XZ   1005d2a0 f i Game_network.obj
 0001:0005c2d0       ??0idBitMsgDelta@@QAE@XZ   1005d2d0 f i Game_network.obj
 0001:0005c330       ?Init@idBitMsgDelta@@QAEXPBVidBitMsg@@PAV2@1@Z 1005d330 f i Game_network.obj
 0001:0005c390       ?Init@idBitMsgDelta@@QAEXPBVidBitMsg@@PAV2@0@Z 1005d390 f i Game_network.obj
 0001:0005c3f0       ?HasChanged@idBitMsgDelta@@QBE_NXZ 1005d3f0 f i Game_network.obj
 0001:0005c420       ?WriteFloat@idBitMsgDelta@@QAEXM@Z 1005d420 f i Game_network.obj
 0001:0005c470       ?ReadFloat@idBitMsgDelta@@QBEMXZ 1005d470 f i Game_network.obj
 0001:0005c4c0       ?SetBool@idCVar@@QAEX_N@Z  1005d4c0 f i Game_network.obj
 0001:0005c520       ?IsImplicit@idDecl@@QBE_NXZ 1005d520 f i Game_network.obj
 0001:0005c580       ??$ArgCompletion_Integer@$0A@$02@idCmdSystem@@SAXABVidCmdArgs@@P6AXPBD@Z@Z 1005d580 f i Game_network.obj
 0001:0005c600       ??0idCVar@@QAE@PBD0H0MMP6AXABVidCmdArgs@@P6AX0@Z@Z@Z 1005d600 f i Game_network.obj
 0001:0005c670       ?CreateInstance@idCursor3D@@SAPAVidClass@@XZ 1005d670 f   GameEdit.obj
 0001:0005c760       ?GetType@idCursor3D@@UBEPAVidTypeInfo@@XZ 1005d760 f   GameEdit.obj
 0001:0005c790       ??0idCursor3D@@QAE@XZ      1005d790 f   GameEdit.obj
 0001:0005c840       ??_EidCursor3D@@UAEPAXI@Z  1005d840 f i GameEdit.obj
 0001:0005c840       ??_GidCursor3D@@UAEPAXI@Z  1005d840 f i GameEdit.obj
 0001:0005c8a0       ??1idCursor3D@@UAE@XZ      1005d8a0 f   GameEdit.obj
 0001:0005c930       ?Spawn@idCursor3D@@QAEXXZ  1005d930 f   GameEdit.obj
 0001:0005c960       ?Present@idCursor3D@@UAEXXZ 1005d960 f   GameEdit.obj
 0001:0005cad0       ?Think@idCursor3D@@UAEXXZ  1005dad0 f   GameEdit.obj
 0001:0005cb50       ??0idDragEntity@@QAE@XZ    1005db50 f   GameEdit.obj
 0001:0005cc00       ??1idDragEntity@@QAE@XZ    1005dc00 f   GameEdit.obj
 0001:0005cce0       ?Clear@idDragEntity@@QAEXXZ 1005dce0 f   GameEdit.obj
 0001:0005cd70       ?StopDrag@idDragEntity@@AAEXXZ 1005dd70 f   GameEdit.obj
 0001:0005cdd0       ?Update@idDragEntity@@QAEXPAVidPlayer@@@Z 1005ddd0 f   GameEdit.obj
 0001:0005d7f0       ?IsActiveAF@idAFEntity_Base@@QBE_NXZ 1005e7f0 f i GameEdit.obj
 0001:0005d840       ?SetSelected@idDragEntity@@QAEXPAVidEntity@@@Z 1005e840 f   GameEdit.obj
 0001:0005d890       ?DeleteSelected@idDragEntity@@QAEXXZ 1005e890 f   GameEdit.obj
 0001:0005d930       ?BindSelected@idDragEntity@@QAEXXZ 1005e930 f   GameEdit.obj
 0001:0005ddd0       ?UnbindSelected@idDragEntity@@QAEXXZ 1005edd0 f   GameEdit.obj
 0001:0005def0       ??0idEditEntities@@QAE@XZ  1005eef0 f   GameEdit.obj
 0001:0005df90       ?SelectEntity@idEditEntities@@QAE_NABVidVec3@@0PBVidEntity@@@Z 1005ef90 f   GameEdit.obj
 0001:0005e170       ?AddSelectedEntity@idEditEntities@@QAEXPAVidEntity@@@Z 1005f170 f   GameEdit.obj
 0001:0005e1d0       ?RemoveSelectedEntity@idEditEntities@@QAEXPAVidEntity@@@Z 1005f1d0 f   GameEdit.obj
 0001:0005e230       ?ClearSelectedEntities@idEditEntities@@QAEXXZ 1005f230 f   GameEdit.obj
 0001:0005e2d0       ?EntityIsSelectable@idEditEntities@@QAE_NPAVidEntity@@PAVidVec4@@PAVidStr@@@Z 1005f2d0 f   GameEdit.obj
 0001:0005e470       ?DisplayEntities@idEditEntities@@QAEXXZ 1005f470 f   GameEdit.obj
 0001:0005f110       ??0selectedTypeInfo_s@@QAE@XZ 10060110 f i GameEdit.obj
 0001:0005f160       ?GetSelectedEntities@idGameEdit@@UAEHQAPAVidEntity@@H@Z 10060160 f   GameEdit.obj
 0001:0005f200       ?TriggerSelected@idGameEdit@@UAEXXZ 10060200 f   GameEdit.obj
 0001:0005f2a0       ?ClearEntitySelection@idGameEdit@@UAEXXZ 100602a0 f   GameEdit.obj
 0001:0005f320       ?AddSelectedEntity@idGameEdit@@UAEXPAVidEntity@@@Z 10060320 f   GameEdit.obj
 0001:0005f370       ?FindEntityDefDict@idGameEdit@@UBEPBVidDict@@PBD_N@Z 10060370 f   GameEdit.obj
 0001:0005f3c0       ?SpawnEntityDef@idGameEdit@@UAEXABVidDict@@PAPAVidEntity@@@Z 100603c0 f   GameEdit.obj
 0001:0005f410       ?FindEntity@idGameEdit@@UBEPAVidEntity@@PBD@Z 10060410 f   GameEdit.obj
 0001:0005f460       ?GetUniqueEntityName@idGameEdit@@UBEPBDPBD@Z 10060460 f   GameEdit.obj
 0001:0005f520       ?EntityGetOrigin@idGameEdit@@UBEXPAVidEntity@@AAVidVec3@@@Z 10060520 f   GameEdit.obj
 0001:0005f5a0       ?EntityGetAxis@idGameEdit@@UBEXPAVidEntity@@AAVidMat3@@@Z 100605a0 f   GameEdit.obj
 0001:0005f620       ?EntitySetOrigin@idGameEdit@@UAEXPAVidEntity@@ABVidVec3@@@Z 10060620 f   GameEdit.obj
 0001:0005f670       ?EntitySetAxis@idGameEdit@@UAEXPAVidEntity@@ABVidMat3@@@Z 10060670 f   GameEdit.obj
 0001:0005f6c0       ?EntitySetColor@idGameEdit@@UAEXPAVidEntity@@VidVec3@@@Z 100606c0 f   GameEdit.obj
 0001:0005f720       ?EntityTranslate@idGameEdit@@UAEXPAVidEntity@@ABVidVec3@@@Z 10060720 f   GameEdit.obj
 0001:0005f790       ?EntityGetSpawnArgs@idGameEdit@@UBEPBVidDict@@PAVidEntity@@@Z 10060790 f   GameEdit.obj
 0001:0005f7d0       ?EntityUpdateChangeableSpawnArgs@idGameEdit@@UAEXPAVidEntity@@PBVidDict@@@Z 100607d0 f   GameEdit.obj
 0001:0005f830       ?EntityChangeSpawnArgs@idGameEdit@@UAEXPAVidEntity@@PBVidDict@@@Z 10060830 f   GameEdit.obj
 0001:0005f910       ?EntityUpdateVisuals@idGameEdit@@UAEXPAVidEntity@@@Z 10060910 f   GameEdit.obj
 0001:0005f960       ?EntitySetModel@idGameEdit@@UAEXPAVidEntity@@PBD@Z 10060960 f   GameEdit.obj
 0001:0005f9d0       ?EntityStopSound@idGameEdit@@UAEXPAVidEntity@@@Z 100609d0 f   GameEdit.obj
 0001:0005fa20       ?EntityDelete@idGameEdit@@UAEXPAVidEntity@@@Z 10060a20 f   GameEdit.obj
 0001:0005fab0       ?PlayerIsValid@idGameEdit@@UBE_NXZ 10060ab0 f   GameEdit.obj
 0001:0005fb00       ?PlayerGetOrigin@idGameEdit@@UBEXAAVidVec3@@@Z 10060b00 f   GameEdit.obj
 0001:0005fb80       ?PlayerGetAxis@idGameEdit@@UBEXAAVidMat3@@@Z 10060b80 f   GameEdit.obj
 0001:0005fc00       ?PlayerGetViewAngles@idGameEdit@@UBEXAAVidAngles@@@Z 10060c00 f   GameEdit.obj
 0001:0005fc60       ?PlayerGetEyePosition@idGameEdit@@UBEXAAVidVec3@@@Z 10060c60 f   GameEdit.obj
 0001:0005fcc0       ?MapGetEntityDict@idGameEdit@@UBEPBVidDict@@PBD@Z 10060cc0 f   GameEdit.obj
 0001:0005fd40       ?MapSave@idGameEdit@@UBEXPBD@Z 10060d40 f   GameEdit.obj
 0001:0005fdd0       ?MapSetEntityKeyVal@idGameEdit@@UBEXPBD00@Z 10060dd0 f   GameEdit.obj
 0001:0005fe60       ?MapCopyDictToEntity@idGameEdit@@UBEXPBDPBVidDict@@@Z 10060e60 f   GameEdit.obj
 0001:0005ff40       ?MapGetUniqueMatchingKeyVals@idGameEdit@@UBEHPBDQAPBDH@Z 10060f40 f   GameEdit.obj
 0001:00060010       ?MapAddEntity@idGameEdit@@UBEXPBVidDict@@@Z 10061010 f   GameEdit.obj
 0001:000600f0       ?MapRemoveEntity@idGameEdit@@UBEXPBD@Z 100610f0 f   GameEdit.obj
 0001:00060160       ?MapGetEntitiesMatchingClassWithString@idGameEdit@@UBEHPBD0QAPBDH@Z 10061160 f   GameEdit.obj
 0001:00060330       ?MapEntityTranslate@idGameEdit@@UBEXPBDABVidVec3@@@Z 10061330 f   GameEdit.obj
 0001:00060410       ?Set@idVec4@@QAEXMMMM@Z    10061410 f i GameEdit.obj
 0001:00060460       ??0?$idList@UselectedTypeInfo_s@@@@QAE@H@Z 10061460 f i GameEdit.obj
 0001:000604e0       ?Num@?$idList@UselectedTypeInfo_s@@@@QBEHXZ 100614e0 f i GameEdit.obj
 0001:00060510       ??A?$idList@UselectedTypeInfo_s@@@@QAEAAUselectedTypeInfo_s@@H@Z 10061510 f i GameEdit.obj
 0001:000605a0       ?Append@?$idList@UselectedTypeInfo_s@@@@QAEHABUselectedTypeInfo_s@@@Z 100615a0 f i GameEdit.obj
 0001:00060670       ?AddUnique@?$idList@PAVidEntity@@@@QAEHABQAVidEntity@@@Z 10061670 f i GameEdit.obj
 0001:000606d0       ?Find@?$idList@PAVidEntity@@@@QBEPAPAVidEntity@@ABQAV2@@Z 100616d0 f i GameEdit.obj
 0001:00060730       ?Remove@?$idList@PAVidEntity@@@@QAE_NABQAVidEntity@@@Z 10061730 f i GameEdit.obj
 0001:00060790       ??4selectedTypeInfo_s@@QAEAAU0@ABU0@@Z 10061790 f i GameEdit.obj
 0001:000607f0       ?Resize@?$idList@UselectedTypeInfo_s@@@@QAEXH@Z 100617f0 f i GameEdit.obj
 0001:000609e0       ?FindIndex@?$idList@PAVidEntity@@@@QBEHABQAVidEntity@@@Z 100619e0 f i GameEdit.obj
 0001:00060a50       ?RemoveIndex@?$idList@PAVidEntity@@@@QAE_NH@Z 10061a50 f i GameEdit.obj
 0001:00060b50       ?ContainsPoint@idBounds@@QBE_NABVidVec3@@@Z 10061b50 f i GameEdit.obj
 0001:00060c90       ??0idBox@@QAE@ABVidBounds@@ABVidVec3@@ABVidMat3@@@Z 10061c90 f i GameEdit.obj
 0001:00060d90       ?SetVector@idDict@@QAEXPBDABVidVec3@@@Z 10061d90 f i GameEdit.obj
 0001:00060de0       ??0idMapEntity@@QAE@XZ     10061de0 f i GameEdit.obj
 0001:00060e70       ??0?$idList@PAVidMapPrimitive@@@@QAE@H@Z 10061e70 f i GameEdit.obj
 0001:00060ef0       ?SetHashSize@idDict@@QAEXH@Z 10061ef0 f i GameEdit.obj
 0001:00060f50       ??0idGameEdit@@QAE@XZ      10061f50 f i GameEdit.obj
 0001:00060f90       ??_EidGameEdit@@UAEPAXI@Z  10061f90 f i GameEdit.obj
 0001:00060f90       ??_GidGameEdit@@UAEPAXI@Z  10061f90 f i GameEdit.obj
 0001:00060ff0       ??1idGameEdit@@UAE@XZ      10061ff0 f i GameEdit.obj
 0001:00061030       ??0idIK@@QAE@XZ            10062030 f   IK.obj
 0001:000610c0       ??_EidIK@@UAEPAXI@Z        100620c0 f i IK.obj
 0001:000610c0       ??_GidIK@@UAEPAXI@Z        100620c0 f i IK.obj
 0001:00061120       ??1idIK@@UAE@XZ            10062120 f   IK.obj
 0001:00061160       ?Save@idIK@@QBEXPAVidSaveGame@@@Z 10062160 f   IK.obj
 0001:00061230       ?Restore@idIK@@QAEXPAVidRestoreGame@@@Z 10062230 f   IK.obj
 0001:00061450       ?IsInitialized@idIK@@QBE_NXZ 10062450 f   IK.obj
 0001:000614c0       ?Init@idIK@@UAE_NPAVidEntity@@PBDABVidVec3@@@Z 100624c0 f   IK.obj
 0001:00061710       ?Evaluate@idIK@@UAEXXZ     10062710 f   IK.obj
 0001:00061740       ?ClearJointMods@idIK@@UAEXXZ 10062740 f   IK.obj
 0001:00061780       ?SolveTwoBones@idIK@@QAE_NABVidVec3@@00MMAAV2@@Z 10062780 f   IK.obj
 0001:000619e0       ?GetBoneAxis@idIK@@QAEMABVidVec3@@00AAVidMat3@@@Z 100629e0 f   IK.obj
 0001:00061b00       ??0idIK_Walk@@QAE@XZ       10062b00 f   IK.obj
 0001:00061de0       ??_EidIK_Walk@@UAEPAXI@Z   10062de0 f i IK.obj
 0001:00061de0       ??_GidIK_Walk@@UAEPAXI@Z   10062de0 f i IK.obj
 0001:00061e40       ??1idIK_Walk@@UAE@XZ       10062e40 f   IK.obj
 0001:00061f00       ?Save@idIK_Walk@@QBEXPAVidSaveGame@@@Z 10062f00 f   IK.obj
 0001:000622f0       ?Restore@idIK_Walk@@QAEXPAVidRestoreGame@@@Z 100632f0 f   IK.obj
 0001:000626d0       ?Init@idIK_Walk@@UAE_NPAVidEntity@@PBDABVidVec3@@@Z 100636d0 f   IK.obj
 0001:00063210       ?Evaluate@idIK_Walk@@UAEXXZ 10064210 f   IK.obj
 0001:00064620       ?AngleNormalize180@idMath@@SAMM@Z 10065620 f i IK.obj
 0001:00064680       ?AngleNormalize360@idMath@@SAMM@Z 10065680 f i IK.obj
 0001:00064700       ?floor@@YAMM@Z             10065700 f i IK.obj
 0001:00064740       ?ClearJointMods@idIK_Walk@@UAEXXZ 10065740 f   IK.obj
 0001:00064850       ?EnableAll@idIK_Walk@@QAEXXZ 10065850 f   IK.obj
 0001:000648a0       ?DisableAll@idIK_Walk@@QAEXXZ 100658a0 f   IK.obj
 0001:000648e0       ?EnableLeg@idIK_Walk@@QAEXH@Z 100658e0 f   IK.obj
 0001:00064930       ?DisableLeg@idIK_Walk@@QAEXH@Z 10065930 f   IK.obj
 0001:00064980       ??0idIK_Reach@@QAE@XZ      10065980 f   IK.obj
 0001:00064b40       ?Cross@idVec3@@QAEAAV1@ABV1@0@Z 10065b40 f i IK.obj
 0001:00064bd0       ??_GidIK_Reach@@UAEPAXI@Z  10065bd0 f i IK.obj
 0001:00064bd0       ??_EidIK_Reach@@UAEPAXI@Z  10065bd0 f i IK.obj
 0001:00064c30       ??1idIK_Reach@@UAE@XZ      10065c30 f   IK.obj
 0001:00064c80       ?Save@idIK_Reach@@QBEXPAVidSaveGame@@@Z 10065c80 f   IK.obj
 0001:00064ec0       ?Restore@idIK_Reach@@QAEXPAVidRestoreGame@@@Z 10065ec0 f   IK.obj
 0001:00065100       ?Init@idIK_Reach@@UAE_NPAVidEntity@@PBDABVidVec3@@@Z 10066100 f   IK.obj
 0001:00065860       ?Evaluate@idIK_Reach@@UAEXXZ 10066860 f   IK.obj
 0001:00065ec0       ?ClearJointMods@idIK_Reach@@UAEXXZ 10066ec0 f   IK.obj
 0001:00065f90       ??YidWinding@@QAEAAV0@ABVidVec3@@@Z 10066f90 f i IK.obj
 0001:00065fe0       ?CreateInstance@idItem@@SAPAVidClass@@XZ 10066fe0 f   Item.obj
 0001:000660d0       ?GetType@idItem@@UBEPAVidTypeInfo@@XZ 100670d0 f   Item.obj
 0001:00066100       ??0idItem@@QAE@XZ          10067100 f   Item.obj
 0001:00066210       ??_GidItem@@UAEPAXI@Z      10067210 f i Item.obj
 0001:00066210       ??_EidItem@@UAEPAXI@Z      10067210 f i Item.obj
 0001:00066270       ??1idItem@@UAE@XZ          10067270 f   Item.obj
 0001:00066320       ?Save@idItem@@QBEXPAVidSaveGame@@@Z 10067320 f   Item.obj
 0001:00066400       ?Restore@idItem@@QAEXPAVidRestoreGame@@@Z 10067400 f   Item.obj
 0001:000664e0       ?UpdateRenderEntity@idItem@@ABE_NPAUrenderEntity_s@@PBUrenderView_s@@@Z 100674e0 f   Item.obj
 0001:00066720       ?ModelCallback@idItem@@CA_NPAUrenderEntity_s@@PBUrenderView_s@@@Z 10067720 f   Item.obj
 0001:000667a0       ?Think@idItem@@UAEXXZ      100677a0 f   Item.obj
 0001:00066900       ?Present@idItem@@UAEXXZ    10067900 f   Item.obj
 0001:00066a40       ?Spawn@idItem@@QAEXXZ      10067a40 f   Item.obj
 0001:00066e30       ??0idEventArg@@QAE@H@Z     10067e30 f i Item.obj
 0001:00066e80       ?GetAttributes@idItem@@QAEXAAVidDict@@@Z 10067e80 f   Item.obj
 0001:00067000       ?GiveToPlayer@idItem@@UAE_NPAVidPlayer@@@Z 10068000 f   Item.obj
 0001:00067080       ?Pickup@idItem@@UAE_NPAVidPlayer@@@Z 10068080 f   Item.obj
 0001:000672e0       ?ClientPredictionThink@idItem@@UAEXXZ 100682e0 f   Item.obj
 0001:00067340       ?WriteToSnapshot@idItem@@UBEXAAVidBitMsgDelta@@@Z 10068340 f   Item.obj
 0001:00067390       ?ReadFromSnapshot@idItem@@UAEXABVidBitMsgDelta@@@Z 10068390 f   Item.obj
 0001:00067410       ?ClientReceiveEvent@idItem@@UAE_NHHABVidBitMsg@@@Z 10068410 f   Item.obj
 0001:00067510       ?Event_DropToFloor@idItem@@AAEXXZ 10068510 f   Item.obj
 0001:00067600       ?TraceBounds@idClip@@QAE_NAAUtrace_s@@ABVidVec3@@1ABVidBounds@@HPBVidEntity@@@Z 10068600 f i Item.obj
 0001:000676b0       ?Event_Touch@idItem@@AAEXPAVidEntity@@PAUtrace_s@@@Z 100686b0 f   Item.obj
 0001:00067730       ?Event_Trigger@idItem@@AAEXPAVidEntity@@@Z 10068730 f   Item.obj
 0001:000677e0       ?Event_Respawn@idItem@@AAEXXZ 100687e0 f   Item.obj
 0001:000678d0       ?Event_RespawnFx@idItem@@AAEXXZ 100688d0 f   Item.obj
 0001:00067960       ?CreateInstance@idItemPowerup@@SAPAVidClass@@XZ 10068960 f   Item.obj
 0001:00067a50       ?GetType@idItemPowerup@@UBEPAVidTypeInfo@@XZ 10068a50 f   Item.obj
 0001:00067a80       ??0idItemPowerup@@QAE@XZ   10068a80 f   Item.obj
 0001:00067af0       ??_GidItemPowerup@@UAEPAXI@Z 10068af0 f i Item.obj
 0001:00067af0       ??_EidItemPowerup@@UAEPAXI@Z 10068af0 f i Item.obj
 0001:00067b50       ??1idItemPowerup@@UAE@XZ   10068b50 f i Item.obj
 0001:00067b90       ?Save@idItemPowerup@@QBEXPAVidSaveGame@@@Z 10068b90 f   Item.obj
 0001:00067bf0       ?Restore@idItemPowerup@@QAEXPAVidRestoreGame@@@Z 10068bf0 f   Item.obj
 0001:00067c50       ?Spawn@idItemPowerup@@QAEXXZ 10068c50 f   Item.obj
 0001:00067cd0       ?GiveToPlayer@idItemPowerup@@UAE_NPAVidPlayer@@@Z 10068cd0 f   Item.obj
 0001:00067d40       ?CreateInstance@idObjective@@SAPAVidClass@@XZ 10068d40 f   Item.obj
 0001:00067e30       ?GetType@idObjective@@UBEPAVidTypeInfo@@XZ 10068e30 f   Item.obj
 0001:00067e60       ??0idObjective@@QAE@XZ     10068e60 f   Item.obj
 0001:00067f00       ??_EidObjective@@UAEPAXI@Z 10068f00 f i Item.obj
 0001:00067f00       ??_GidObjective@@UAEPAXI@Z 10068f00 f i Item.obj
 0001:00067f60       ??1idObjective@@UAE@XZ     10068f60 f i Item.obj
 0001:00067fa0       ?Save@idObjective@@QBEXPAVidSaveGame@@@Z 10068fa0 f   Item.obj
 0001:00067ff0       ?Restore@idObjective@@QAEXPAVidRestoreGame@@@Z 10068ff0 f   Item.obj
 0001:00068050       ?Spawn@idObjective@@QAEXXZ 10069050 f   Item.obj
 0001:000680e0       ?Event_CamShot@idObjective@@AAEXXZ 100690e0 f   Item.obj
 0001:00068320       ?Event_Trigger@idObjective@@AAEXPAVidEntity@@@Z 10069320 f   Item.obj
 0001:00068630       ?Event_GetPlayerPos@idObjective@@AAEXXZ 10069630 f   Item.obj
 0001:000686e0       ?Event_HideObjective@idObjective@@AAEXPAVidEntity@@@Z 100696e0 f   Item.obj
 0001:000687f0       ?CreateInstance@idVideoCDItem@@SAPAVidClass@@XZ 100697f0 f   Item.obj
 0001:000688e0       ??0idVideoCDItem@@QAE@XZ   100698e0 f i Item.obj
 0001:00068930       ??_EidVideoCDItem@@UAEPAXI@Z 10069930 f i Item.obj
 0001:00068930       ??_GidVideoCDItem@@UAEPAXI@Z 10069930 f i Item.obj
 0001:00068990       ??1idVideoCDItem@@UAE@XZ   10069990 f i Item.obj
 0001:000689d0       ?GetType@idVideoCDItem@@UBEPAVidTypeInfo@@XZ 100699d0 f   Item.obj
 0001:00068a00       ?Spawn@idVideoCDItem@@QAEXXZ 10069a00 f   Item.obj
 0001:00068a30       ?GiveToPlayer@idVideoCDItem@@UAE_NPAVidPlayer@@@Z 10069a30 f   Item.obj
 0001:00068b20       ?CreateInstance@idPDAItem@@SAPAVidClass@@XZ 10069b20 f   Item.obj
 0001:00068c10       ??0idPDAItem@@QAE@XZ       10069c10 f i Item.obj
 0001:00068c60       ??_EidPDAItem@@UAEPAXI@Z   10069c60 f i Item.obj
 0001:00068c60       ??_GidPDAItem@@UAEPAXI@Z   10069c60 f i Item.obj
 0001:00068cc0       ??1idPDAItem@@UAE@XZ       10069cc0 f i Item.obj
 0001:00068d00       ?GetType@idPDAItem@@UBEPAVidTypeInfo@@XZ 10069d00 f   Item.obj
 0001:00068d30       ?GiveToPlayer@idPDAItem@@UAE_NPAVidPlayer@@@Z 10069d30 f   Item.obj
 0001:00068da0       ?CreateInstance@idMoveableItem@@SAPAVidClass@@XZ 10069da0 f   Item.obj
 0001:00068e90       ?GetType@idMoveableItem@@UBEPAVidTypeInfo@@XZ 10069e90 f   Item.obj
 0001:00068ec0       ??0idMoveableItem@@QAE@XZ  10069ec0 f   Item.obj
 0001:00068f70       ??_EidMoveableItem@@UAEPAXI@Z 10069f70 f i Item.obj
 0001:00068f70       ??_GidMoveableItem@@UAEPAXI@Z 10069f70 f i Item.obj
 0001:00068fd0       ??1idMoveableItem@@UAE@XZ  10069fd0 f   Item.obj
 0001:000690b0       ?Save@idMoveableItem@@QBEXPAVidSaveGame@@@Z 1006a0b0 f   Item.obj
 0001:00069130       ?Restore@idMoveableItem@@QAEXPAVidRestoreGame@@@Z 1006a130 f   Item.obj
 0001:000691c0       ?Spawn@idMoveableItem@@QAEXXZ 1006a1c0 f   Item.obj
 0001:00069850       ?Think@idMoveableItem@@UAEXXZ 1006a850 f   Item.obj
 0001:000699c0       ?Pickup@idMoveableItem@@UAE_NPAVidPlayer@@@Z 1006a9c0 f   Item.obj
 0001:00069a30       ?DropItem@idMoveableItem@@SAPAVidEntity@@PBDABVidVec3@@ABVidMat3@@1HH@Z 1006aa30 f   Item.obj
 0001:00069c30       ?DropItems@idMoveableItem@@SAXPAVidAnimatedEntity@@PBDPAV?$idList@PAVidEntity@@@@@Z 1006ac30 f   Item.obj
 0001:0006a120       ?WriteToSnapshot@idMoveableItem@@UBEXAAVidBitMsgDelta@@@Z 1006b120 f   Item.obj
 0001:0006a180       ?ReadFromSnapshot@idMoveableItem@@UAEXABVidBitMsgDelta@@@Z 1006b180 f   Item.obj
 0001:0006a200       ?Gib@idMoveableItem@@AAEXABVidVec3@@PBD@Z 1006b200 f   Item.obj
 0001:0006a2d0       ?Event_DropToFloor@idMoveableItem@@AAEXXZ 1006b2d0 f   Item.obj
 0001:0006a300       ?Event_Gib@idMoveableItem@@AAEXPBD@Z 1006b300 f   Item.obj
 0001:0006a360       ?CreateInstance@idMoveablePDAItem@@SAPAVidClass@@XZ 1006b360 f   Item.obj
 0001:0006a450       ??0idMoveablePDAItem@@QAE@XZ 1006b450 f i Item.obj
 0001:0006a4a0       ??_EidMoveablePDAItem@@UAEPAXI@Z 1006b4a0 f i Item.obj
 0001:0006a4a0       ??_GidMoveablePDAItem@@UAEPAXI@Z 1006b4a0 f i Item.obj
 0001:0006a500       ??1idMoveablePDAItem@@UAE@XZ 1006b500 f i Item.obj
 0001:0006a540       ?GetType@idMoveablePDAItem@@UBEPAVidTypeInfo@@XZ 1006b540 f   Item.obj
 0001:0006a570       ?GiveToPlayer@idMoveablePDAItem@@UAE_NPAVidPlayer@@@Z 1006b570 f   Item.obj
 0001:0006a5e0       ?CreateInstance@idItemRemover@@SAPAVidClass@@XZ 1006b5e0 f   Item.obj
 0001:0006a6d0       ??0idItemRemover@@QAE@XZ   1006b6d0 f i Item.obj
 0001:0006a720       ??_EidItemRemover@@UAEPAXI@Z 1006b720 f i Item.obj
 0001:0006a720       ??_GidItemRemover@@UAEPAXI@Z 1006b720 f i Item.obj
 0001:0006a780       ??1idItemRemover@@UAE@XZ   1006b780 f i Item.obj
 0001:0006a7c0       ?GetType@idItemRemover@@UBEPAVidTypeInfo@@XZ 1006b7c0 f   Item.obj
 0001:0006a7f0       ?Spawn@idItemRemover@@QAEXXZ 1006b7f0 f   Item.obj
 0001:0006a820       ?RemoveItem@idItemRemover@@QAEXPAVidPlayer@@@Z 1006b820 f   Item.obj
 0001:0006a880       ?Event_Trigger@idItemRemover@@AAEXPAVidEntity@@@Z 1006b880 f   Item.obj
 0001:0006a8e0       ?CreateInstance@idObjectiveComplete@@SAPAVidClass@@XZ 1006b8e0 f   Item.obj
 0001:0006a9d0       ?GetType@idObjectiveComplete@@UBEPAVidTypeInfo@@XZ 1006b9d0 f   Item.obj
 0001:0006aa00       ??0idObjectiveComplete@@QAE@XZ 1006ba00 f   Item.obj
 0001:0006aaa0       ??_EidObjectiveComplete@@UAEPAXI@Z 1006baa0 f i Item.obj
 0001:0006aaa0       ??_GidObjectiveComplete@@UAEPAXI@Z 1006baa0 f i Item.obj
 0001:0006ab00       ??1idObjectiveComplete@@UAE@XZ 1006bb00 f i Item.obj
 0001:0006ab40       ?Save@idObjectiveComplete@@QBEXPAVidSaveGame@@@Z 1006bb40 f   Item.obj
 0001:0006ab90       ?Restore@idObjectiveComplete@@QAEXPAVidRestoreGame@@@Z 1006bb90 f   Item.obj
 0001:0006abe0       ?Spawn@idObjectiveComplete@@QAEXXZ 1006bbe0 f   Item.obj
 0001:0006ac40       ?Event_Trigger@idObjectiveComplete@@AAEXPAVidEntity@@@Z 1006bc40 f   Item.obj
 0001:0006adc0       ?Event_GetPlayerPos@idObjectiveComplete@@AAEXXZ 1006bdc0 f   Item.obj
 0001:0006ae70       ?Event_HideObjective@idObjectiveComplete@@AAEXPAVidEntity@@@Z 1006be70 f   Item.obj
 0001:0006afa0       ??0idTraceModel@@QAE@ABVidBounds@@@Z 1006bfa0 f i Item.obj
 0001:0006b050       ?CreateInstance@idLight@@SAPAVidClass@@XZ 1006c050 f   Light.obj
 0001:0006b140       ?GetType@idLight@@UBEPAVidTypeInfo@@XZ 1006c140 f   Light.obj
 0001:0006b170       ?ParseSpawnArgsToRenderLight@idGameEdit@@UAEXPBVidDict@@PAUrenderLight_s@@@Z 1006c170 f   Light.obj
 0001:0006b720       ?UpdateChangeableSpawnArgs@idLight@@UAEXPBVidDict@@@Z 1006c720 f   Light.obj
 0001:0006b850       ??0idLight@@QAE@XZ         1006c850 f   Light.obj
 0001:0006ba40       ??_GidLight@@UAEPAXI@Z     1006ca40 f i Light.obj
 0001:0006ba40       ??_EidLight@@UAEPAXI@Z     1006ca40 f i Light.obj
 0001:0006baa0       ??1idLight@@UAE@XZ         1006caa0 f   Light.obj
 0001:0006bb60       ?Save@idLight@@QBEXPAVidSaveGame@@@Z 1006cb60 f   Light.obj
 0001:0006bcd0       ?Restore@idLight@@QAEXPAVidRestoreGame@@@Z 1006ccd0 f   Light.obj
 0001:0006bf30       ?Spawn@idLight@@QAEXXZ     1006cf30 f   Light.obj
 0001:0006c580       ?SetLightLevel@idLight@@QAEXXZ 1006d580 f   Light.obj
 0001:0006c6b0       ?GetColor@idLight@@UBEXAAVidVec3@@@Z 1006d6b0 f   Light.obj
 0001:0006c730       ?GetColor@idLight@@UBEXAAVidVec4@@@Z 1006d730 f   Light.obj
 0001:0006c7c0       ?SetColor@idLight@@UAEXMMM@Z 1006d7c0 f   Light.obj
 0001:0006c820       ?SetColor@idLight@@UAEXABVidVec4@@@Z 1006d820 f   Light.obj
 0001:0006c8a0       ?SetShader@idLight@@QAEXPBD@Z 1006d8a0 f   Light.obj
 0001:0006c910       ?SetLightParm@idLight@@QAEXHM@Z 1006d910 f   Light.obj
 0001:0006c990       ?SetLightParms@idLight@@QAEXMMMM@Z 1006d990 f   Light.obj
 0001:0006ca40       ?SetRadiusXYZ@idLight@@QAEXMMM@Z 1006da40 f   Light.obj
 0001:0006cac0       ?SetRadius@idLight@@QAEXM@Z 1006dac0 f   Light.obj
 0001:0006cb40       ?On@idLight@@QAEXXZ        1006db40 f   Light.obj
 0001:0006cc00       ?Off@idLight@@QAEXXZ       1006dc00 f   Light.obj
 0001:0006ccb0       ?Fade@idLight@@QAEXABVidVec4@@M@Z 1006dcb0 f   Light.obj
 0001:0006cd70       ?FadeOut@idLight@@QAEXM@Z  1006dd70 f   Light.obj
 0001:0006cdc0       ?FadeIn@idLight@@QAEXM@Z   1006ddc0 f   Light.obj
 0001:0006cea0       ?Killed@idLight@@UAEXPAVidEntity@@0HABVidVec3@@H@Z 1006dea0 f   Light.obj
 0001:0006cef0       ?BecomeBroken@idLight@@QAEXPAVidEntity@@@Z 1006def0 f   Light.obj
 0001:0006d340       ?PresentLightDefChange@idLight@@AAEXXZ 1006e340 f   Light.obj
 0001:0006d3e0       ?PresentModelDefChange@idLight@@AAEXXZ 1006e3e0 f   Light.obj
 0001:0006d4a0       ?Present@idLight@@UAEXXZ   1006e4a0 f   Light.obj
 0001:0006d650       ?Think@idLight@@UAEXXZ     1006e650 f   Light.obj
 0001:0006d7c0       ?GetPhysicsToSoundTransform@idLight@@UAE_NAAVidVec3@@AAVidMat3@@@Z 1006e7c0 f   Light.obj
 0001:0006d870       ?FreeLightDef@idLight@@UAEXXZ 1006e870 f   Light.obj
 0001:0006d8f0       ?SaveState@idLight@@QAEXPAVidDict@@@Z 1006e8f0 f   Light.obj
 0001:0006d9d0       ?ShowEditingDialog@idLight@@UAEXXZ 1006e9d0 f   Light.obj
 0001:0006da60       ?Event_SetShader@idLight@@AAEXPBD@Z 1006ea60 f   Light.obj
 0001:0006dab0       ?Event_GetLightParm@idLight@@AAEXH@Z 1006eab0 f   Light.obj
 0001:0006db30       ?Event_SetLightParm@idLight@@AAEXHM@Z 1006eb30 f   Light.obj
 0001:0006db80       ?Event_SetLightParms@idLight@@AAEXMMMM@Z 1006eb80 f   Light.obj
 0001:0006dbe0       ?Event_SetRadiusXYZ@idLight@@AAEXMMM@Z 1006ebe0 f   Light.obj
 0001:0006dc30       ?Event_SetRadius@idLight@@AAEXM@Z 1006ec30 f   Light.obj
 0001:0006dc80       ?Event_Hide@idLight@@AAEXXZ 1006ec80 f   Light.obj
 0001:0006dce0       ?Event_Show@idLight@@AAEXXZ 1006ece0 f   Light.obj
 0001:0006dd40       ?Event_On@idLight@@AAEXXZ  1006ed40 f   Light.obj
 0001:0006dd80       ?Event_Off@idLight@@AAEXXZ 1006ed80 f   Light.obj
 0001:0006ddc0       ?Event_ToggleOnOff@idLight@@AAEXPAVidEntity@@@Z 1006edc0 f   Light.obj
 0001:0006dea0       ?FixDegenerateNormal@idVec3@@QAE_NXZ 1006eea0 f i Light.obj
 0001:0006e1b0       ?Event_SetSoundHandles@idLight@@AAEXXZ 1006f1b0 f   Light.obj
 0001:0006e290       ?Event_FadeOut@idLight@@AAEXM@Z 1006f290 f   Light.obj
 0001:0006e2e0       ?Event_FadeIn@idLight@@AAEXM@Z 1006f2e0 f   Light.obj
 0001:0006e330       ?ClientPredictionThink@idLight@@UAEXXZ 1006f330 f   Light.obj
 0001:0006e380       ?WriteToSnapshot@idLight@@UBEXAAVidBitMsgDelta@@@Z 1006f380 f   Light.obj
 0001:0006e520       ?ReadFromSnapshot@idLight@@UAEXABVidBitMsgDelta@@@Z 1006f520 f   Light.obj
 0001:0006e800       ?ClientReceiveEvent@idLight@@UAE_NHHABVidBitMsg@@@Z 1006f800 f   Light.obj
 0001:0006e870       ?ToVec3@idVec4@@QBEABVidVec3@@XZ 1006f870 f i Light.obj
 0001:0006e8a0       ?Left@idStr@@QBEPBDHAAV1@@Z 1006f8a0 f i Light.obj
 0001:0006e8f0       ?WriteShort@idBitMsgDelta@@QAEXH@Z 1006f8f0 f i Light.obj
 0001:0006e940       ?WriteFloat@idBitMsgDelta@@QAEXMHH@Z 1006f940 f i Light.obj
 0001:0006e9b0       ?ReadShort@idBitMsgDelta@@QBEHXZ 1006f9b0 f i Light.obj
 0001:0006ea00       ?ReadFloat@idBitMsgDelta@@QBEMHH@Z 1006fa00 f i Light.obj
 0001:0006ea70       ?CreateInstance@idSpawnableEntity@@SAPAVidClass@@XZ 1006fa70 f   Misc.obj
 0001:0006eb60       ??0idSpawnableEntity@@QAE@XZ 1006fb60 f i Misc.obj
 0001:0006ebb0       ??_EidSpawnableEntity@@UAEPAXI@Z 1006fbb0 f i Misc.obj
 0001:0006ebb0       ??_GidSpawnableEntity@@UAEPAXI@Z 1006fbb0 f i Misc.obj
 0001:0006ec10       ??1idSpawnableEntity@@UAE@XZ 1006fc10 f i Misc.obj
 0001:0006ec50       ?GetType@idSpawnableEntity@@UBEPAVidTypeInfo@@XZ 1006fc50 f   Misc.obj
 0001:0006ec80       ?Spawn@idSpawnableEntity@@QAEXXZ 1006fc80 f   Misc.obj
 0001:0006ecb0       ?CreateInstance@idPlayerStart@@SAPAVidClass@@XZ 1006fcb0 f   Misc.obj
 0001:0006eda0       ?GetType@idPlayerStart@@UBEPAVidTypeInfo@@XZ 1006fda0 f   Misc.obj
 0001:0006edd0       ??0idPlayerStart@@QAE@XZ   1006fdd0 f   Misc.obj
 0001:0006ee30       ??_EidPlayerStart@@UAEPAXI@Z 1006fe30 f i Misc.obj
 0001:0006ee30       ??_GidPlayerStart@@UAEPAXI@Z 1006fe30 f i Misc.obj
 0001:0006ee90       ??1idPlayerStart@@UAE@XZ   1006fe90 f i Misc.obj
 0001:0006eed0       ?Spawn@idPlayerStart@@QAEXXZ 1006fed0 f   Misc.obj
 0001:0006ef10       ?Save@idPlayerStart@@QBEXPAVidSaveGame@@@Z 1006ff10 f   Misc.obj
 0001:0006ef60       ?Restore@idPlayerStart@@QAEXPAVidRestoreGame@@@Z 1006ff60 f   Misc.obj
 0001:0006efb0       ?ClientReceiveEvent@idPlayerStart@@UAE_NHHABVidBitMsg@@@Z 1006ffb0 f   Misc.obj
 0001:0006f060       ?Event_TeleportStage@idPlayerStart@@AAEXPAVidEntity@@@Z 10070060 f   Misc.obj
 0001:0006f2a0       ?TeleportPlayer@idPlayerStart@@AAEXPAVidPlayer@@@Z 100702a0 f   Misc.obj
 0001:0006f510       ?Event_TeleportPlayer@idPlayerStart@@AAEXPAVidEntity@@@Z 10070510 f   Misc.obj
 0001:0006f690       ?CreateInstance@idActivator@@SAPAVidClass@@XZ 10070690 f   Misc.obj
 0001:0006f780       ??0idActivator@@QAE@XZ     10070780 f i Misc.obj
 0001:0006f7d0       ??_EidActivator@@UAEPAXI@Z 100707d0 f i Misc.obj
 0001:0006f7d0       ??_GidActivator@@UAEPAXI@Z 100707d0 f i Misc.obj
 0001:0006f830       ??1idActivator@@UAE@XZ     10070830 f i Misc.obj
 0001:0006f870       ?GetType@idActivator@@UBEPAVidTypeInfo@@XZ 10070870 f   Misc.obj
 0001:0006f8a0       ?Save@idActivator@@QBEXPAVidSaveGame@@@Z 100708a0 f   Misc.obj
 0001:0006f8f0       ?Restore@idActivator@@QAEXPAVidRestoreGame@@@Z 100708f0 f   Misc.obj
 0001:0006f960       ?Spawn@idActivator@@QAEXXZ 10070960 f   Misc.obj
 0001:0006fa90       ?Think@idActivator@@UAEXXZ 10070a90 f   Misc.obj
 0001:0006fb20       ?Event_Activate@idActivator@@AAEXPAVidEntity@@@Z 10070b20 f   Misc.obj
 0001:0006fb80       ?CreateInstance@idPathCorner@@SAPAVidClass@@XZ 10070b80 f   Misc.obj
 0001:0006fc70       ??0idPathCorner@@QAE@XZ    10070c70 f i Misc.obj
 0001:0006fcc0       ??_EidPathCorner@@UAEPAXI@Z 10070cc0 f i Misc.obj
 0001:0006fcc0       ??_GidPathCorner@@UAEPAXI@Z 10070cc0 f i Misc.obj
 0001:0006fd20       ??1idPathCorner@@UAE@XZ    10070d20 f i Misc.obj
 0001:0006fd60       ?GetType@idPathCorner@@UBEPAVidTypeInfo@@XZ 10070d60 f   Misc.obj
 0001:0006fd90       ?Spawn@idPathCorner@@QAEXXZ 10070d90 f   Misc.obj
 0001:0006fdc0       ?DrawDebugInfo@idPathCorner@@SAXXZ 10070dc0 f   Misc.obj
 0001:0006ff20       ?RandomPath@idPathCorner@@SAPAV1@PBVidEntity@@0@Z 10070f20 f   Misc.obj
 0001:00070040       ?Event_RandomPath@idPathCorner@@AAEXXZ 10071040 f   Misc.obj
 0001:000700a0       ?CreateInstance@idDamagable@@SAPAVidClass@@XZ 100710a0 f   Misc.obj
 0001:00070190       ?GetType@idDamagable@@UBEPAVidTypeInfo@@XZ 10071190 f   Misc.obj
 0001:000701c0       ??0idDamagable@@QAE@XZ     100711c0 f   Misc.obj
 0001:00070230       ??_EidDamagable@@UAEPAXI@Z 10071230 f i Misc.obj
 0001:00070230       ??_GidDamagable@@UAEPAXI@Z 10071230 f i Misc.obj
 0001:00070290       ??1idDamagable@@UAE@XZ     10071290 f i Misc.obj
 0001:000702d0       ?Save@idDamagable@@QBEXPAVidSaveGame@@@Z 100712d0 f   Misc.obj
 0001:00070330       ?Restore@idDamagable@@QAEXPAVidRestoreGame@@@Z 10071330 f   Misc.obj
 0001:00070390       ?Spawn@idDamagable@@QAEXXZ 10071390 f   Misc.obj
 0001:00070570       ?BecomeBroken@idDamagable@@AAEXPAVidEntity@@@Z 10071570 f   Misc.obj
 0001:000708c0       ?Killed@idDamagable@@UAEXPAVidEntity@@0HABVidVec3@@H@Z 100718c0 f   Misc.obj
 0001:00070930       ?Event_BecomeBroken@idDamagable@@AAEXPAVidEntity@@@Z 10071930 f   Misc.obj
 0001:00070980       ?Event_RestoreDamagable@idDamagable@@AAEXXZ 10071980 f   Misc.obj
 0001:000709f0       ?CreateInstance@idExplodable@@SAPAVidClass@@XZ 100719f0 f   Misc.obj
 0001:00070ae0       ??0idExplodable@@QAE@XZ    10071ae0 f i Misc.obj
 0001:00070b30       ??_GidExplodable@@UAEPAXI@Z 10071b30 f i Misc.obj
 0001:00070b30       ??_EidExplodable@@UAEPAXI@Z 10071b30 f i Misc.obj
 0001:00070b90       ??1idExplodable@@UAE@XZ    10071b90 f i Misc.obj
 0001:00070bd0       ?GetType@idExplodable@@UBEPAVidTypeInfo@@XZ 10071bd0 f   Misc.obj
 0001:00070c00       ?Spawn@idExplodable@@QAEXXZ 10071c00 f   Misc.obj
 0001:00070c50       ?Event_Explode@idExplodable@@AAEXPAVidEntity@@@Z 10071c50 f   Misc.obj
 0001:00070dd0       ?CreateInstance@idSpring@@SAPAVidClass@@XZ 10071dd0 f   Misc.obj
 0001:00070ec0       ??0idSpring@@QAE@XZ        10071ec0 f i Misc.obj
 0001:00070f70       ??_GidSpring@@UAEPAXI@Z    10071f70 f i Misc.obj
 0001:00070f70       ??_EidSpring@@UAEPAXI@Z    10071f70 f i Misc.obj
 0001:00070fd0       ??1idSpring@@UAE@XZ        10071fd0 f i Misc.obj
 0001:00071050       ?GetType@idSpring@@UBEPAVidTypeInfo@@XZ 10072050 f   Misc.obj
 0001:00071080       ?Think@idSpring@@UAEXXZ    10072080 f   Misc.obj
 0001:00071380       ?Event_LinkSpring@idSpring@@AAEXXZ 10072380 f   Misc.obj
 0001:00071630       ?Spawn@idSpring@@QAEXXZ    10072630 f   Misc.obj
 0001:000717d0       ?CreateInstance@idForceField@@SAPAVidClass@@XZ 100727d0 f   Misc.obj
 0001:000718c0       ??0idForceField@@QAE@XZ    100728c0 f i Misc.obj
 0001:00071950       ??_EidForceField@@UAEPAXI@Z 10072950 f i Misc.obj
 0001:00071950       ??_GidForceField@@UAEPAXI@Z 10072950 f i Misc.obj
 0001:000719b0       ??1idForceField@@UAE@XZ    100729b0 f i Misc.obj
 0001:00071a30       ?GetType@idForceField@@UBEPAVidTypeInfo@@XZ 10072a30 f   Misc.obj
 0001:00071a60       ?Toggle@idForceField@@AAEXXZ 10072a60 f   Misc.obj
 0001:00071ac0       ?Think@idForceField@@UAEXXZ 10072ac0 f   Misc.obj
 0001:00071b40       ?Save@idForceField@@QBEXPAVidSaveGame@@@Z 10072b40 f   Misc.obj
 0001:00071b90       ?Restore@idForceField@@QAEXPAVidRestoreGame@@@Z 10072b90 f   Misc.obj
 0001:00071be0       ?Spawn@idForceField@@QAEXXZ 10072be0 f   Misc.obj
 0001:00071f20       ?SetApplyType@idForce_Field@@QAEXW4forceFieldApplyType@@@Z 10072f20 f i Misc.obj
 0001:00071f60       ?SetPlayerOnly@idForce_Field@@QAEX_N@Z 10072f60 f i Misc.obj
 0001:00071fa0       ?SetMonsterOnly@idForce_Field@@QAEX_N@Z 10072fa0 f i Misc.obj
 0001:00071fe0       ?Event_Toggle@idForceField@@AAEXXZ 10072fe0 f   Misc.obj
 0001:00072020       ?Event_Activate@idForceField@@AAEXPAVidEntity@@@Z 10073020 f   Misc.obj
 0001:000720c0       ?Event_FindTargets@idForceField@@AAEXXZ 100730c0 f   Misc.obj
 0001:000721b0       ?CreateInstance@idAnimated@@SAPAVidClass@@XZ 100731b0 f   Misc.obj
 0001:000722a0       ?GetType@idAnimated@@UBEPAVidTypeInfo@@XZ 100732a0 f   Misc.obj
 0001:000722d0       ??0idAnimated@@QAE@XZ      100732d0 f   Misc.obj
 0001:000723c0       ??_GidAnimated@@UAEPAXI@Z  100733c0 f i Misc.obj
 0001:000723c0       ??_EidAnimated@@UAEPAXI@Z  100733c0 f i Misc.obj
 0001:00072420       ??1idAnimated@@UAE@XZ      10073420 f   Misc.obj
 0001:000724f0       ?Save@idAnimated@@QBEXPAVidSaveGame@@@Z 100734f0 f   Misc.obj
 0001:000725b0       ?Restore@idAnimated@@QAEXPAVidRestoreGame@@@Z 100735b0 f   Misc.obj
 0001:00072670       ?Spawn@idAnimated@@QAEXXZ  10073670 f   Misc.obj
 0001:00072b70       ?LoadAF@idAnimated@@UAE_NXZ 10073b70 f   Misc.obj
 0001:00072ca0       ?GetPhysicsToSoundTransform@idAnimated@@UAE_NAAVidVec3@@AAVidMat3@@@Z 10073ca0 f   Misc.obj
 0001:00072d20       ?StartRagdoll@idAnimated@@QAE_NXZ 10073d20 f   Misc.obj
 0001:00072de0       ?PlayNextAnim@idAnimated@@AAEXXZ 10073de0 f   Misc.obj
 0001:00073110       ?Event_StartRagdoll@idAnimated@@AAEXXZ 10074110 f   Misc.obj
 0001:00073150       ?Event_AnimDone@idAnimated@@AAEXH@Z 10074150 f   Misc.obj
 0001:000732a0       ?Event_Activate@idAnimated@@AAEXPAVidEntity@@@Z 100742a0 f   Misc.obj
 0001:00073340       ?Event_Start@idAnimated@@AAEXXZ 10074340 f   Misc.obj
 0001:00073550       ?Event_Footstep@idAnimated@@AAEXXZ 10074550 f   Misc.obj
 0001:000735a0       ?Event_LaunchMissilesUpdate@idAnimated@@AAEXHHHH@Z 100745a0 f   Misc.obj
 0001:00073940       ?Event_LaunchMissiles@idAnimated@@AAEXPBD000HH@Z 10074940 f   Misc.obj
 0001:00073b70       ?CreateInstance@idStaticEntity@@SAPAVidClass@@XZ 10074b70 f   Misc.obj
 0001:00073c60       ?GetType@idStaticEntity@@UBEPAVidTypeInfo@@XZ 10074c60 f   Misc.obj
 0001:00073c90       ??0idStaticEntity@@QAE@XZ  10074c90 f   Misc.obj
 0001:00073db0       ??_GidStaticEntity@@UAEPAXI@Z 10074db0 f i Misc.obj
 0001:00073db0       ??_EidStaticEntity@@UAEPAXI@Z 10074db0 f i Misc.obj
 0001:00073e10       ??1idStaticEntity@@UAE@XZ  10074e10 f i Misc.obj
 0001:00073e50       ?Save@idStaticEntity@@QBEXPAVidSaveGame@@@Z 10074e50 f   Misc.obj
 0001:00073f10       ?Restore@idStaticEntity@@QAEXPAVidRestoreGame@@@Z 10074f10 f   Misc.obj
 0001:00073fc0       ?Spawn@idStaticEntity@@QAEXXZ 10074fc0 f   Misc.obj
 0001:00074250       ?ShowEditingDialog@idStaticEntity@@UAEXXZ 10075250 f   Misc.obj
 0001:000742b0       ?Think@idStaticEntity@@UAEXXZ 100752b0 f   Misc.obj
 0001:000744e0       ?Fade@idStaticEntity@@QAEXABVidVec4@@M@Z 100754e0 f   Misc.obj
 0001:000745a0       ?Hide@idStaticEntity@@UAEXXZ 100755a0 f   Misc.obj
 0001:00074610       ?Show@idStaticEntity@@UAEXXZ 10075610 f   Misc.obj
 0001:000746a0       ?Event_Activate@idStaticEntity@@AAEXPAVidEntity@@@Z 100756a0 f   Misc.obj
 0001:00074840       ?WriteToSnapshot@idStaticEntity@@UBEXAAVidBitMsgDelta@@@Z 10075840 f   Misc.obj
 0001:000748f0       ?ReadFromSnapshot@idStaticEntity@@UAEXABVidBitMsgDelta@@@Z 100758f0 f   Misc.obj
 0001:000749f0       ?CreateInstance@idFuncEmitter@@SAPAVidClass@@XZ 100759f0 f   Misc.obj
 0001:00074ae0       ?GetType@idFuncEmitter@@UBEPAVidTypeInfo@@XZ 10075ae0 f   Misc.obj
 0001:00074b10       ??0idFuncEmitter@@QAE@XZ   10075b10 f   Misc.obj
 0001:00074b70       ??_EidFuncEmitter@@UAEPAXI@Z 10075b70 f i Misc.obj
 0001:00074b70       ??_GidFuncEmitter@@UAEPAXI@Z 10075b70 f i Misc.obj
 0001:00074bd0       ??1idFuncEmitter@@UAE@XZ   10075bd0 f i Misc.obj
 0001:00074c10       ?Spawn@idFuncEmitter@@QAEXXZ 10075c10 f   Misc.obj
 0001:00074ca0       ?Save@idFuncEmitter@@QBEXPAVidSaveGame@@@Z 10075ca0 f   Misc.obj
 0001:00074cf0       ?Restore@idFuncEmitter@@QAEXPAVidRestoreGame@@@Z 10075cf0 f   Misc.obj
 0001:00074d40       ?Event_Activate@idFuncEmitter@@QAEXPAVidEntity@@@Z 10075d40 f   Misc.obj
 0001:00074e00       ?WriteToSnapshot@idFuncEmitter@@UBEXAAVidBitMsgDelta@@@Z 10075e00 f   Misc.obj
 0001:00074e80       ?ReadFromSnapshot@idFuncEmitter@@UAEXABVidBitMsgDelta@@@Z 10075e80 f   Misc.obj
 0001:00074f10       ?CreateInstance@idFuncSplat@@SAPAVidClass@@XZ 10075f10 f   Misc.obj
 0001:00075000       ?GetType@idFuncSplat@@UBEPAVidTypeInfo@@XZ 10076000 f   Misc.obj
 0001:00075030       ??0idFuncSplat@@QAE@XZ     10076030 f   Misc.obj
 0001:00075080       ??_EidFuncSplat@@UAEPAXI@Z 10076080 f i Misc.obj
 0001:00075080       ??_GidFuncSplat@@UAEPAXI@Z 10076080 f i Misc.obj
 0001:000750e0       ??1idFuncSplat@@UAE@XZ     100760e0 f i Misc.obj
 0001:00075120       ?Spawn@idFuncSplat@@QAEXXZ 10076120 f   Misc.obj
 0001:00075150       ?Event_Splat@idFuncSplat@@AAEXXZ 10076150 f   Misc.obj
 0001:000752e0       ?Event_Activate@idFuncSplat@@AAEXPAVidEntity@@@Z 100762e0 f   Misc.obj
 0001:00075360       ?CreateInstance@idFuncSmoke@@SAPAVidClass@@XZ 10076360 f   Misc.obj
 0001:00075450       ?GetType@idFuncSmoke@@UBEPAVidTypeInfo@@XZ 10076450 f   Misc.obj
 0001:00075480       ??0idFuncSmoke@@QAE@XZ     10076480 f   Misc.obj
 0001:000754f0       ??_GidFuncSmoke@@UAEPAXI@Z 100764f0 f i Misc.obj
 0001:000754f0       ??_EidFuncSmoke@@UAEPAXI@Z 100764f0 f i Misc.obj
 0001:00075550       ??1idFuncSmoke@@UAE@XZ     10076550 f i Misc.obj
 0001:00075590       ?Save@idFuncSmoke@@QBEXPAVidSaveGame@@@Z 10076590 f   Misc.obj
 0001:00075600       ?Restore@idFuncSmoke@@QAEXPAVidRestoreGame@@@Z 10076600 f   Misc.obj
 0001:00075670       ?Spawn@idFuncSmoke@@QAEXXZ 10076670 f   Misc.obj
 0001:000757a0       ?Event_Activate@idFuncSmoke@@QAEXPAVidEntity@@@Z 100767a0 f   Misc.obj
 0001:00075820       ?Think@idFuncSmoke@@UAEXXZ 10076820 f   Misc.obj
 0001:00075970       ?CreateInstance@idTextEntity@@SAPAVidClass@@XZ 10076970 f   Misc.obj
 0001:00075a60       ??0idTextEntity@@QAE@XZ    10076a60 f i Misc.obj
 0001:00075af0       ??_EidTextEntity@@UAEPAXI@Z 10076af0 f i Misc.obj
 0001:00075af0       ??_GidTextEntity@@UAEPAXI@Z 10076af0 f i Misc.obj
 0001:00075b50       ??1idTextEntity@@UAE@XZ    10076b50 f i Misc.obj
 0001:00075bd0       ?GetType@idTextEntity@@UBEPAVidTypeInfo@@XZ 10076bd0 f   Misc.obj
 0001:00075c00       ?Spawn@idTextEntity@@QAEXXZ 10076c00 f   Misc.obj
 0001:00075cc0       ?Save@idTextEntity@@QBEXPAVidSaveGame@@@Z 10076cc0 f   Misc.obj
 0001:00075d30       ?Restore@idTextEntity@@QAEXPAVidRestoreGame@@@Z 10076d30 f   Misc.obj
 0001:00075d90       ?Think@idTextEntity@@UAEXXZ 10076d90 f   Misc.obj
 0001:00075fc0       ?CreateInstance@idVacuumSeparatorEntity@@SAPAVidClass@@XZ 10076fc0 f   Misc.obj
 0001:000760b0       ?GetType@idVacuumSeparatorEntity@@UBEPAVidTypeInfo@@XZ 100770b0 f   Misc.obj
 0001:000760e0       ??0idVacuumSeparatorEntity@@QAE@XZ 100770e0 f   Misc.obj
 0001:00076140       ??_GidVacuumSeparatorEntity@@UAEPAXI@Z 10077140 f i Misc.obj
 0001:00076140       ??_EidVacuumSeparatorEntity@@UAEPAXI@Z 10077140 f i Misc.obj
 0001:000761a0       ??1idVacuumSeparatorEntity@@UAE@XZ 100771a0 f i Misc.obj
 0001:000761e0       ?Save@idVacuumSeparatorEntity@@QBEXPAVidSaveGame@@@Z 100771e0 f   Misc.obj
 0001:00076260       ?Restore@idVacuumSeparatorEntity@@QAEXPAVidRestoreGame@@@Z 10077260 f   Misc.obj
 0001:00076300       ?Spawn@idVacuumSeparatorEntity@@QAEXXZ 10077300 f   Misc.obj
 0001:00076420       ?Event_Activate@idVacuumSeparatorEntity@@QAEXPAVidEntity@@@Z 10077420 f   Misc.obj
 0001:00076480       ?CreateInstance@idLocationSeparatorEntity@@SAPAVidClass@@XZ 10077480 f   Misc.obj
 0001:00076570       ??0idLocationSeparatorEntity@@QAE@XZ 10077570 f i Misc.obj
 0001:000765c0       ??_GidLocationSeparatorEntity@@UAEPAXI@Z 100775c0 f i Misc.obj
 0001:000765c0       ??_EidLocationSeparatorEntity@@UAEPAXI@Z 100775c0 f i Misc.obj
 0001:00076620       ??1idLocationSeparatorEntity@@UAE@XZ 10077620 f i Misc.obj
 0001:00076660       ?GetType@idLocationSeparatorEntity@@UBEPAVidTypeInfo@@XZ 10077660 f   Misc.obj
 0001:00076690       ?Spawn@idLocationSeparatorEntity@@QAEXXZ 10077690 f   Misc.obj
 0001:000767a0       ?CreateInstance@idVacuumEntity@@SAPAVidClass@@XZ 100777a0 f   Misc.obj
 0001:00076890       ??0idVacuumEntity@@QAE@XZ  10077890 f i Misc.obj
 0001:000768e0       ??_EidVacuumEntity@@UAEPAXI@Z 100778e0 f i Misc.obj
 0001:000768e0       ??_GidVacuumEntity@@UAEPAXI@Z 100778e0 f i Misc.obj
 0001:00076940       ??1idVacuumEntity@@UAE@XZ  10077940 f i Misc.obj
 0001:00076980       ?GetType@idVacuumEntity@@UBEPAVidTypeInfo@@XZ 10077980 f   Misc.obj
 0001:000769b0       ?Spawn@idVacuumEntity@@QAEXXZ 100779b0 f   Misc.obj
 0001:00076a70       ?CreateInstance@idLocationEntity@@SAPAVidClass@@XZ 10077a70 f   Misc.obj
 0001:00076b60       ??0idLocationEntity@@QAE@XZ 10077b60 f i Misc.obj
 0001:00076bb0       ??_GidLocationEntity@@UAEPAXI@Z 10077bb0 f i Misc.obj
 0001:00076bb0       ??_EidLocationEntity@@UAEPAXI@Z 10077bb0 f i Misc.obj
 0001:00076c10       ??1idLocationEntity@@UAE@XZ 10077c10 f i Misc.obj
 0001:00076c50       ?GetType@idLocationEntity@@UBEPAVidTypeInfo@@XZ 10077c50 f   Misc.obj
 0001:00076c80       ?Spawn@idLocationEntity@@QAEXXZ 10077c80 f   Misc.obj
 0001:00076d60       ?GetLocation@idLocationEntity@@QBEPBDXZ 10077d60 f   Misc.obj
 0001:00076db0       ?CreateInstance@idBeam@@SAPAVidClass@@XZ 10077db0 f   Misc.obj
 0001:00076ea0       ?GetType@idBeam@@UBEPAVidTypeInfo@@XZ 10077ea0 f   Misc.obj
 0001:00076ed0       ??0idBeam@@QAE@XZ          10077ed0 f   Misc.obj
 0001:00076f90       ??_EidBeam@@UAEPAXI@Z      10077f90 f i Misc.obj
 0001:00076f90       ??_GidBeam@@UAEPAXI@Z      10077f90 f i Misc.obj
 0001:00076ff0       ??1idBeam@@UAE@XZ          10077ff0 f i Misc.obj
 0001:00077030       ?Save@idBeam@@QBEXPAVidSaveGame@@@Z 10078030 f   Misc.obj
 0001:00077090       ?Restore@idBeam@@QAEXPAVidRestoreGame@@@Z 10078090 f   Misc.obj
 0001:000770f0       ?Spawn@idBeam@@QAEXXZ      100780f0 f   Misc.obj
 0001:000771c0       ?Think@idBeam@@UAEXXZ      100781c0 f   Misc.obj
 0001:000772a0       ?SetMaster@idBeam@@QAEXPAV1@@Z 100782a0 f   Misc.obj
 0001:000772f0       ?SetBeamTarget@idBeam@@QAEXABVidVec3@@@Z 100782f0 f   Misc.obj
 0001:000773b0       ?Show@idBeam@@UAEXXZ       100783b0 f   Misc.obj
 0001:00077450       ?Event_MatchTarget@idBeam@@AAEXXZ 10078450 f   Misc.obj
 0001:00077580       ?Event_Activate@idBeam@@AAEXPAVidEntity@@@Z 10078580 f   Misc.obj
 0001:00077600       ?WriteToSnapshot@idBeam@@UBEXAAVidBitMsgDelta@@@Z 10078600 f   Misc.obj
 0001:000776c0       ?ReadFromSnapshot@idBeam@@UAEXABVidBitMsgDelta@@@Z 100786c0 f   Misc.obj
 0001:00077790       ?CreateInstance@idLiquid@@SAPAVidClass@@XZ 10078790 f   Misc.obj
 0001:00077880       ??0idLiquid@@QAE@XZ        10078880 f i Misc.obj
 0001:000778d0       ??_GidLiquid@@UAEPAXI@Z    100788d0 f i Misc.obj
 0001:000778d0       ??_EidLiquid@@UAEPAXI@Z    100788d0 f i Misc.obj
 0001:00077930       ??1idLiquid@@UAE@XZ        10078930 f i Misc.obj
 0001:00077970       ?GetType@idLiquid@@UBEPAVidTypeInfo@@XZ 10078970 f   Misc.obj
 0001:000779a0       ?Save@idLiquid@@QBEXPAVidSaveGame@@@Z 100789a0 f   Misc.obj
 0001:000779d0       ?Restore@idLiquid@@QAEXPAVidRestoreGame@@@Z 100789d0 f   Misc.obj
 0001:00077a20       ?Spawn@idLiquid@@QAEXXZ    10078a20 f   Misc.obj
 0001:00077a50       ?Event_Touch@idLiquid@@AAEXPAVidEntity@@PAUtrace_s@@@Z 10078a50 f   Misc.obj
 0001:00077a80       ?CreateInstance@idShaking@@SAPAVidClass@@XZ 10078a80 f   Misc.obj
 0001:00077b70       ?GetType@idShaking@@UBEPAVidTypeInfo@@XZ 10078b70 f   Misc.obj
 0001:00077ba0       ??0idShaking@@QAE@XZ       10078ba0 f   Misc.obj
 0001:00077c30       ??_EidShaking@@UAEPAXI@Z   10078c30 f i Misc.obj
 0001:00077c30       ??_GidShaking@@UAEPAXI@Z   10078c30 f i Misc.obj
 0001:00077c90       ??1idShaking@@UAE@XZ       10078c90 f i Misc.obj
 0001:00077d10       ?Save@idShaking@@QBEXPAVidSaveGame@@@Z 10078d10 f   Misc.obj
 0001:00077d70       ?Restore@idShaking@@QAEXPAVidRestoreGame@@@Z 10078d70 f   Misc.obj
 0001:00077de0       ?Spawn@idShaking@@QAEXXZ   10078de0 f   Misc.obj
 0001:00078010       ?BeginShaking@idShaking@@AAEXXZ 10079010 f   Misc.obj
 0001:00078150       ?Event_Activate@idShaking@@AAEXPAVidEntity@@@Z 10079150 f   Misc.obj
 0001:00078200       ?CreateInstance@idEarthQuake@@SAPAVidClass@@XZ 10079200 f   Misc.obj
 0001:000782f0       ?GetType@idEarthQuake@@UBEPAVidTypeInfo@@XZ 100792f0 f   Misc.obj
 0001:00078320       ??0idEarthQuake@@QAE@XZ    10079320 f   Misc.obj
 0001:000783d0       ??_EidEarthQuake@@UAEPAXI@Z 100793d0 f i Misc.obj
 0001:000783d0       ??_GidEarthQuake@@UAEPAXI@Z 100793d0 f i Misc.obj
 0001:00078430       ??1idEarthQuake@@UAE@XZ    10079430 f i Misc.obj
 0001:00078470       ?Save@idEarthQuake@@QBEXPAVidSaveGame@@@Z 10079470 f   Misc.obj
 0001:00078540       ?Restore@idEarthQuake@@QAEXPAVidRestoreGame@@@Z 10079540 f   Misc.obj
 0001:00078620       ?Spawn@idEarthQuake@@QAEXXZ 10079620 f   Misc.obj
 0001:00078760       ?Event_Activate@idEarthQuake@@AAEXPAVidEntity@@@Z 10079760 f   Misc.obj
 0001:00078a00       ?Think@idEarthQuake@@UAEXXZ 10079a00 f   Misc.obj
 0001:00078b30       ?CreateInstance@idFuncPortal@@SAPAVidClass@@XZ 10079b30 f   Misc.obj
 0001:00078c20       ?GetType@idFuncPortal@@UBEPAVidTypeInfo@@XZ 10079c20 f   Misc.obj
 0001:00078c50       ??0idFuncPortal@@QAE@XZ    10079c50 f   Misc.obj
 0001:00078cc0       ??_EidFuncPortal@@UAEPAXI@Z 10079cc0 f i Misc.obj
 0001:00078cc0       ??_GidFuncPortal@@UAEPAXI@Z 10079cc0 f i Misc.obj
 0001:00078d20       ??1idFuncPortal@@UAE@XZ    10079d20 f i Misc.obj
 0001:00078d60       ?Save@idFuncPortal@@QBEXPAVidSaveGame@@@Z 10079d60 f   Misc.obj
 0001:00078dc0       ?Restore@idFuncPortal@@QAEXPAVidRestoreGame@@@Z 10079dc0 f   Misc.obj
 0001:00078e50       ?Spawn@idFuncPortal@@QAEXXZ 10079e50 f   Misc.obj
 0001:00078f40       ?Event_Activate@idFuncPortal@@AAEXPAVidEntity@@@Z 10079f40 f   Misc.obj
 0001:00078fd0       ?CreateInstance@idFuncAASPortal@@SAPAVidClass@@XZ 10079fd0 f   Misc.obj
 0001:000790c0       ?GetType@idFuncAASPortal@@UBEPAVidTypeInfo@@XZ 1007a0c0 f   Misc.obj
 0001:000790f0       ??0idFuncAASPortal@@QAE@XZ 1007a0f0 f   Misc.obj
 0001:00079150       ??_EidFuncAASPortal@@UAEPAXI@Z 1007a150 f i Misc.obj
 0001:00079150       ??_GidFuncAASPortal@@UAEPAXI@Z 1007a150 f i Misc.obj
 0001:000791b0       ??1idFuncAASPortal@@UAE@XZ 1007a1b0 f i Misc.obj
 0001:000791f0       ?Save@idFuncAASPortal@@QBEXPAVidSaveGame@@@Z 1007a1f0 f   Misc.obj
 0001:00079240       ?Restore@idFuncAASPortal@@QAEXPAVidRestoreGame@@@Z 1007a240 f   Misc.obj
 0001:000792d0       ?Spawn@idFuncAASPortal@@QAEXXZ 1007a2d0 f   Misc.obj
 0001:00079370       ?Event_Activate@idFuncAASPortal@@AAEXPAVidEntity@@@Z 1007a370 f   Misc.obj
 0001:00079400       ?CreateInstance@idFuncAASObstacle@@SAPAVidClass@@XZ 1007a400 f   Misc.obj
 0001:000794f0       ?GetType@idFuncAASObstacle@@UBEPAVidTypeInfo@@XZ 1007a4f0 f   Misc.obj
 0001:00079520       ??0idFuncAASObstacle@@QAE@XZ 1007a520 f   Misc.obj
 0001:00079580       ??_EidFuncAASObstacle@@UAEPAXI@Z 1007a580 f i Misc.obj
 0001:00079580       ??_GidFuncAASObstacle@@UAEPAXI@Z 1007a580 f i Misc.obj
 0001:000795e0       ??1idFuncAASObstacle@@UAE@XZ 1007a5e0 f i Misc.obj
 0001:00079620       ?Save@idFuncAASObstacle@@QBEXPAVidSaveGame@@@Z 1007a620 f   Misc.obj
 0001:00079670       ?Restore@idFuncAASObstacle@@QAEXPAVidRestoreGame@@@Z 1007a670 f   Misc.obj
 0001:00079700       ?Spawn@idFuncAASObstacle@@QAEXXZ 1007a700 f   Misc.obj
 0001:000797a0       ?Event_Activate@idFuncAASObstacle@@AAEXPAVidEntity@@@Z 1007a7a0 f   Misc.obj
 0001:00079830       ?CreateInstance@idFuncRadioChatter@@SAPAVidClass@@XZ 1007a830 f   Misc.obj
 0001:00079920       ?GetType@idFuncRadioChatter@@UBEPAVidTypeInfo@@XZ 1007a920 f   Misc.obj
 0001:00079950       ??0idFuncRadioChatter@@QAE@XZ 1007a950 f   Misc.obj
 0001:000799b0       ??_EidFuncRadioChatter@@UAEPAXI@Z 1007a9b0 f i Misc.obj
 0001:000799b0       ??_GidFuncRadioChatter@@UAEPAXI@Z 1007a9b0 f i Misc.obj
 0001:00079a10       ??1idFuncRadioChatter@@UAE@XZ 1007aa10 f i Misc.obj
 0001:00079a50       ?Save@idFuncRadioChatter@@QBEXPAVidSaveGame@@@Z 1007aa50 f   Misc.obj
 0001:00079aa0       ?Restore@idFuncRadioChatter@@QAEXPAVidRestoreGame@@@Z 1007aaa0 f   Misc.obj
 0001:00079af0       ?Spawn@idFuncRadioChatter@@QAEXXZ 1007aaf0 f   Misc.obj
 0001:00079b50       ?Event_Activate@idFuncRadioChatter@@AAEXPAVidEntity@@@Z 1007ab50 f   Misc.obj
 0001:00079cb0       ?Event_ResetRadioHud@idFuncRadioChatter@@AAEXPAVidEntity@@@Z 1007acb0 f   Misc.obj
 0001:00079d60       ?CreateInstance@idPhantomObjects@@SAPAVidClass@@XZ 1007ad60 f   Misc.obj
 0001:00079e50       ?GetType@idPhantomObjects@@UBEPAVidTypeInfo@@XZ 1007ae50 f   Misc.obj
 0001:00079e80       ??0idPhantomObjects@@QAE@XZ 1007ae80 f   Misc.obj
 0001:00079fc0       ??_GidPhantomObjects@@UAEPAXI@Z 1007afc0 f i Misc.obj
 0001:00079fc0       ??_EidPhantomObjects@@UAEPAXI@Z 1007afc0 f i Misc.obj
 0001:0007a020       ??1idPhantomObjects@@UAE@XZ 1007b020 f i Misc.obj
 0001:0007a0b0       ?Save@idPhantomObjects@@QBEXPAVidSaveGame@@@Z 1007b0b0 f   Misc.obj
 0001:0007a220       ?Restore@idPhantomObjects@@QAEXPAVidRestoreGame@@@Z 1007b220 f   Misc.obj
 0001:0007a420       ?Spawn@idPhantomObjects@@QAEXXZ 1007b420 f   Misc.obj
 0001:0007a5c0       ?Event_Activate@idPhantomObjects@@AAEXPAVidEntity@@@Z 1007b5c0 f   Misc.obj
 0001:0007a8c0       ?Think@idPhantomObjects@@UAEXXZ 1007b8c0 f   Misc.obj
 0001:0007adb0       ?SetGranularity@?$idList@VidVec3@@@@QAEXH@Z 1007bdb0 f i Misc.obj
 0001:0007ae60       ??A?$idList@VidVec3@@@@QAEAAVidVec3@@H@Z 1007be60 f i Misc.obj
 0001:0007aef0       ?SetNum@?$idList@VidVec3@@@@QAEXH_N@Z 1007bef0 f i Misc.obj
 0001:0007af70       ??0?$idEntityPtr@VidBeam@@@@QAE@XZ 1007bf70 f i Misc.obj
 0001:0007afb0       ?Save@?$idEntityPtr@VidBeam@@@@QBEXPAVidSaveGame@@@Z 1007bfb0 f i Misc.obj
 0001:0007b000       ?Restore@?$idEntityPtr@VidBeam@@@@QAEXPAVidRestoreGame@@@Z 1007c000 f i Misc.obj
 0001:0007b050       ??4?$idEntityPtr@VidBeam@@@@QAEAAV0@PAVidBeam@@@Z 1007c050 f i Misc.obj
 0001:0007b0b0       ?GetEntity@?$idEntityPtr@VidBeam@@@@QBEPAVidBeam@@XZ 1007c0b0 f i Misc.obj
 0001:0007b110       ?CreateInstance@idMoveable@@SAPAVidClass@@XZ 1007c110 f   Moveable.obj
 0001:0007b200       ?GetType@idMoveable@@UBEPAVidTypeInfo@@XZ 1007c200 f   Moveable.obj
 0001:0007b230       ??0idMoveable@@QAE@XZ      1007c230 f   Moveable.obj
 0001:0007b390       ??_EidMoveable@@UAEPAXI@Z  1007c390 f i Moveable.obj
 0001:0007b390       ??_GidMoveable@@UAEPAXI@Z  1007c390 f i Moveable.obj
 0001:0007b3f0       ??1idMoveable@@UAE@XZ      1007c3f0 f   Moveable.obj
 0001:0007b510       ?Spawn@idMoveable@@QAEXXZ  1007c510 f   Moveable.obj
 0001:0007bd50       ?SetMaterial@idClipModel@@QAEXPBVidMaterial@@@Z 1007cd50 f i Moveable.obj
 0001:0007bd90       ?Save@idMoveable@@QBEXPAVidSaveGame@@@Z 1007cd90 f   Moveable.obj
 0001:0007bf20       ?Restore@idMoveable@@QAEXPAVidRestoreGame@@@Z 1007cf20 f   Moveable.obj
 0001:0007c0c0       ?Hide@idMoveable@@UAEXXZ   1007d0c0 f   Moveable.obj
 0001:0007c130       ?Show@idMoveable@@UAEXXZ   1007d130 f   Moveable.obj
 0001:0007c1b0       ?Collide@idMoveable@@UAE_NABUtrace_s@@ABVidVec3@@@Z 1007d1b0 f   Moveable.obj
 0001:0007c4d0       ?Killed@idMoveable@@UAEXPAVidEntity@@0HABVidVec3@@H@Z 1007d4d0 f   Moveable.obj
 0001:0007c5e0       ?AllowStep@idMoveable@@QBE_NXZ 1007d5e0 f   Moveable.obj
 0001:0007c620       ?BecomeNonSolid@idMoveable@@IAEXXZ 1007d620 f   Moveable.obj
 0001:0007c6b0       ?EnableDamage@idMoveable@@QAEX_NM@Z 1007d6b0 f   Moveable.obj
 0001:0007c750       ??0idEventArg@@QAE@M@Z     1007d750 f i Moveable.obj
 0001:0007c7a0       ?InitInitialSpline@idMoveable@@IAEXH@Z 1007d7a0 f   Moveable.obj
 0001:0007c900       ?FollowInitialSplinePath@idMoveable@@IAE_NXZ 1007d900 f   Moveable.obj
 0001:0007cc00       ?ACos16@idMath@@SAMM@Z     1007dc00 f i Moveable.obj
 0001:0007cd10       ?Think@idMoveable@@UAEXXZ  1007dd10 f   Moveable.obj
 0001:0007cd80       ?GetRenderModelMaterial@idMoveable@@IBEPBVidMaterial@@XZ 1007dd80 f   Moveable.obj
 0001:0007ce30       ?WriteToSnapshot@idMoveable@@UBEXAAVidBitMsgDelta@@@Z 1007de30 f   Moveable.obj
 0001:0007ce90       ?ReadFromSnapshot@idMoveable@@UAEXABVidBitMsgDelta@@@Z 1007de90 f   Moveable.obj
 0001:0007cf10       ?Event_BecomeNonSolid@idMoveable@@IAEXXZ 1007df10 f   Moveable.obj
 0001:0007cf50       ?Event_Activate@idMoveable@@IAEXPAVidEntity@@@Z 1007df50 f   Moveable.obj
 0001:0007d170       ?Event_SetOwnerFromSpawnArgs@idMoveable@@IAEXXZ 1007e170 f   Moveable.obj
 0001:0007d260       ?Event_IsAtRest@idMoveable@@IAEXXZ 1007e260 f   Moveable.obj
 0001:0007d2d0       ?Event_EnableDamage@idMoveable@@IAEXM@Z 1007e2d0 f   Moveable.obj
 0001:0007d340       ?CreateInstance@idBarrel@@SAPAVidClass@@XZ 1007e340 f   Moveable.obj
 0001:0007d430       ?GetType@idBarrel@@UBEPAVidTypeInfo@@XZ 1007e430 f   Moveable.obj
 0001:0007d460       ??0idBarrel@@QAE@XZ        1007e460 f   Moveable.obj
 0001:0007d570       ??_EidBarrel@@UAEPAXI@Z    1007e570 f i Moveable.obj
 0001:0007d570       ??_GidBarrel@@UAEPAXI@Z    1007e570 f i Moveable.obj
 0001:0007d5d0       ??1idBarrel@@UAE@XZ        1007e5d0 f i Moveable.obj
 0001:0007d610       ?Save@idBarrel@@QBEXPAVidSaveGame@@@Z 1007e610 f   Moveable.obj
 0001:0007d6c0       ?Restore@idBarrel@@QAEXPAVidRestoreGame@@@Z 1007e6c0 f   Moveable.obj
 0001:0007d760       ?BarrelThink@idBarrel@@QAEXXZ 1007e760 f   Moveable.obj
 0001:0007dc00       ?ACos@idMath@@SAMM@Z       1007ec00 f i Moveable.obj
 0001:0007dc70       _acosf                     1007ec70 f i Moveable.obj
 0001:0007dcc0       ?Think@idBarrel@@UAEXXZ    1007ecc0 f   Moveable.obj
 0001:0007dd30       ?GetPhysicsToVisualTransform@idBarrel@@UAE_NAAVidVec3@@AAVidMat3@@@Z 1007ed30 f   Moveable.obj
 0001:0007dd90       ?Spawn@idBarrel@@QAEXXZ    1007ed90 f   Moveable.obj
 0001:0007dee0       ?ClientPredictionThink@idBarrel@@UAEXXZ 1007eee0 f   Moveable.obj
 0001:0007df30       ?CreateInstance@idExplodingBarrel@@SAPAVidClass@@XZ 1007ef30 f   Moveable.obj
 0001:0007e020       ?GetType@idExplodingBarrel@@UBEPAVidTypeInfo@@XZ 1007f020 f   Moveable.obj
 0001:0007e050       ??0idExplodingBarrel@@QAE@XZ 1007f050 f   Moveable.obj
 0001:0007e1a0       ??_EidExplodingBarrel@@UAEPAXI@Z 1007f1a0 f i Moveable.obj
 0001:0007e1a0       ??_GidExplodingBarrel@@UAEPAXI@Z 1007f1a0 f i Moveable.obj
 0001:0007e200       ??1idExplodingBarrel@@UAE@XZ 1007f200 f   Moveable.obj
 0001:0007e2e0       ?Save@idExplodingBarrel@@QBEXPAVidSaveGame@@@Z 1007f2e0 f   Moveable.obj
 0001:0007e3d0       ?Restore@idExplodingBarrel@@QAEXPAVidRestoreGame@@@Z 1007f3d0 f   Moveable.obj
 0001:0007e4c0       ?Spawn@idExplodingBarrel@@QAEXXZ 1007f4c0 f   Moveable.obj
 0001:0007e640       ?Think@idExplodingBarrel@@UAEXXZ 1007f640 f   Moveable.obj
 0001:0007e890       ?AddParticles@idExplodingBarrel@@AAEXPBD_N@Z 1007f890 f   Moveable.obj
 0001:0007eaf0       ?AddLight@idExplodingBarrel@@AAEXPBD_N@Z 1007faf0 f   Moveable.obj
 0001:0007ecc0       ?ExplodingEffects@idExplodingBarrel@@AAEXXZ 1007fcc0 f   Moveable.obj
 0001:0007ee60       ?Killed@idExplodingBarrel@@UAEXPAVidEntity@@0HABVidVec3@@H@Z 1007fe60 f   Moveable.obj
 0001:0007f3b0       ?Damage@idExplodingBarrel@@UAEXPAVidEntity@@0ABVidVec3@@PBDMH@Z 100803b0 f   Moveable.obj
 0001:0007f4a0       ?Event_TriggerTargets@idExplodingBarrel@@AAEXXZ 100804a0 f   Moveable.obj
 0001:0007f4f0       ?Event_Explode@idExplodingBarrel@@AAEXXZ 100804f0 f   Moveable.obj
 0001:0007f570       ?Event_Respawn@idExplodingBarrel@@AAEXXZ 10080570 f   Moveable.obj
 0001:0007f850       ?Event_Activate@idExplodingBarrel@@AAEXPAVidEntity@@@Z 10080850 f   Moveable.obj
 0001:0007f8c0       ?WriteToSnapshot@idExplodingBarrel@@UBEXAAVidBitMsgDelta@@@Z 100808c0 f   Moveable.obj
 0001:0007f920       ?ReadFromSnapshot@idExplodingBarrel@@UAEXABVidBitMsgDelta@@@Z 10080920 f   Moveable.obj
 0001:0007f9a0       ?ClientReceiveEvent@idExplodingBarrel@@UAE_NHHABVidBitMsg@@@Z 100809a0 f   Moveable.obj
 0001:0007fa40       ?GetNumValues@?$idCurve@VidVec3@@@@QBEHXZ 10080a40 f i Moveable.obj
 0001:0007fa90       ?GetTime@?$idCurve@VidVec3@@@@QBEMH@Z 10080a90 f i Moveable.obj
 0001:0007fae0       ?MakeUniform@?$idCurve@VidVec3@@@@QAEXM@Z 10080ae0 f i Moveable.obj
 0001:0007fb80       ?ShiftTime@?$idCurve@VidVec3@@@@QAEXM@Z 10080b80 f i Moveable.obj
 0001:0007fc10       ??X@YAAAVidVec3@@AAV0@ABVidMat3@@@Z 10080c10 f i Moveable.obj
 0001:0007fd50       ?Zero@idMat3@@QAEXXZ       10080d50 f i Moveable.obj
 0001:0007fda0       ?CreateInstance@idMover@@SAPAVidClass@@XZ 10080da0 f   Mover.obj
 0001:0007fe90       ?GetType@idMover@@UBEPAVidTypeInfo@@XZ 10080e90 f   Mover.obj
 0001:0007fec0       ??0idMover@@QAE@XZ         10080ec0 f   Mover.obj
 0001:000800c0       ??_EidMover@@UAEPAXI@Z     100810c0 f i Mover.obj
 0001:000800c0       ??_GidMover@@UAEPAXI@Z     100810c0 f i Mover.obj
 0001:00080120       ??0moveState_t@idMover@@QAE@XZ 10081120 f i Mover.obj
 0001:00080170       ??0rotationState_t@idMover@@QAE@XZ 10081170 f i Mover.obj
 0001:000801c0       ??1idMover@@UAE@XZ         100811c0 f i Mover.obj
 0001:00080250       ?Save@idMover@@QBEXPAVidSaveGame@@@Z 10081250 f   Mover.obj
 0001:00080620       ?Restore@idMover@@QAEXPAVidRestoreGame@@@Z 10081620 f   Mover.obj
 0001:00080a60       ?Event_PostRestore@idMover@@AAEXHHHHH@Z 10081a60 f   Mover.obj
 0001:00080b60       ?Spawn@idMover@@QAEXXZ     10081b60 f   Mover.obj
 0001:00081050       ?Hide@idMover@@UAEXXZ      10082050 f   Mover.obj
 0001:000810c0       ?Show@idMover@@UAEXXZ      100820c0 f   Mover.obj
 0001:00081150       ?Killed@idMover@@UAEXPAVidEntity@@0HABVidVec3@@H@Z 10082150 f   Mover.obj
 0001:000811b0       ?Event_SetCallback@idMover@@AAEXXZ 100821b0 f   Mover.obj
 0001:00081280       ?VectorForDir@idMover@@AAEXMAAVidVec3@@@Z 10082280 f   Mover.obj
 0001:000815c0       ?FindGuiTargets@idMover@@IAEXXZ 100825c0 f   Mover.obj
 0001:00081620       ?SetGuiState@idMover@@IBEXPBD0@Z 10082620 f   Mover.obj
 0001:000817c0       ?Event_FindGuiTargets@idMover@@AAEXXZ 100827c0 f   Mover.obj
 0001:00081800       ?SetGuiStates@idMover@@IAEXPBD@Z 10082800 f   Mover.obj
 0001:000818f0       ?Event_InitGuiTargets@idMover@@AAEXXZ 100828f0 f   Mover.obj
 0001:00081940       ?Event_StopMoving@idMover@@AAEXXZ 10082940 f   Mover.obj
 0001:000819b0       ?DoneMoving@idMover@@MAEXXZ 100829b0 f   Mover.obj
 0001:00081a60       ?UpdateMoveSound@idMover@@IAEXW4moveStage_t@1@@Z 10082a60 f   Mover.obj
 0001:00081b40       ?Event_UpdateMove@idMover@@AAEXXZ 10082b40 f   Mover.obj
 0001:00081d70       ?BeginMove@idMover@@MAEXPAVidThread@@@Z 10082d70 f   Mover.obj
 0001:000820f0       ?Event_StopRotating@idMover@@AAEXXZ 100830f0 f   Mover.obj
 0001:00082180       ?DoneRotating@idMover@@MAEXXZ 10083180 f   Mover.obj
 0001:00082200       ?UpdateRotationSound@idMover@@IAEXW4moveStage_t@1@@Z 10083200 f   Mover.obj
 0001:000822e0       ?Event_UpdateRotation@idMover@@AAEXXZ 100832e0 f   Mover.obj
 0001:00082600       ?BeginRotation@idMover@@MAEXPAVidThread@@_N@Z 10083600 f   Mover.obj
 0001:00082960       ?Event_TeamBlocked@idMover@@AAEXPAVidEntity@@0@Z 10083960 f   Mover.obj
 0001:000829f0       ?Event_PartBlocked@idMover@@IAEXPAVidEntity@@@Z 100839f0 f   Mover.obj
 0001:00082ac0       ?Event_SetMoveSpeed@idMover@@AAEXM@Z 10083ac0 f   Mover.obj
 0001:00082b40       ?Event_SetMoveTime@idMover@@AAEXM@Z 10083b40 f   Mover.obj
 0001:00082bd0       ?Event_SetAccellerationTime@idMover@@AAEXM@Z 10083bd0 f   Mover.obj
 0001:00082c50       ?Event_SetDecelerationTime@idMover@@AAEXM@Z 10083c50 f   Mover.obj
 0001:00082cd0       ?Event_MoveTo@idMover@@AAEXPAVidEntity@@@Z 10083cd0 f   Mover.obj
 0001:00082d90       ?MoveToPos@idMover@@IAEXABVidVec3@@@Z 10083d90 f   Mover.obj
 0001:00082e10       ?Event_MoveToPos@idMover@@AAEXAAVidVec3@@@Z 10083e10 f   Mover.obj
 0001:00082e60       ?Event_MoveDir@idMover@@AAEXMM@Z 10083e60 f   Mover.obj
 0001:00082f60       ?Event_MoveAccelerateTo@idMover@@AAEXMM@Z 10083f60 f   Mover.obj
 0001:00083160       ?Event_MoveDecelerateTo@idMover@@AAEXMM@Z 10084160 f   Mover.obj
 0001:00083360       ?Event_RotateDownTo@idMover@@AAEXHM@Z 10084360 f   Mover.obj
 0001:00083490       ?Event_RotateUpTo@idMover@@AAEXHM@Z 10084490 f   Mover.obj
 0001:000835c0       ?Event_RotateTo@idMover@@AAEXAAVidAngles@@@Z 100845c0 f   Mover.obj
 0001:00083630       ?Event_Rotate@idMover@@AAEXAAVidAngles@@@Z 10084630 f   Mover.obj
 0001:00083770       ?Event_RotateOnce@idMover@@AAEXAAVidAngles@@@Z 10084770 f   Mover.obj
 0001:00083850       ?Event_Bob@idMover@@AAEXMMAAVidVec3@@@Z 10084850 f   Mover.obj
 0001:00083920       ?Event_Sway@idMover@@AAEXMMAAVidAngles@@@Z 10084920 f   Mover.obj
 0001:00083ad0       ?Event_OpenPortal@idMover@@IAEXXZ 10084ad0 f   Mover.obj
 0001:00083b20       ?Event_ClosePortal@idMover@@IAEXXZ 10084b20 f   Mover.obj
 0001:00083b70       ?Event_SetAccelSound@idMover@@AAEXPBD@Z 10084b70 f   Mover.obj
 0001:00083ba0       ?Event_SetDecelSound@idMover@@AAEXPBD@Z 10084ba0 f   Mover.obj
 0001:00083bd0       ?Event_SetMoveSound@idMover@@AAEXPBD@Z 10084bd0 f   Mover.obj
 0001:00083c00       ?Event_EnableSplineAngles@idMover@@AAEXXZ 10084c00 f   Mover.obj
 0001:00083c40       ?Event_DisableSplineAngles@idMover@@AAEXXZ 10084c40 f   Mover.obj
 0001:00083c80       ?Event_RemoveInitialSplineAngles@idMover@@AAEXXZ 10084c80 f   Mover.obj
 0001:00083d70       ?Event_StartSpline@idMover@@AAEXPAVidEntity@@@Z 10084d70 f   Mover.obj
 0001:00083f20       ?Event_StopSpline@idMover@@AAEXXZ 10084f20 f   Mover.obj
 0001:00083f90       ?Event_Activate@idMover@@AAEXPAVidEntity@@@Z 10084f90 f   Mover.obj
 0001:00083ff0       ?Event_IsMoving@idMover@@AAEXXZ 10084ff0 f   Mover.obj
 0001:00084050       ?Event_IsRotating@idMover@@AAEXXZ 10085050 f   Mover.obj
 0001:000840b0       ?WriteToSnapshot@idMover@@UBEXAAVidBitMsgDelta@@@Z 100850b0 f   Mover.obj
 0001:00084150       ?ReadFromSnapshot@idMover@@UAEXABVidBitMsgDelta@@@Z 10085150 f   Mover.obj
 0001:00084250       ?SetPortalState@idMover@@QAEX_N@Z 10085250 f   Mover.obj
 0001:000842e0       ?CreateInstance@idSplinePath@@SAPAVidClass@@XZ 100852e0 f   Mover.obj
 0001:000843d0       ?GetType@idSplinePath@@UBEPAVidTypeInfo@@XZ 100853d0 f   Mover.obj
 0001:00084400       ??0idSplinePath@@QAE@XZ    10085400 f   Mover.obj
 0001:00084450       ??_GidSplinePath@@UAEPAXI@Z 10085450 f i Mover.obj
 0001:00084450       ??_EidSplinePath@@UAEPAXI@Z 10085450 f i Mover.obj
 0001:000844b0       ??1idSplinePath@@UAE@XZ    100854b0 f i Mover.obj
 0001:000844f0       ?Spawn@idSplinePath@@QAEXXZ 100854f0 f   Mover.obj
 0001:00084520       ?CreateInstance@idElevator@@SAPAVidClass@@XZ 10085520 f   Mover.obj
 0001:00084610       ?GetType@idElevator@@UBEPAVidTypeInfo@@XZ 10085610 f   Mover.obj
 0001:00084640       ??0idElevator@@QAE@XZ      10085640 f   Mover.obj
 0001:00084740       ??_EidElevator@@UAEPAXI@Z  10085740 f i Mover.obj
 0001:00084740       ??_GidElevator@@UAEPAXI@Z  10085740 f i Mover.obj
 0001:000847a0       ??1idElevator@@UAE@XZ      100857a0 f i Mover.obj
 0001:00084820       ?Save@idElevator@@QBEXPAVidSaveGame@@@Z 10085820 f   Mover.obj
 0001:00084990       ?Restore@idElevator@@QAEXPAVidRestoreGame@@@Z 10085990 f   Mover.obj
 0001:00084b30       ??0floorInfo_s@@QAE@XZ     10085b30 f i Mover.obj
 0001:00084b80       ??1floorInfo_s@@QAE@XZ     10085b80 f i Mover.obj
 0001:00084bd0       ?Spawn@idElevator@@QAEXXZ  10085bd0 f   Mover.obj
 0001:00084eb0       ?Event_Touch@idElevator@@IAEXPAVidEntity@@PAUtrace_s@@@Z 10085eb0 f   Mover.obj
 0001:00084fa0       ?Think@idElevator@@EAEXXZ  10085fa0 f   Mover.obj
 0001:00085230       ?Event_Activate@idElevator@@AAEXPAVidEntity@@@Z 10086230 f   Mover.obj
 0001:000852c0       ?Event_TeamBlocked@idElevator@@AAEXPAVidEntity@@0@Z 100862c0 f   Mover.obj
 0001:000853a0       ?GetMoveMaster@idMover_Binary@@QBEPAV1@XZ 100863a0 f i Mover.obj
 0001:000853e0       ?HandleSingleGuiCommand@idElevator@@UAE_NPAVidEntity@@PAVidLexer@@@Z 100863e0 f   Mover.obj
 0001:00085650       ?OpenFloorDoor@idElevator@@AAEXH@Z 10086650 f   Mover.obj
 0001:000856d0       ?OpenInnerDoor@idElevator@@AAEXXZ 100866d0 f   Mover.obj
 0001:00085740       ?GetFloorInfo@idElevator@@QAEPAUfloorInfo_s@@H@Z 10086740 f   Mover.obj
 0001:000857d0       ?Event_GotoFloor@idElevator@@QAEXH@Z 100867d0 f   Mover.obj
 0001:000858c0       ?BeginMove@idElevator@@MAEXPAVidThread@@@Z 100868c0 f   Mover.obj
 0001:00085ab0       ?GetDoor@idElevator@@AAEPAVidDoor@@PBD@Z 10086ab0 f   Mover.obj
 0001:00085b70       ?Event_PostFloorArrival@idElevator@@AAEXXZ 10086b70 f   Mover.obj
 0001:00085c60       ?DoneMoving@idElevator@@MAEXXZ 10086c60 f   Mover.obj
 0001:00085e70       ?CloseAllDoors@idElevator@@AAEXXZ 10086e70 f   Mover.obj
 0001:00085f40       ?DisableAllDoors@idElevator@@AAEXXZ 10086f40 f   Mover.obj
 0001:00086010       ?EnableProperDoors@idElevator@@AAEXXZ 10087010 f   Mover.obj
 0001:00086100       ?CreateInstance@idMover_Binary@@SAPAVidClass@@XZ 10087100 f   Mover.obj
 0001:000861f0       ?GetType@idMover_Binary@@UBEPAVidTypeInfo@@XZ 100871f0 f   Mover.obj
 0001:00086220       ??0idMover_Binary@@QAE@XZ  10087220 f   Mover.obj
 0001:00086450       ??_GidMover_Binary@@UAEPAXI@Z 10087450 f i Mover.obj
 0001:00086450       ??_EidMover_Binary@@UAEPAXI@Z 10087450 f i Mover.obj
 0001:000864b0       ??1idMover_Binary@@UAE@XZ  100874b0 f   Mover.obj
 0001:00086600       ?Save@idMover_Binary@@QBEXPAVidSaveGame@@@Z 10087600 f   Mover.obj
 0001:000868e0       ?Restore@idMover_Binary@@QAEXPAVidRestoreGame@@@Z 100878e0 f   Mover.obj
 0001:00086c30       ?Spawn@idMover_Binary@@QAEXXZ 10087c30 f   Mover.obj
 0001:000871e0       ?GetMovedir@idMover_Binary@@KAXMAAVidVec3@@@Z 100881e0 f   Mover.obj
 0001:00087280       ?Event_SetCallback@idMover_Binary@@IAEXXZ 10088280 f   Mover.obj
 0001:00087300       ?UpdateMoverSound@idMover_Binary@@IAEXW4moverState_t@@@Z 10088300 f   Mover.obj
 0001:00087390       ?SetMoverState@idMover_Binary@@IAEXW4moverState_t@@H@Z 10088390 f   Mover.obj
 0001:000876f0       ?MatchActivateTeam@idMover_Binary@@IAEXW4moverState_t@@H@Z 100886f0 f   Mover.obj
 0001:00087760       ?Enable@idMover_Binary@@QAEX_N@Z 10088760 f   Mover.obj
 0001:000877a0       ?Event_MatchActivateTeam@idMover_Binary@@IAEXW4moverState_t@@H@Z 100887a0 f   Mover.obj
 0001:000877f0       ?BindTeam@idMover_Binary@@QAEXPAVidEntity@@@Z 100887f0 f   Mover.obj
 0001:00087860       ?JoinActivateTeam@idMover_Binary@@IAEXPAV1@@Z 10088860 f   Mover.obj
 0001:000878b0       ?Event_Enable@idMover_Binary@@IAEXXZ 100888b0 f   Mover.obj
 0001:00087920       ?Event_Disable@idMover_Binary@@IAEXXZ 10088920 f   Mover.obj
 0001:00087990       ?Event_OpenPortal@idMover_Binary@@IAEXXZ 10088990 f   Mover.obj
 0001:00087a00       ?Event_ClosePortal@idMover_Binary@@IAEXXZ 10088a00 f   Mover.obj
 0001:00087a80       ?Event_ReturnToPos1@idMover_Binary@@IAEXXZ 10088a80 f   Mover.obj
 0001:00087ad0       ?Event_Reached_BinaryMover@idMover_Binary@@IAEXXZ 10088ad0 f   Mover.obj
 0001:00087d00       ?GotoPosition1@idMover_Binary@@QAEXXZ 10088d00 f   Mover.obj
 0001:00087eb0       ?GotoPosition2@idMover_Binary@@QAEXXZ 10088eb0 f   Mover.obj
 0001:00088030       ?UpdateBuddies@idMover_Binary@@QAEXH@Z 10089030 f   Mover.obj
 0001:000880f0       ?SetGuiStates@idMover_Binary@@QAEXPBD@Z 100890f0 f   Mover.obj
 0001:00088190       ?Use_BinaryMover@idMover_Binary@@QAEXPAVidEntity@@@Z 10089190 f   Mover.obj
 0001:00088330       ?Event_Use_BinaryMover@idMover_Binary@@IAEXPAVidEntity@@@Z 10089330 f   Mover.obj
 0001:00088380       ?PreBind@idMover_Binary@@UAEXXZ 10089380 f   Mover.obj
 0001:00088410       ?PostBind@idMover_Binary@@UAEXXZ 10089410 f   Mover.obj
 0001:000884a0       ?FindGuiTargets@idMover_Binary@@IAEXXZ 100894a0 f   Mover.obj
 0001:00088500       ?SetGuiState@idMover_Binary@@IBEXPBD0@Z 10089500 f   Mover.obj
 0001:00088690       ?Event_FindGuiTargets@idMover_Binary@@IAEXXZ 10089690 f   Mover.obj
 0001:000886d0       ?Event_InitGuiTargets@idMover_Binary@@IAEXXZ 100896d0 f   Mover.obj
 0001:00088730       ?InitSpeed@idMover_Binary@@QAEXAAVidVec3@@0MMM@Z 10089730 f   Mover.obj
 0001:00088920       ?InitTime@idMover_Binary@@QAEXAAVidVec3@@0MMM@Z 10089920 f   Mover.obj
 0001:00088a80       ?SetBlocked@idMover_Binary@@QAEX_N@Z 10089a80 f   Mover.obj
 0001:00088b80       ?IsBlocked@idMover_Binary@@QAE_NXZ 10089b80 f   Mover.obj
 0001:00088bc0       ?GetActivator@idMover_Binary@@QBEPAVidEntity@@XZ 10089bc0 f   Mover.obj
 0001:00088c10       ?WriteToSnapshot@idMover_Binary@@UBEXAAVidBitMsgDelta@@@Z 10089c10 f   Mover.obj
 0001:00088c90       ?ReadFromSnapshot@idMover_Binary@@UAEXABVidBitMsgDelta@@@Z 10089c90 f   Mover.obj
 0001:00088d50       ?SetPortalState@idMover_Binary@@QAEX_N@Z 10089d50 f   Mover.obj
 0001:00088de0       ?CreateInstance@idDoor@@SAPAVidClass@@XZ 10089de0 f   Mover.obj
 0001:00088ed0       ?GetType@idDoor@@UBEPAVidTypeInfo@@XZ 10089ed0 f   Mover.obj
 0001:00088f00       ??0idDoor@@QAE@XZ          10089f00 f   Mover.obj
 0001:00089090       ??_GidDoor@@UAEPAXI@Z      1008a090 f i Mover.obj
 0001:00089090       ??_EidDoor@@UAEPAXI@Z      1008a090 f i Mover.obj
 0001:000890f0       ??1idDoor@@UAE@XZ          1008a0f0 f   Mover.obj
 0001:00089240       ?Save@idDoor@@QBEXPAVidSaveGame@@@Z 1008a240 f   Mover.obj
 0001:000893a0       ?Restore@idDoor@@QAEXPAVidRestoreGame@@@Z 1008a3a0 f   Mover.obj
 0001:000894f0       ?Spawn@idDoor@@QAEXXZ      1008a4f0 f   Mover.obj
 0001:00089c00       ?Think@idDoor@@UAEXXZ      1008ac00 f   Mover.obj
 0001:00089db0       ?PreBind@idDoor@@UAEXXZ    1008adb0 f   Mover.obj
 0001:00089df0       ?PostBind@idDoor@@UAEXXZ   1008adf0 f   Mover.obj
 0001:00089e70       ?SetAASAreaState@idDoor@@AAEX_N@Z 1008ae70 f   Mover.obj
 0001:00089ef0       ?Hide@idDoor@@UAEXXZ       1008aef0 f   Mover.obj
 0001:0008a060       ?Disable@idClipModel@@QAEXXZ 1008b060 f i Mover.obj
 0001:0008a090       ?GetActivateChain@idMover_Binary@@QBEPAV1@XZ 1008b090 f i Mover.obj
 0001:0008a0d0       ?Show@idDoor@@UAEXXZ       1008b0d0 f   Mover.obj
 0001:0008a280       ?Enable@idClipModel@@QAEXXZ 1008b280 f i Mover.obj
 0001:0008a2b0       ?GetLocalTriggerPosition@idDoor@@AAEXPBVidClipModel@@@Z 1008b2b0 f   Mover.obj
 0001:0008a3d0       ?Use@idDoor@@QAEXPAVidEntity@@0@Z 1008b3d0 f   Mover.obj
 0001:0008a4b0       ?Open@idDoor@@QAEXXZ       1008b4b0 f   Mover.obj
 0001:0008a4f0       ?Close@idDoor@@QAEXXZ      1008b4f0 f   Mover.obj
 0001:0008a530       ?Lock@idDoor@@QAEXH@Z      1008b530 f   Mover.obj
 0001:0008a690       ?IsLocked@idDoor@@QAEHXZ   1008b690 f   Mover.obj
 0001:0008a6e0       ?IsOpen@idDoor@@QAE_NXZ    1008b6e0 f   Mover.obj
 0001:0008a720       ?IsNoTouch@idDoor@@QAE_NXZ 1008b720 f   Mover.obj
 0001:0008a760       ?CalcTriggerBounds@idDoor@@AAEXMAAVidBounds@@@Z 1008b760 f   Mover.obj
 0001:0008a9f0       ?Event_StartOpen@idDoor@@AAEXXZ 1008b9f0 f   Mover.obj
 0001:0008ab40       ?Event_SpawnDoorTrigger@idDoor@@AAEXXZ 1008bb40 f   Mover.obj
 0001:0008ae00       ?Event_SpawnSoundTrigger@idDoor@@AAEXXZ 1008be00 f   Mover.obj
 0001:0008afb0       ?Event_Reached_BinaryMover@idDoor@@AAEXXZ 1008bfb0 f   Mover.obj
 0001:0008b120       ?Event_TeamBlocked@idDoor@@AAEXPAVidEntity@@0@Z 1008c120 f   Mover.obj
 0001:0008b1d0       ?SetCompanion@idDoor@@QAEXPAV1@@Z 1008c1d0 f   Mover.obj
 0001:0008b210       ?Event_PartBlocked@idDoor@@AAEXPAVidEntity@@@Z 1008c210 f   Mover.obj
 0001:0008b2a0       ?Event_Touch@idDoor@@AAEXPAVidEntity@@PAUtrace_s@@@Z 1008c2a0 f   Mover.obj
 0001:0008b4a0       ?GetMoverState@idMover_Binary@@IBE?AW4moverState_t@@XZ 1008c4a0 f i Mover.obj
 0001:0008b4e0       ?Event_SpectatorTouch@idDoor@@AAEXPAVidEntity@@PAUtrace_s@@@Z 1008c4e0 f   Mover.obj
 0001:0008b7a0       ?Event_Activate@idDoor@@AAEXPAVidEntity@@@Z 1008c7a0 f   Mover.obj
 0001:0008b910       ?Event_Open@idDoor@@AAEXXZ 1008c910 f   Mover.obj
 0001:0008b950       ?Event_Close@idDoor@@AAEXXZ 1008c950 f   Mover.obj
 0001:0008b990       ?Event_Lock@idDoor@@AAEXH@Z 1008c990 f   Mover.obj
 0001:0008b9e0       ?Event_IsOpen@idDoor@@AAEXXZ 1008c9e0 f   Mover.obj
 0001:0008ba40       ?Event_Locked@idDoor@@AAEXXZ 1008ca40 f   Mover.obj
 0001:0008bab0       ?Event_OpenPortal@idDoor@@AAEXXZ 1008cab0 f   Mover.obj
 0001:0008bb40       ?Event_ClosePortal@idDoor@@AAEXXZ 1008cb40 f   Mover.obj
 0001:0008bc10       ?CreateInstance@idPlat@@SAPAVidClass@@XZ 1008cc10 f   Mover.obj
 0001:0008bd00       ?GetType@idPlat@@UBEPAVidTypeInfo@@XZ 1008cd00 f   Mover.obj
 0001:0008bd30       ??0idPlat@@QAE@XZ          1008cd30 f   Mover.obj
 0001:0008bdf0       ??_EidPlat@@UAEPAXI@Z      1008cdf0 f i Mover.obj
 0001:0008bdf0       ??_GidPlat@@UAEPAXI@Z      1008cdf0 f i Mover.obj
 0001:0008be50       ??1idPlat@@UAE@XZ          1008ce50 f   Mover.obj
 0001:0008bf20       ?Save@idPlat@@QBEXPAVidSaveGame@@@Z 1008cf20 f   Mover.obj
 0001:0008bf90       ?Restore@idPlat@@QAEXPAVidRestoreGame@@@Z 1008cf90 f   Mover.obj
 0001:0008c000       ?Spawn@idPlat@@QAEXXZ      1008d000 f   Mover.obj
 0001:0008c360       ?Think@idPlat@@UAEXXZ      1008d360 f   Mover.obj
 0001:0008c490       ?PreBind@idPlat@@UAEXXZ    1008d490 f   Mover.obj
 0001:0008c4d0       ?PostBind@idPlat@@UAEXXZ   1008d4d0 f   Mover.obj
 0001:0008c530       ?GetLocalTriggerPosition@idPlat@@AAEXPBVidClipModel@@@Z 1008d530 f   Mover.obj
 0001:0008c650       ?SpawnPlatTrigger@idPlat@@AAEXAAVidVec3@@@Z 1008d650 f   Mover.obj
 0001:0008ca80       ?Event_Touch@idPlat@@AAEXPAVidEntity@@PAUtrace_s@@@Z 1008da80 f   Mover.obj
 0001:0008cb20       ?Event_TeamBlocked@idPlat@@AAEXPAVidEntity@@0@Z 1008db20 f   Mover.obj
 0001:0008cb70       ?Event_PartBlocked@idPlat@@AAEXPAVidEntity@@@Z 1008db70 f   Mover.obj
 0001:0008cc00       ?CreateInstance@idMover_Periodic@@SAPAVidClass@@XZ 1008dc00 f   Mover.obj
 0001:0008ccf0       ?GetType@idMover_Periodic@@UBEPAVidTypeInfo@@XZ 1008dcf0 f   Mover.obj
 0001:0008cd20       ??0idMover_Periodic@@QAE@XZ 1008dd20 f   Mover.obj
 0001:0008cdd0       ??_GidMover_Periodic@@UAEPAXI@Z 1008ddd0 f i Mover.obj
 0001:0008cdd0       ??_EidMover_Periodic@@UAEPAXI@Z 1008ddd0 f i Mover.obj
 0001:0008ce30       ??1idMover_Periodic@@UAE@XZ 1008de30 f i Mover.obj
 0001:0008ceb0       ?Spawn@idMover_Periodic@@QAEXXZ 1008deb0 f   Mover.obj
 0001:0008cf50       ?Save@idMover_Periodic@@QBEXPAVidSaveGame@@@Z 1008df50 f   Mover.obj
 0001:0008cfb0       ?Restore@idMover_Periodic@@QAEXPAVidRestoreGame@@@Z 1008dfb0 f   Mover.obj
 0001:0008d020       ?Think@idMover_Periodic@@UAEXXZ 1008e020 f   Mover.obj
 0001:0008d090       ?Event_TeamBlocked@idMover_Periodic@@IAEXPAVidEntity@@0@Z 1008e090 f   Mover.obj
 0001:0008d0c0       ?Event_PartBlocked@idMover_Periodic@@IAEXPAVidEntity@@@Z 1008e0c0 f   Mover.obj
 0001:0008d150       ?WriteToSnapshot@idMover_Periodic@@UBEXAAVidBitMsgDelta@@@Z 1008e150 f   Mover.obj
 0001:0008d1c0       ?ReadFromSnapshot@idMover_Periodic@@UAEXABVidBitMsgDelta@@@Z 1008e1c0 f   Mover.obj
 0001:0008d250       ?CreateInstance@idRotater@@SAPAVidClass@@XZ 1008e250 f   Mover.obj
 0001:0008d340       ?GetType@idRotater@@UBEPAVidTypeInfo@@XZ 1008e340 f   Mover.obj
 0001:0008d370       ??0idRotater@@QAE@XZ       1008e370 f   Mover.obj
 0001:0008d410       ??_EidRotater@@UAEPAXI@Z   1008e410 f i Mover.obj
 0001:0008d410       ??_GidRotater@@UAEPAXI@Z   1008e410 f i Mover.obj
 0001:0008d470       ??1idRotater@@UAE@XZ       1008e470 f i Mover.obj
 0001:0008d4b0       ?Spawn@idRotater@@QAEXXZ   1008e4b0 f   Mover.obj
 0001:0008d7c0       ?Save@idRotater@@QBEXPAVidSaveGame@@@Z 1008e7c0 f   Mover.obj
 0001:0008d810       ?Restore@idRotater@@QAEXPAVidRestoreGame@@@Z 1008e810 f   Mover.obj
 0001:0008d860       ?Event_Activate@idRotater@@AAEXPAVidEntity@@@Z 1008e860 f   Mover.obj
 0001:0008da50       ?CreateInstance@idBobber@@SAPAVidClass@@XZ 1008ea50 f   Mover.obj
 0001:0008db40       ?GetType@idBobber@@UBEPAVidTypeInfo@@XZ 1008eb40 f   Mover.obj
 0001:0008db70       ??0idBobber@@QAE@XZ        1008eb70 f   Mover.obj
 0001:0008dbc0       ??_EidBobber@@UAEPAXI@Z    1008ebc0 f i Mover.obj
 0001:0008dbc0       ??_GidBobber@@UAEPAXI@Z    1008ebc0 f i Mover.obj
 0001:0008dc20       ??1idBobber@@UAE@XZ        1008ec20 f i Mover.obj
 0001:0008dc60       ?Spawn@idBobber@@QAEXXZ    1008ec60 f   Mover.obj
 0001:0008e050       ?CreateInstance@idPendulum@@SAPAVidClass@@XZ 1008f050 f   Mover.obj
 0001:0008e140       ?GetType@idPendulum@@UBEPAVidTypeInfo@@XZ 1008f140 f   Mover.obj
 0001:0008e170       ??0idPendulum@@QAE@XZ      1008f170 f   Mover.obj
 0001:0008e1c0       ??_EidPendulum@@UAEPAXI@Z  1008f1c0 f i Mover.obj
 0001:0008e1c0       ??_GidPendulum@@UAEPAXI@Z  1008f1c0 f i Mover.obj
 0001:0008e220       ??1idPendulum@@UAE@XZ      1008f220 f i Mover.obj
 0001:0008e260       ?Spawn@idPendulum@@QAEXXZ  1008f260 f   Mover.obj
 0001:0008e6d0       ?CreateInstance@idRiser@@SAPAVidClass@@XZ 1008f6d0 f   Mover.obj
 0001:0008e7c0       ?GetType@idRiser@@UBEPAVidTypeInfo@@XZ 1008f7c0 f   Mover.obj
 0001:0008e7f0       ??0idRiser@@QAE@XZ         1008f7f0 f   Mover.obj
 0001:0008e840       ??_GidRiser@@UAEPAXI@Z     1008f840 f i Mover.obj
 0001:0008e840       ??_EidRiser@@UAEPAXI@Z     1008f840 f i Mover.obj
 0001:0008e8a0       ??1idRiser@@UAE@XZ         1008f8a0 f i Mover.obj
 0001:0008e8e0       ?Spawn@idRiser@@QAEXXZ     1008f8e0 f   Mover.obj
 0001:0008eb90       ?Event_Activate@idRiser@@AAEXPAVidEntity@@@Z 1008fb90 f   Mover.obj
 0001:0008ed20       ??0?$idList@UfloorInfo_s@@@@QAE@H@Z 1008fd20 f i Mover.obj
 0001:0008eda0       ??1?$idList@UfloorInfo_s@@@@QAE@XZ 1008fda0 f i Mover.obj
 0001:0008ede0       ?Clear@?$idList@UfloorInfo_s@@@@QAEXXZ 1008fde0 f i Mover.obj
 0001:0008ee80       ?Num@?$idList@UfloorInfo_s@@@@QBEHXZ 1008fe80 f i Mover.obj
 0001:0008eeb0       ??A?$idList@UfloorInfo_s@@@@QAEAAUfloorInfo_s@@H@Z 1008feb0 f i Mover.obj
 0001:0008ef40       ??A?$idList@UfloorInfo_s@@@@QBEABUfloorInfo_s@@H@Z 1008ff40 f i Mover.obj
 0001:0008efd0       ?Append@?$idList@UfloorInfo_s@@@@QAEHABUfloorInfo_s@@@Z 1008ffd0 f i Mover.obj
 0001:0008f0a0       ??_EfloorInfo_s@@QAEPAXI@Z 100900a0 f i Mover.obj
 0001:0008f140       ??4floorInfo_s@@QAEAAU0@ABU0@@Z 10090140 f i Mover.obj
 0001:0008f1b0       ?Set@idAngles@@QAEXMMM@Z   100901b0 f i Mover.obj
 0001:0008f200       ??GidAngles@@QBE?AV0@XZ    10090200 f i Mover.obj
 0001:0008f270       ??HidAngles@@QBE?AV0@ABV0@@Z 10090270 f i Mover.obj
 0001:0008f2f0       ??GidAngles@@QBE?AV0@ABV0@@Z 100902f0 f i Mover.obj
 0001:0008f370       ??DidAngles@@QBE?AV0@M@Z   10090370 f i Mover.obj
 0001:0008f3e0       ??KidAngles@@QBE?AV0@M@Z   100903e0 f i Mover.obj
 0001:0008f460       ??8idAngles@@QBE_NABV0@@Z  10090460 f i Mover.obj
 0001:0008f4b0       ?Compare@idAngles@@QBE_NABV1@@Z 100904b0 f i Mover.obj
 0001:0008f540       ?Resize@?$idList@UfloorInfo_s@@@@QAEXH@Z 10090540 f i Mover.obj
 0001:0008f730       ??0idMultiplayerGame@@QAE@XZ 10090730 f   MultiplayerGame.obj
 0001:0008f850       ??0mpChatLine_s@@QAE@XZ    10090850 f i MultiplayerGame.obj
 0001:0008f8a0       ?Shutdown@idMultiplayerGame@@QAEXXZ 100908a0 f   MultiplayerGame.obj
 0001:0008f8e0       ?SetMenuSkin@idMultiplayerGame@@QAEXXZ 100908e0 f   MultiplayerGame.obj
 0001:0008fc00       ?Reset@idMultiplayerGame@@QAEXXZ 10090c00 f   MultiplayerGame.obj
 0001:0008feb0       ?ServerClientConnect@idMultiplayerGame@@QAEXH@Z 10090eb0 f   MultiplayerGame.obj
 0001:0008ff10       ?SpawnPlayer@idMultiplayerGame@@QAEXH@Z 10090f10 f   MultiplayerGame.obj
 0001:00090010       ?Clear@idMultiplayerGame@@AAEXXZ 10091010 f   MultiplayerGame.obj
 0001:00090250       ?ClearGuis@idMultiplayerGame@@AAEXXZ 10091250 f   MultiplayerGame.obj
 0001:000905a0       ?UpdatePlayerRanks@idMultiplayerGame@@AAEXXZ 100915a0 f   MultiplayerGame.obj
 0001:000908d0       ?UpdateRankColor@idMultiplayerGame@@AAEXPAVidUserInterface@@PBDHABVidVec3@@@Z 100918d0 f   MultiplayerGame.obj
 0001:00090960       ?UpdateScoreboard@idMultiplayerGame@@AAEXPAVidUserInterface@@PAVidPlayer@@@Z 10091960 f   MultiplayerGame.obj
 0001:00091800       ?IsReady@idPlayer@@QAE_NXZ 10092800 f i MultiplayerGame.obj
 0001:00091870       ?ClampInt@idMath@@SAHHHH@Z 10092870 f i MultiplayerGame.obj
 0001:000918c0       ?GameTime@idMultiplayerGame@@AAEPBDXZ 100928c0 f   MultiplayerGame.obj
 0001:00091a20       ?NumActualClients@idMultiplayerGame@@QAEH_NPAH@Z 10092a20 f   MultiplayerGame.obj
 0001:00091b30       ?EnoughClientsToPlay@idMultiplayerGame@@AAE_NXZ 10092b30 f   MultiplayerGame.obj
 0001:00091bf0       ?AllPlayersReady@idMultiplayerGame@@AAE_NXZ 10092bf0 f   MultiplayerGame.obj
 0001:00091d70       ?FragLimitHit@idMultiplayerGame@@AAEPAVidPlayer@@XZ 10092d70 f   MultiplayerGame.obj
 0001:00091ef0       ?TimeLimitHit@idMultiplayerGame@@AAE_NXZ 10092ef0 f   MultiplayerGame.obj
 0001:00091f70       ?FragLeader@idMultiplayerGame@@AAEPAVidPlayer@@XZ 10092f70 f   MultiplayerGame.obj
 0001:000922d0       ?SetLeader@idPlayer@@QAEX_N@Z 100932d0 f i MultiplayerGame.obj
 0001:00092310       ?UpdateWinsLosses@idMultiplayerGame@@AAEXPAVidPlayer@@@Z 10093310 f   MultiplayerGame.obj
 0001:00092590       ?TeamScore@idMultiplayerGame@@AAEXHHH@Z 10093590 f   MultiplayerGame.obj
 0001:00092670       ?PlayerDeath@idMultiplayerGame@@QAEXPAVidPlayer@@0_N@Z 10093670 f   MultiplayerGame.obj
 0001:00092890       ?PlayerStats@idMultiplayerGame@@QAEXHPADH@Z 10093890 f   MultiplayerGame.obj
 0001:00092950       ?PlayerVote@idMultiplayerGame@@QAEXHW4playerVote_t@@@Z 10093950 f   MultiplayerGame.obj
 0001:00092990       ?DumpTourneyLine@idMultiplayerGame@@AAEXXZ 10093990 f   MultiplayerGame.obj
 0001:00092a50       ?NewState@idMultiplayerGame@@AAEXW4gameState_t@1@PAVidPlayer@@@Z 10093a50 f   MultiplayerGame.obj
 0001:00092fd0       ?FillTourneySlots@idMultiplayerGame@@AAEXXZ 10093fd0 f   MultiplayerGame.obj
 0001:00093150       ?UpdateTourneyLine@idMultiplayerGame@@AAEXXZ 10094150 f   MultiplayerGame.obj
 0001:00093380       ?CycleTourneyPlayers@idMultiplayerGame@@AAEXXZ 10094380 f   MultiplayerGame.obj
 0001:000934d0       ?ExecuteVote@idMultiplayerGame@@QAEXXZ 100944d0 f   MultiplayerGame.obj
 0001:00093780       ?CheckVote@idMultiplayerGame@@AAEXXZ 10094780 f   MultiplayerGame.obj
 0001:00093980       ?Warmup@idMultiplayerGame@@AAE_NXZ 10094980 f   MultiplayerGame.obj
 0001:000939c0       ?Run@idMultiplayerGame@@QAEXXZ 100949c0 f   MultiplayerGame.obj
 0001:00093fe0       ?UpdateMainGui@idMultiplayerGame@@QAEXXZ 10094fe0 f   MultiplayerGame.obj
 0001:00094450       ?StartMenu@idMultiplayerGame@@QAEPAVidUserInterface@@XZ 10095450 f   MultiplayerGame.obj
 0001:00094880       ?DisableMenu@idMultiplayerGame@@AAEXXZ 10095880 f   MultiplayerGame.obj
 0001:00094970       ?SetMapShot@idMultiplayerGame@@AAEXXZ 10095970 f   MultiplayerGame.obj
 0001:00094ad0       ?HandleGuiCommands@idMultiplayerGame@@QAEPBDPBD@Z 10095ad0 f   MultiplayerGame.obj
 0001:00095b70       ?Draw@idMultiplayerGame@@QAE_NH@Z 10096b70 f   MultiplayerGame.obj
 0001:000961f0       ?UpdateHud@idMultiplayerGame@@AAEXPAVidPlayer@@PAVidUserInterface@@@Z 100971f0 f   MultiplayerGame.obj
 0001:00096660       ?DrawScoreBoard@idMultiplayerGame@@AAEXPAVidPlayer@@@Z 10097660 f   MultiplayerGame.obj
 0001:00096770       ?ClearChatData@idMultiplayerGame@@AAEXXZ 10097770 f   MultiplayerGame.obj
 0001:000967c0       ?AddChatLine@idMultiplayerGame@@QAAXPBDZZ 100977c0 f   MultiplayerGame.obj
 0001:00096930       ?DrawChat@idMultiplayerGame@@AAEXXZ 10097930 f   MultiplayerGame.obj
 0001:00096c00       ?WriteToSnapshot@idMultiplayerGame@@QBEXAAVidBitMsgDelta@@@Z 10097c00 f   MultiplayerGame.obj
 0001:00096d70       ?ReadFromSnapshot@idMultiplayerGame@@QAEXABVidBitMsgDelta@@@Z 10097d70 f   MultiplayerGame.obj
 0001:00096f30       ?PlayGlobalSound@idMultiplayerGame@@QAEXHW4snd_evt_t@@PBD@Z 10097f30 f   MultiplayerGame.obj
 0001:00097120       ?PrintMessageEvent@idMultiplayerGame@@QAEXHW4msg_evt_t@1@HH@Z 10098120 f   MultiplayerGame.obj
 0001:00097900       ?SuddenRespawn@idMultiplayerGame@@AAEXXZ 10098900 f   MultiplayerGame.obj
 0001:000979e0       ?CheckRespawns@idMultiplayerGame@@AAEXPAVidPlayer@@@Z 100989e0 f   MultiplayerGame.obj
 0001:00097e30       ?IsLeader@idPlayer@@QAE_NXZ 10098e30 f i MultiplayerGame.obj
 0001:00097e70       ?ForceReady@idMultiplayerGame@@AAEXXZ 10098e70 f   MultiplayerGame.obj
 0001:00097f20       ?ForceReady_f@idMultiplayerGame@@SAXABVidCmdArgs@@@Z 10098f20 f   MultiplayerGame.obj
 0001:00097fa0       ?DropWeapon@idMultiplayerGame@@QAEXH@Z 10098fa0 f   MultiplayerGame.obj
 0001:00098040       ?DropWeapon_f@idMultiplayerGame@@SAXABVidCmdArgs@@@Z 10099040 f   MultiplayerGame.obj
 0001:00098160       ?MessageMode_f@idMultiplayerGame@@SAXABVidCmdArgs@@@Z 10099160 f   MultiplayerGame.obj
 0001:000981a0       ?MessageMode@idMultiplayerGame@@AAEXABVidCmdArgs@@@Z 100991a0 f   MultiplayerGame.obj
 0001:00098300       ?Vote_f@idMultiplayerGame@@SAXABVidCmdArgs@@@Z 10099300 f   MultiplayerGame.obj
 0001:00098330       ?CallVote_f@idMultiplayerGame@@SAXABVidCmdArgs@@@Z 10099330 f   MultiplayerGame.obj
 0001:00098360       ?ServerStartVote@idMultiplayerGame@@QAEXHW4vote_flags_t@1@PBD@Z 10099360 f   MultiplayerGame.obj
 0001:00098490       ?ClientStartVote@idMultiplayerGame@@QAEXHPBD@Z 10099490 f   MultiplayerGame.obj
 0001:00098690       ?ClientUpdateVote@idMultiplayerGame@@QAEXW4vote_result_t@1@HH@Z 10099690 f   MultiplayerGame.obj
 0001:00098970       ?ClientCallVote@idMultiplayerGame@@QAEXW4vote_flags_t@1@PBD@Z 10099970 f   MultiplayerGame.obj
 0001:00098a90       ?CastVote@idMultiplayerGame@@QAEXH_N@Z 10099a90 f   MultiplayerGame.obj
 0001:00098d60       ?ServerCallVote@idMultiplayerGame@@QAEXHABVidBitMsg@@@Z 10099d60 f   MultiplayerGame.obj
 0001:000999a0       ?DisconnectClient@idMultiplayerGame@@QAEXH@Z 1009a9a0 f   MultiplayerGame.obj
 0001:00099a10       ?CheckAbortGame@idMultiplayerGame@@AAEXXZ 1009aa10 f   MultiplayerGame.obj
 0001:00099b70       ?WantKilled@idMultiplayerGame@@QAEXH@Z 1009ab70 f   MultiplayerGame.obj
 0001:00099be0       ?MapRestart@idMultiplayerGame@@QAEXXZ 1009abe0 f   MultiplayerGame.obj
 0001:00099d40       ?SwitchToTeam@idMultiplayerGame@@QAEXHHH@Z 1009ad40 f   MultiplayerGame.obj
 0001:00099f20       ?IsInGame@idMultiplayerGame@@QAE_NH@Z 1009af20 f i MultiplayerGame.obj
 0001:00099f60       ?ProcessChatMessage@idMultiplayerGame@@QAEXH_NPBD11@Z 1009af60 f   MultiplayerGame.obj
 0001:0009a400       ?Precache@idMultiplayerGame@@QAEXXZ 1009b400 f   MultiplayerGame.obj
 0001:0009a720       ?ToggleSpectate@idMultiplayerGame@@QAEXXZ 1009b720 f   MultiplayerGame.obj
 0001:0009a860       ?ToggleReady@idMultiplayerGame@@QAEXXZ 1009b860 f   MultiplayerGame.obj
 0001:0009a950       ?ToggleTeam@idMultiplayerGame@@QAEXXZ 1009b950 f   MultiplayerGame.obj
 0001:0009aa40       ?ThrottleUserInfo@idMultiplayerGame@@QAEXXZ 1009ba40 f   MultiplayerGame.obj
 0001:0009ac30       ?CanPlay@idMultiplayerGame@@QAE_NPAVidPlayer@@@Z 1009bc30 f   MultiplayerGame.obj
 0001:0009aca0       ?EnterGame@idMultiplayerGame@@QAEXH@Z 1009bca0 f   MultiplayerGame.obj
 0001:0009adb0       ?WantRespawn@idMultiplayerGame@@QAE_NPAVidPlayer@@@Z 1009bdb0 f   MultiplayerGame.obj
 0001:0009ae30       ?VoiceChat_f@idMultiplayerGame@@SAXABVidCmdArgs@@@Z 1009be30 f   MultiplayerGame.obj
 0001:0009ae80       ?VoiceChatTeam_f@idMultiplayerGame@@SAXABVidCmdArgs@@@Z 1009be80 f   MultiplayerGame.obj
 0001:0009aed0       ?VoiceChat@idMultiplayerGame@@AAEXABVidCmdArgs@@_N@Z 1009bed0 f   MultiplayerGame.obj
 0001:0009b190       ?ProcessVoiceChat@idMultiplayerGame@@QAEXH_NH@Z 1009c190 f   MultiplayerGame.obj
 0001:0009b530       ?ServerWriteInitialReliableMessages@idMultiplayerGame@@QAEXH@Z 1009c530 f   MultiplayerGame.obj
 0001:0009b7b0       ?ClientReadStartState@idMultiplayerGame@@QAEXABVidBitMsg@@@Z 1009c7b0 f   MultiplayerGame.obj
 0001:0009b8f0       ?ClientReadWarmupTime@idMultiplayerGame@@QAEXABVidBitMsg@@@Z 1009c8f0 f   MultiplayerGame.obj
 0001:0009b940       ?IsGametypeTeamBased@idMultiplayerGame@@QAE_NXZ 1009c940 f   MultiplayerGame.obj
 0001:0009b9e0       ?IsGametypeFlagBased@idMultiplayerGame@@QAE_NXZ 1009c9e0 f   MultiplayerGame.obj
 0001:0009ba70       ??0idCmdArgs@@QAE@XZ       1009ca70 f i MultiplayerGame.obj
 0001:0009bab0       ?Argc@idCmdArgs@@QBEHXZ    1009cab0 f i MultiplayerGame.obj
 0001:0009bae0       ?GetMinValue@idCVar@@QBEMXZ 1009cae0 f i MultiplayerGame.obj
 0001:0009bb20       ?GetMaxValue@idCVar@@QBEMXZ 1009cb20 f i MultiplayerGame.obj
 0001:0009bb60       ?CreateInstance@idPlayer@@SAPAVidClass@@XZ 1009cb60 f   Player.obj
 0001:0009bc50       ?GetType@idPlayer@@UBEPAVidTypeInfo@@XZ 1009cc50 f   Player.obj
 0001:0009bc80       ?Clear@idInventory@@QAEXXZ 1009cc80 f   Player.obj
 0001:0009be70       ?GivePowerUp@idInventory@@QAEXPAVidPlayer@@HH@Z 1009ce70 f   Player.obj
 0001:0009bfb0       ?ClearPowerUps@idInventory@@QAEXXZ 1009cfb0 f   Player.obj
 0001:0009c010       ?GetPersistantData@idInventory@@QAEXAAVidDict@@@Z 1009d010 f   Player.obj
 0001:0009c530       ?RestoreInventory@idInventory@@QAEXPAVidPlayer@@ABVidDict@@@Z 1009d530 f   Player.obj
 0001:0009cc70       ??0idLevelTriggerInfo@@QAE@XZ 1009dc70 f i Player.obj
 0001:0009ccf0       ??1idLevelTriggerInfo@@QAE@XZ 1009dcf0 f i Player.obj
 0001:0009cd70       ?Save@idInventory@@QBEXPAVidSaveGame@@@Z 1009dd70 f   Player.obj
 0001:0009d3a0       ?Restore@idInventory@@QAEXPAVidRestoreGame@@@Z 1009e3a0 f   Player.obj
 0001:0009daf0       ??0idItemInfo@@QAE@XZ      1009eaf0 f i Player.obj
 0001:0009db70       ??1idItemInfo@@QAE@XZ      1009eb70 f i Player.obj
 0001:0009dbf0       ??0idObjectiveInfo@@QAE@XZ 1009ebf0 f i Player.obj
 0001:0009dc80       ??1idObjectiveInfo@@QAE@XZ 1009ec80 f i Player.obj
 0001:0009dd10       ?AmmoIndexForAmmoClass@idInventory@@QBEHPBD@Z 1009ed10 f   Player.obj
 0001:0009dd60       ?MaxAmmoForAmmoClass@idInventory@@QBEHPAVidPlayer@@PBD@Z 1009ed60 f   Player.obj
 0001:0009ddc0       ?AmmoPickupNameForIndex@idInventory@@QBEPBDH@Z 1009edc0 f   Player.obj
 0001:0009de10       ?WeaponIndexForAmmoClass@idInventory@@QBEHABVidDict@@PBD@Z 1009ee10 f   Player.obj
 0001:0009dee0       ?AmmoIndexForWeaponClass@idInventory@@QAEHPBDPAH@Z 1009eee0 f   Player.obj
 0001:0009df90       ?AddPickupName@idInventory@@QAEXPBD0PAVidPlayer@@@Z 1009ef90 f   Player.obj
 0001:0009e080       ?Give@idInventory@@QAE_NPAVidPlayer@@ABVidDict@@PBD2PAH_N@Z 1009f080 f   Player.obj
 0001:0009e840       ?Drop@idInventory@@QAEXABVidDict@@PBDH@Z 1009f840 f   Player.obj
 0001:0009e990       ?HasAmmo@idInventory@@QAEHHH@Z 1009f990 f   Player.obj
 0001:0009e9f0       ?HasAmmo@idInventory@@QAEHPBD_NPAVidPlayer@@@Z 1009f9f0 f   Player.obj
 0001:0009ea80       ?UseAmmo@idInventory@@QAE_NHH@Z 1009fa80 f   Player.obj
 0001:0009eb10       ?UpdateArmor@idInventory@@QAEXXZ 1009fb10 f   Player.obj
 0001:0009ec10       ??0idPlayer@@QAE@XZ        1009fc10 f   Player.obj
 0001:0009f780       ??0idInventory@@QAE@XZ     100a0780 f i Player.obj
 0001:0009f890       ??1idInventory@@QAE@XZ     100a0890 f i Player.obj
 0001:0009f990       ??_EidPlayer@@UAEPAXI@Z    100a0990 f i Player.obj
 0001:0009f990       ??_GidPlayer@@UAEPAXI@Z    100a0990 f i Player.obj
 0001:0009f9f0       ??1idPhysics_Player@@UAE@XZ 100a09f0 f i Player.obj
 0001:0009fa30       ??0loggedAccel_t@@QAE@XZ   100a0a30 f i Player.obj
 0001:0009fa80       ?LinkScriptVariables@idPlayer@@QAEXXZ 100a0a80 f   Player.obj
 0001:0009fcd0       ?SetupWeaponEntity@idPlayer@@QAEXXZ 100a0cd0 f   Player.obj
 0001:0009fdf0       ?Init@idPlayer@@QAEXXZ     100a0df0 f   Player.obj
 0001:000a09d0       ?Spawn@idPlayer@@QAEXXZ    100a19d0 f   Player.obj
 0001:000a1260       ??1idPlayer@@UAE@XZ        100a2260 f   Player.obj
 0001:000a13e0       ?Save@idPlayer@@QBEXPAVidSaveGame@@@Z 100a23e0 f   Player.obj
 0001:000a1ff0       ?Restore@idPlayer@@QAEXPAVidRestoreGame@@@Z 100a2ff0 f   Player.obj
 0001:000a2cd0       ?PrepareForRestart@idPlayer@@QAEXXZ 100a3cd0 f   Player.obj
 0001:000a2d40       ?Restart@idPlayer@@UAEXXZ  100a3d40 f   Player.obj
 0001:000a2de0       ?ServerSpectate@idPlayer@@QAEX_N@Z 100a3de0 f   Player.obj
 0001:000a2ea0       ?ClearFrags@idMultiplayerGame@@QAEXH@Z 100a3ea0 f i Player.obj
 0001:000a2ee0       ?SelectInitialSpawnPoint@idPlayer@@QAEXAAVidVec3@@AAVidAngles@@@Z 100a3ee0 f   Player.obj
 0001:000a3090       ?SpawnFromSpawnSpot@idPlayer@@QAEXXZ 100a4090 f   Player.obj
 0001:000a3150       ?SpawnToPoint@idPlayer@@QAEXABVidVec3@@ABVidAngles@@@Z 100a4150 f   Player.obj
 0001:000a3560       ?SavePersistantInfo@idPlayer@@QAEXXZ 100a4560 f   Player.obj
 0001:000a3600       ?RestorePersistantInfo@idPlayer@@QAEXXZ 100a4600 f   Player.obj
 0001:000a36e0       ?GetUserInfo@idPlayer@@QAEPAVidDict@@XZ 100a46e0 f   Player.obj
 0001:000a3720       ?UpdateSkinSetup@idPlayer@@QAEX_N@Z 100a4720 f   Player.obj
 0001:000a3b00       ?BalanceTDM@idPlayer@@QAE_NXZ 100a4b00 f   Player.obj
 0001:000a3cc0       ?UserInfoChanged@idPlayer@@QAE_N_N@Z 100a4cc0 f   Player.obj
 0001:000a4080       ?GetGameState@idMultiplayerGame@@QBE?AW4gameState_t@1@XZ 100a5080 f i Player.obj
 0001:000a40b0       ?UpdateHudAmmo@idPlayer@@QAEXPAVidUserInterface@@@Z 100a50b0 f   Player.obj
 0001:000a4400       ?UpdateHudStats@idPlayer@@QAEXPAVidUserInterface@@@Z 100a5400 f   Player.obj
 0001:000a46d0       ?UpdateHudWeapon@idPlayer@@QAEX_N@Z 100a56d0 f   Player.obj
 0001:000a48b0       ?DrawHUD@idPlayer@@QAEXPAVidUserInterface@@@Z 100a58b0 f   Player.obj
 0001:000a4a40       ?GuiActive@idPlayer@@QAE_NXZ 100a5a40 f i Player.obj
 0001:000a4a80       ?EnterCinematic@idPlayer@@QAEXXZ 100a5a80 f   Player.obj
 0001:000a4e00       ?ExitCinematic@idPlayer@@QAEXXZ 100a5e00 f   Player.obj
 0001:000a4ea0       ?UpdateConditions@idPlayer@@QAEXXZ 100a5ea0 f   Player.obj
 0001:000a5510       ?WeaponFireFeedback@idPlayer@@QAEXPBVidDict@@@Z 100a6510 f   Player.obj
 0001:000a5590       ?StopFiring@idPlayer@@AAEXXZ 100a6590 f   Player.obj
 0001:000a5650       ?FireWeapon@idPlayer@@AAEXXZ 100a6650 f   Player.obj
 0001:000a5890       ?CacheWeapons@idPlayer@@QAEXXZ 100a6890 f   Player.obj
 0001:000a5a00       ?Give@idPlayer@@QAE_NPBD0@Z 100a6a00 f   Player.obj
 0001:000a5cc0       ?GiveHealthPool@idPlayer@@QAEXM@Z 100a6cc0 f   Player.obj
 0001:000a5da0       ?GiveItem@idPlayer@@QAE_NPAVidItem@@@Z 100a6da0 f   Player.obj
 0001:000a5fc0       ?PowerUpModifier@idPlayer@@QAEMH@Z 100a6fc0 f   Player.obj
 0001:000a60d0       ?PowerUpActive@idPlayer@@QBE_NH@Z 100a70d0 f   Player.obj
 0001:000a6120       ?GivePowerUp@idPlayer@@QAE_NHH@Z 100a7120 f   Player.obj
 0001:000a65e0       ?ClearPowerup@idPlayer@@AAEXH@Z 100a75e0 f   Player.obj
 0001:000a6780       ?UpdatePowerUps@idPlayer@@AAEXXZ 100a7780 f   Player.obj
 0001:000a6aa0       ?ClearPowerUps@idPlayer@@QAEXXZ 100a7aa0 f   Player.obj
 0001:000a6b20       ?GiveInventoryItem@idPlayer@@QAE_NPAVidDict@@@Z 100a7b20 f   Player.obj
 0001:000a6d60       ?UpdateObjectiveInfo@idPlayer@@AAEXXZ 100a7d60 f   Player.obj
 0001:000a6fb0       ?GiveObjective@idPlayer@@QAEXPBD00@Z 100a7fb0 f   Player.obj
 0001:000a70d0       ?CompleteObjective@idPlayer@@QAEXPBD@Z 100a80d0 f   Player.obj
 0001:000a71c0       ?GiveVideo@idPlayer@@QAEXPBDPAVidDict@@@Z 100a81c0 f   Player.obj
 0001:000a7340       ?GiveSecurity@idPlayer@@QAEXPBD@Z 100a8340 f   Player.obj
 0001:000a7410       ?GiveEmail@idPlayer@@QAEXPBD@Z 100a8410 f   Player.obj
 0001:000a7520       ?GivePDA@idPlayer@@QAEXPBDPAVidDict@@@Z 100a8520 f   Player.obj
 0001:000a7940       ?GetFrameNum@idGameLocal@@QBEHXZ 100a8940 f i Player.obj
 0001:000a7980       ?FindInventoryItem@idPlayer@@QAEPAVidDict@@PBD@Z 100a8980 f   Player.obj
 0001:000a7a50       ?RemoveInventoryItem@idPlayer@@QAEXPBD@Z 100a8a50 f   Player.obj
 0001:000a7af0       ?RemoveInventoryItem@idPlayer@@QAEXPAVidDict@@@Z 100a8af0 f   Player.obj
 0001:000a7b80       ??_GidDict@@QAEPAXI@Z      100a8b80 f i Player.obj
 0001:000a7be0       ?GiveItem@idPlayer@@QAEXPBD@Z 100a8be0 f   Player.obj
 0001:000a7cf0       ?SlotForWeapon@idPlayer@@QAEHPBD@Z 100a8cf0 f   Player.obj
 0001:000a7d90       ?Reload@idPlayer@@QAEXXZ   100a8d90 f   Player.obj
 0001:000a7e40       ?IsLinked@idWeapon@@QAE_NXZ 100a8e40 f i Player.obj
 0001:000a7e80       ?NextBestWeapon@idPlayer@@QAEXXZ 100a8e80 f   Player.obj
 0001:000a7fb0       ?NextWeapon@idPlayer@@QAEXXZ 100a8fb0 f   Player.obj
 0001:000a8180       ?PrevWeapon@idPlayer@@QAEXXZ 100a9180 f   Player.obj
 0001:000a8350       ?SelectWeapon@idPlayer@@QAEXH_N@Z 100a9350 f   Player.obj
 0001:000a8690       ?DropWeapon@idPlayer@@QAEX_N@Z 100a9690 f   Player.obj
 0001:000a8a80       ?StealWeapon@idPlayer@@QAEXPAV1@@Z 100a9a80 f   Player.obj
 0001:000a8d40       ?ActiveGui@idPlayer@@AAEPAVidUserInterface@@XZ 100a9d40 f   Player.obj
 0001:000a8d90       ?Weapon_Combat@idPlayer@@AAEXXZ 100a9d90 f   Player.obj
 0001:000a9360       ?Weapon_NPC@idPlayer@@AAEXXZ 100aa360 f   Player.obj
 0001:000a9420       ?LowerWeapon@idPlayer@@QAEXXZ 100aa420 f   Player.obj
 0001:000a94a0       ?RaiseWeapon@idPlayer@@QAEXXZ 100aa4a0 f   Player.obj
 0001:000a9520       ?WeaponLoweringCallback@idPlayer@@QAEXXZ 100aa520 f   Player.obj
 0001:000a9570       ?WeaponRisingCallback@idPlayer@@QAEXXZ 100aa570 f   Player.obj
 0001:000a95c0       ?Weapon_GUI@idPlayer@@AAEXXZ 100aa5c0 f   Player.obj
 0001:000a97d0       ?UpdateWeapon@idPlayer@@AAEXXZ 100aa7d0 f   Player.obj
 0001:000a9a50       ?IsWorldModelReady@idWeapon@@QAE_NXZ 100aaa50 f i Player.obj
 0001:000a9aa0       ?SpectateFreeFly@idPlayer@@AAEX_N@Z 100aaaa0 f   Player.obj
 0001:000a9eb0       ?SpectateCycle@idPlayer@@AAEXXZ 100aaeb0 f   Player.obj
 0001:000a9fd0       ?UpdateSpectating@idPlayer@@AAEXXZ 100aafd0 f   Player.obj
 0001:000aa110       ?HandleSingleGuiCommand@idPlayer@@UAE_NPAVidEntity@@PAVidLexer@@@Z 100ab110 f   Player.obj
 0001:000aa7c0       ?Collide@idPlayer@@UAE_NABUtrace_s@@ABVidVec3@@@Z 100ab7c0 f   Player.obj
 0001:000aa8c0       ?UpdateLocation@idPlayer@@AAEXXZ 100ab8c0 f   Player.obj
 0001:000aa9b0       ?ClearFocus@idPlayer@@AAEXXZ 100ab9b0 f   Player.obj
 0001:000aaa20       ?UpdateFocus@idPlayer@@AAEXXZ 100aba20 f   Player.obj
 0001:000aba40       ?CrashLand@idPlayer@@AAEXABVidVec3@@0@Z 100aca40 f   Player.obj
 0001:000ac100       ?BobCycle@idPlayer@@AAEXABVidVec3@@@Z 100ad100 f   Player.obj
 0001:000ac970       ?UpdateDeltaViewAngles@idPlayer@@QAEXABVidAngles@@@Z 100ad970 f   Player.obj
 0001:000aca50       ?SetViewAngles@idPlayer@@QAEXABVidAngles@@@Z 100ada50 f   Player.obj
 0001:000acab0       ?UpdateViewAngles@idPlayer@@AAEXXZ 100adab0 f   Player.obj
 0001:000aceb0       ?AngleDelta@idMath@@SAMMM@Z 100adeb0 f i Player.obj
 0001:000acf00       ?AdjustHeartRate@idPlayer@@QAEXHMM_N@Z 100adf00 f   Player.obj
 0001:000acff0       ?GetBaseHeartRate@idPlayer@@QAEHXZ 100adff0 f   Player.obj
 0001:000ad140       ?SetCurrentHeartRate@idPlayer@@QAEXXZ 100ae140 f   Player.obj
 0001:000ad3f0       ?UpdateAir@idPlayer@@QAEXXZ 100ae3f0 f   Player.obj
 0001:000ad740       ?AddGuiPDAData@idPlayer@@AAEHW4declType_t@@PBDPBVidDeclPDA@@PAVidUserInterface@@@Z 100ae740 f   Player.obj
 0001:000adaf0       ?GetPDA@idPlayer@@QBEPBVidDeclPDA@@XZ 100aeaf0 f   Player.obj
 0001:000adb80       ?GetVideo@idPlayer@@QAEPBVidDeclVideo@@H@Z 100aeb80 f   Player.obj
 0001:000adc10       ?UpdatePDAInfo@idPlayer@@AAEX_N@Z 100aec10 f   Player.obj
 0001:000aeb40       ?TogglePDA@idPlayer@@QAEXXZ 100afb40 f   Player.obj
 0001:000af1e0       ?ToggleScoreboard@idPlayer@@QAEXXZ 100b01e0 f   Player.obj
 0001:000af220       ?Spectate@idPlayer@@QAEX_N@Z 100b0220 f   Player.obj
 0001:000af490       ?SetClipModel@idPlayer@@QAEXXZ 100b0490 f   Player.obj
 0001:000af770       ?Translate@idClipModel@@QAEXABVidVec3@@@Z 100b0770 f i Player.obj
 0001:000af7c0       ?UseVehicle@idPlayer@@AAEXXZ 100b07c0 f   Player.obj
 0001:000af9a0       ?PerformImpulse@idPlayer@@QAEXH@Z 100b09a0 f   Player.obj
 0001:000afcf0       ?HandleESC@idPlayer@@QAE_NXZ 100b0cf0 f   Player.obj
 0001:000afd60       ?SkipCinematic@idPlayer@@QAE_NXZ 100b0d60 f   Player.obj
 0001:000afdc0       ?EvaluateControls@idPlayer@@AAEXXZ 100b0dc0 f   Player.obj
 0001:000aff20       ?AdjustSpeed@idPlayer@@AAEXXZ 100b0f20 f   Player.obj
 0001:000b0250       ?AdjustBodyAngles@idPlayer@@AAEXXZ 100b1250 f   Player.obj
 0001:000b08a0       ?Abs@idMath@@SAHH@Z        100b18a0 f i Player.obj
 0001:000b08e0       ?InitAASLocation@idPlayer@@AAEXXZ 100b18e0 f   Player.obj
 0001:000b0b00       ?SetAASLocation@idPlayer@@AAEXXZ 100b1b00 f   Player.obj
 0001:000b0cd0       ?GetAASLocation@idPlayer@@UBEXPAVidAAS@@AAVidVec3@@AAH@Z 100b1cd0 f   Player.obj
 0001:000b0dc0       ?Move@idPlayer@@AAEXXZ     100b1dc0 f   Player.obj
 0001:000b16b0       ?LengthSqr@idVec2@@QBEMXZ  100b26b0 f i Player.obj
 0001:000b1700       ?NormalizeFast@idVec2@@QAEMXZ 100b2700 f i Player.obj
 0001:000b1790       ??GidVec2@@QBE?AV0@ABV0@@Z 100b2790 f i Player.obj
 0001:000b1800       ??XidVec2@@QAEAAV0@M@Z     100b2800 f i Player.obj
 0001:000b1850       ?ToVec2@idVec3@@QBEABVidVec2@@XZ 100b2850 f i Player.obj
 0001:000b1880       ?ToVec2@idVec3@@QAEAAVidVec2@@XZ 100b2880 f i Player.obj
 0001:000b18b0       ?UpdateHud@idPlayer@@QAEXXZ 100b28b0 f   Player.obj
 0001:000b1e60       ?UpdateDeathSkin@idPlayer@@AAEX_N@Z 100b2e60 f   Player.obj
 0001:000b1fb0       ?StartFxOnBone@idPlayer@@QAEXPBD0@Z 100b2fb0 f   Player.obj
 0001:000b21a0       ?Think@idPlayer@@UAEXXZ    100b31a0 f   Player.obj
 0001:000b2b90       ??AidAngles@@QBEMH@Z       100b3b90 f i Player.obj
 0001:000b2c00       ?RouteGuiMouse@idPlayer@@QAEXPAVidUserInterface@@@Z 100b3c00 f   Player.obj
 0001:000b2d40       ?LookAtKiller@idPlayer@@AAEXPAVidEntity@@0@Z 100b3d40 f   Player.obj
 0001:000b2f00       ?Kill@idPlayer@@QAEX_N0@Z  100b3f00 f   Player.obj
 0001:000b3030       ?Killed@idPlayer@@UAEXPAVidEntity@@0HABVidVec3@@H@Z 100b4030 f   Player.obj
 0001:000b33f0       ?GetAIAimTargets@idPlayer@@UAEXABVidVec3@@AAV2@1@Z 100b43f0 f   Player.obj
 0001:000b3550       ?DamageFeedback@idPlayer@@UAEXPAVidEntity@@0AAH@Z 100b4550 f   Player.obj
 0001:000b3670       ?CalcDamagePoints@idPlayer@@QAEXPAVidEntity@@0PBVidDict@@MHPAH2@Z 100b4670 f   Player.obj
 0001:000b3990       ?Damage@idPlayer@@UAEXPAVidEntity@@0ABVidVec3@@PBDMH@Z 100b4990 f   Player.obj
 0001:000b4090       ?Teleport@idPlayer@@UAEXABVidVec3@@ABVidAngles@@PAVidEntity@@@Z 100b5090 f   Player.obj
 0001:000b42b0       ?SetPrivateCameraView@idPlayer@@QAEXPAVidCamera@@@Z 100b52b0 f   Player.obj
 0001:000b4340       ?DefaultFov@idPlayer@@QBEMXZ 100b5340 f   Player.obj
 0001:000b43d0       ?CalcFov@idPlayer@@QAEM_N@Z 100b53d0 f   Player.obj
 0001:000b4570       ?GunTurningOffset@idPlayer@@AAE?AVidAngles@@XZ 100b5570 f   Player.obj
 0001:000b4940       ??YidAngles@@QAEAAV0@ABV0@@Z 100b5940 f i Player.obj
 0001:000b49b0       ?GunAcceleratingOffset@idPlayer@@AAE?AVidVec3@@XZ 100b59b0 f   Player.obj
 0001:000b4b80       ?CalculateViewWeaponPos@idPlayer@@QAEXAAVidVec3@@AAVidMat3@@@Z 100b5b80 f   Player.obj
 0001:000b4f00       ??XidAngles@@QAEAAV0@M@Z   100b5f00 f i Player.obj
 0001:000b4f60       ?OffsetThirdPersonView@idPlayer@@QAEXMMM_N@Z 100b5f60 f   Player.obj
 0001:000b54e0       ?SinCos@idMath@@SAXMAAM0@Z 100b64e0 f i Player.obj
 0001:000b5530       ?GetEyePosition@idPlayer@@QBE?AVidVec3@@XZ 100b6530 f   Player.obj
 0001:000b5660       ?GetViewPos@idPlayer@@UBEXAAVidVec3@@AAVidMat3@@@Z 100b6660 f   Player.obj
 0001:000b5890       ?CalculateFirstPersonView@idPlayer@@QAEXXZ 100b6890 f   Player.obj
 0001:000b5b10       ?GetRenderView@idPlayer@@UAEPAUrenderView_s@@XZ 100b6b10 f   Player.obj
 0001:000b5b50       ?CalculateRenderView@idPlayer@@QAEXXZ 100b6b50 f   Player.obj
 0001:000b5fe0       ?AddAIKill@idPlayer@@QAEXXZ 100b6fe0 f   Player.obj
 0001:000b6120       ?SetSoulCubeProjectile@idPlayer@@QAEXPAVidProjectile@@@Z 100b7120 f   Player.obj
 0001:000b6170       ?AddProjectilesFired@idPlayer@@QAEXH@Z 100b7170 f   Player.obj
 0001:000b61c0       ?AddProjectileHits@idPlayer@@QAEXH@Z 100b71c0 f   Player.obj
 0001:000b6210       ?SetLastHitTime@idPlayer@@QAEXH@Z 100b7210 f   Player.obj
 0001:000b65b0       ?SetInfluenceLevel@idPlayer@@QAEXH@Z 100b75b0 f   Player.obj
 0001:000b66f0       ?SetInfluenceView@idPlayer@@QAEXPBD0MPAVidEntity@@@Z 100b76f0 f   Player.obj
 0001:000b6850       ?SetInfluenceFov@idPlayer@@QAEXM@Z 100b7850 f   Player.obj
 0001:000b6890       ?OnLadder@idPlayer@@UBE_NXZ 100b7890 f   Player.obj
 0001:000b68e0       ?Event_GetButtons@idPlayer@@AAEXXZ 100b78e0 f   Player.obj
 0001:000b6930       ?Event_GetMove@idPlayer@@AAEXXZ 100b7930 f   Player.obj
 0001:000b6a00       ?Event_GetViewAngles@idPlayer@@AAEXXZ 100b7a00 f   Player.obj
 0001:000b6a90       ?Event_StopFxFov@idPlayer@@AAEXXZ 100b7a90 f   Player.obj
 0001:000b6ad0       ?StartFxFov@idPlayer@@QAEXM@Z 100b7ad0 f   Player.obj
 0001:000b6b30       ?Event_EnableWeapon@idPlayer@@AAEXXZ 100b7b30 f   Player.obj
 0001:000b6bc0       ?Event_DisableWeapon@idPlayer@@AAEXXZ 100b7bc0 f   Player.obj
 0001:000b6c50       ?Event_GetCurrentWeapon@idPlayer@@AAEXXZ 100b7c50 f   Player.obj
 0001:000b6ce0       ?Event_GetPreviousWeapon@idPlayer@@AAEXXZ 100b7ce0 f   Player.obj
 0001:000b6dc0       ?Event_SelectWeapon@idPlayer@@AAEXPBD@Z 100b7dc0 f   Player.obj
 0001:000b6f40       ?Event_GetWeaponEntity@idPlayer@@AAEXXZ 100b7f40 f   Player.obj
 0001:000b6f90       ?Event_OpenPDA@idPlayer@@AAEXXZ 100b7f90 f   Player.obj
 0001:000b6fe0       ?Event_InPDA@idPlayer@@AAEXXZ 100b7fe0 f   Player.obj
 0001:000b7030       ?TeleportDeath@idPlayer@@QAEXH@Z 100b8030 f   Player.obj
 0001:000b7070       ?Event_ExitTeleporter@idPlayer@@AAEXXZ 100b8070 f   Player.obj
 0001:000b7330       ?ClientPredictionThink@idPlayer@@UAEXXZ 100b8330 f   Player.obj
 0001:000b7890       ??ZidAngles@@QAEAAV0@ABV0@@Z 100b8890 f i Player.obj
 0001:000b7900       ??D@YA?AVidAngles@@MABV0@@Z 100b8900 f i Player.obj
 0001:000b7970       ?GetPhysicsToVisualTransform@idPlayer@@UAE_NAAVidVec3@@AAVidMat3@@@Z 100b8970 f   Player.obj
 0001:000b7d00       ??D@YA?AVidVec2@@MV0@@Z    100b8d00 f i Player.obj
 0001:000b7d60       ??ZidVec2@@QAEAAV0@ABV0@@Z 100b8d60 f i Player.obj
 0001:000b7db0       ?GetPhysicsToSoundTransform@idPlayer@@UAE_NAAVidVec3@@AAVidMat3@@@Z 100b8db0 f   Player.obj
 0001:000b7eb0       ?WriteToSnapshot@idPlayer@@UBEXAAVidBitMsgDelta@@@Z 100b8eb0 f   Player.obj
 0001:000b8090       ?ReadFromSnapshot@idPlayer@@UAEXABVidBitMsgDelta@@@Z 100b9090 f   Player.obj
 0001:000b8750       ?WritePlayerStateToSnapshot@idPlayer@@QBEXAAVidBitMsgDelta@@@Z 100b9750 f   Player.obj
 0001:000b8850       ?ReadPlayerStateFromSnapshot@idPlayer@@QAEXABVidBitMsgDelta@@@Z 100b9850 f   Player.obj
 0001:000b8960       ?ServerReceiveEvent@idPlayer@@UAE_NHHABVidBitMsg@@@Z 100b9960 f   Player.obj
 0001:000b89f0       ?ClientReceiveEvent@idPlayer@@UAE_NHHABVidBitMsg@@@Z 100b99f0 f   Player.obj
 0001:000b8b40       ?Hide@idPlayer@@UAEXXZ     100b9b40 f   Player.obj
 0001:000b8ba0       ?Show@idPlayer@@UAEXXZ     100b9ba0 f   Player.obj
 0001:000b8c00       ?StartAudioLog@idPlayer@@QAEXXZ 100b9c00 f   Player.obj
 0001:000b8c70       ?StopAudioLog@idPlayer@@QAEXXZ 100b9c70 f   Player.obj
 0001:000b8ce0       ?ShowTip@idPlayer@@QAEXPBD0_N@Z 100b9ce0 f   Player.obj
 0001:000b8dd0       ?HideTip@idPlayer@@QAEXXZ  100b9dd0 f   Player.obj
 0001:000b8e40       ?Event_HideTip@idPlayer@@AAEXXZ 100b9e40 f   Player.obj
 0001:000b8e80       ?ShowObjective@idPlayer@@QAEXPBD@Z 100b9e80 f   Player.obj
 0001:000b8ef0       ?HideObjective@idPlayer@@QAEXXZ 100b9ef0 f   Player.obj
 0001:000b8f60       ?Event_StopAudioLog@idPlayer@@QAEXXZ 100b9f60 f   Player.obj
 0001:000b8fa0       ?SetSpectateOrigin@idPlayer@@AAEXXZ 100b9fa0 f   Player.obj
 0001:000b90a0       ?RemoveWeapon@idPlayer@@QAEXPBD@Z 100ba0a0 f   Player.obj
 0001:000b9120       ?CanShowWeaponViewmodel@idPlayer@@QBE_NXZ 100ba120 f   Player.obj
 0001:000b9160       ?SetLevelTrigger@idPlayer@@QAEXPBD0@Z 100ba160 f   Player.obj
 0001:000b9250       ?Event_LevelTrigger@idPlayer@@AAEXXZ 100ba250 f   Player.obj
 0001:000b93c0       ?Event_Gibbed@idPlayer@@AAEXXZ 100ba3c0 f   Player.obj
 0001:000b93f0       ?UpdatePlayerIcons@idPlayer@@UAEXXZ 100ba3f0 f   Player.obj
 0001:000b9490       ?DrawPlayerIcons@idPlayer@@UAEXXZ 100ba490 f   Player.obj
 0001:000b9510       ?HidePlayerIcons@idPlayer@@UAEXXZ 100ba510 f   Player.obj
 0001:000b9560       ?NeedsIcon@idPlayer@@QAE_NXZ 100ba560 f   Player.obj
 0001:000b95d0       ?GetSpawnId@?$idEntityPtr@VidWeapon@@@@QBEHXZ 100ba5d0 f i Player.obj
 0001:000b9600       ?SetStartTime@?$idInterpolate@M@@QAEXM@Z 100ba600 f i Player.obj
 0001:000b9640       ?SetDuration@?$idInterpolate@M@@QAEXM@Z 100ba640 f i Player.obj
 0001:000b9680       ?SetStartValue@?$idInterpolate@M@@QAEXABM@Z 100ba680 f i Player.obj
 0001:000b96c0       ?SetEndValue@?$idInterpolate@M@@QAEXABM@Z 100ba6c0 f i Player.obj
 0001:000b9700       ?IsDone@?$idInterpolate@M@@QBE_NM@Z 100ba700 f i Player.obj
 0001:000b9760       ?GetStartTime@?$idInterpolate@M@@QBEMXZ 100ba760 f i Player.obj
 0001:000b9790       ?GetDuration@?$idInterpolate@M@@QBEMXZ 100ba790 f i Player.obj
 0001:000b97c0       ?GetStartValue@?$idInterpolate@M@@QBEABMXZ 100ba7c0 f i Player.obj
 0001:000b97f0       ?GetEndValue@?$idInterpolate@M@@QBEABMXZ 100ba7f0 f i Player.obj
 0001:000b9820       ?AddPoint@idBounds@@QAE_NABVidVec3@@@Z 100ba820 f i Player.obj
 0001:000b9a50       ??0?$idScriptVariable@H$0O@H@@QAE@XZ 100baa50 f i Player.obj
 0001:000b9a90       ?LinkTo@?$idScriptVariable@H$0O@H@@QAEXAAVidScriptObject@@PBD@Z 100baa90 f i Player.obj
 0001:000b9b10       ??4?$idScriptVariable@H$0O@H@@QAEAAV0@ABH@Z 100bab10 f i Player.obj
 0001:000b9b90       ?GetEntity@?$idEntityPtr@VidAnimatedEntity@@@@QBEPAVidAnimatedEntity@@XZ 100bab90 f i Player.obj
 0001:000b9bf0       ??0?$idList@PAVidDict@@@@QAE@H@Z 100babf0 f i Player.obj
 0001:000b9c70       ??1?$idList@PAVidDict@@@@QAE@XZ 100bac70 f i Player.obj
 0001:000b9cb0       ?Num@?$idList@PAVidDict@@@@QBEHXZ 100bacb0 f i Player.obj
 0001:000b9ce0       ??A?$idList@PAVidDict@@@@QAEAAPAVidDict@@H@Z 100bace0 f i Player.obj
 0001:000b9d70       ??A?$idList@PAVidDict@@@@QBEABQAVidDict@@H@Z 100bad70 f i Player.obj
 0001:000b9e00       ?SetNum@?$idList@PAVidDict@@@@QAEXH_N@Z 100bae00 f i Player.obj
 0001:000b9e80       ?Append@?$idList@PAVidDict@@@@QAEHABQAVidDict@@@Z 100bae80 f i Player.obj
 0001:000b9f40       ?Remove@?$idList@PAVidDict@@@@QAE_NABQAVidDict@@@Z 100baf40 f i Player.obj
 0001:000b9fa0       ?DeleteContents@?$idList@PAVidDict@@@@QAEX_N@Z 100bafa0 f i Player.obj
 0001:000ba080       ??0?$idList@UidLevelTriggerInfo@@@@QAE@H@Z 100bb080 f i Player.obj
 0001:000ba100       ??1?$idList@UidLevelTriggerInfo@@@@QAE@XZ 100bb100 f i Player.obj
 0001:000ba140       ?Clear@?$idList@UidLevelTriggerInfo@@@@QAEXXZ 100bb140 f i Player.obj
 0001:000ba1e0       ?Num@?$idList@UidLevelTriggerInfo@@@@QBEHXZ 100bb1e0 f i Player.obj
 0001:000ba210       ??A?$idList@UidLevelTriggerInfo@@@@QAEAAUidLevelTriggerInfo@@H@Z 100bb210 f i Player.obj
 0001:000ba2a0       ??A?$idList@UidLevelTriggerInfo@@@@QBEABUidLevelTriggerInfo@@H@Z 100bb2a0 f i Player.obj
 0001:000ba330       ?Append@?$idList@UidLevelTriggerInfo@@@@QAEHABUidLevelTriggerInfo@@@Z 100bb330 f i Player.obj
 0001:000ba400       ??0?$idList@UidItemInfo@@@@QAE@H@Z 100bb400 f i Player.obj
 0001:000ba480       ??1?$idList@UidItemInfo@@@@QAE@XZ 100bb480 f i Player.obj
 0001:000ba4c0       ?Clear@?$idList@UidItemInfo@@@@QAEXXZ 100bb4c0 f i Player.obj
 0001:000ba560       ?Num@?$idList@UidItemInfo@@@@QBEHXZ 100bb560 f i Player.obj
 0001:000ba590       ??A?$idList@UidItemInfo@@@@QAEAAUidItemInfo@@H@Z 100bb590 f i Player.obj
 0001:000ba620       ??A?$idList@UidItemInfo@@@@QBEABUidItemInfo@@H@Z 100bb620 f i Player.obj
 0001:000ba6b0       ?Alloc@?$idList@UidItemInfo@@@@QAEAAUidItemInfo@@XZ 100bb6b0 f i Player.obj
 0001:000ba750       ?Append@?$idList@UidItemInfo@@@@QAEHABUidItemInfo@@@Z 100bb750 f i Player.obj
 0001:000ba820       ?RemoveIndex@?$idList@UidItemInfo@@@@QAE_NH@Z 100bb820 f i Player.obj
 0001:000ba920       ??0?$idList@UidObjectiveInfo@@@@QAE@H@Z 100bb920 f i Player.obj
 0001:000ba9a0       ??1?$idList@UidObjectiveInfo@@@@QAE@XZ 100bb9a0 f i Player.obj
 0001:000ba9e0       ?Clear@?$idList@UidObjectiveInfo@@@@QAEXXZ 100bb9e0 f i Player.obj
 0001:000baa80       ?Num@?$idList@UidObjectiveInfo@@@@QBEHXZ 100bba80 f i Player.obj
 0001:000baab0       ??A?$idList@UidObjectiveInfo@@@@QAEAAUidObjectiveInfo@@H@Z 100bbab0 f i Player.obj
 0001:000bab40       ??A?$idList@UidObjectiveInfo@@@@QBEABUidObjectiveInfo@@H@Z 100bbb40 f i Player.obj
 0001:000babd0       ?Append@?$idList@UidObjectiveInfo@@@@QAEHABUidObjectiveInfo@@@Z 100bbbd0 f i Player.obj
 0001:000baca0       ?RemoveIndex@?$idList@UidObjectiveInfo@@@@QAE_NH@Z 100bbca0 f i Player.obj
 0001:000bada0       ??0?$idEntityPtr@VidWeapon@@@@QAE@XZ 100bbda0 f i Player.obj
 0001:000bade0       ?Save@?$idEntityPtr@VidWeapon@@@@QBEXPAVidSaveGame@@@Z 100bbde0 f i Player.obj
 0001:000bae30       ?Restore@?$idEntityPtr@VidWeapon@@@@QAEXPAVidRestoreGame@@@Z 100bbe30 f i Player.obj
 0001:000bae80       ??4?$idEntityPtr@VidWeapon@@@@QAEAAV0@PAVidWeapon@@@Z 100bbe80 f i Player.obj
 0001:000baee0       ?SetSpawnId@?$idEntityPtr@VidWeapon@@@@QAE_NH@Z 100bbee0 f i Player.obj
 0001:000baf40       ??0?$idInterpolate@M@@QAE@XZ 100bbf40 f i Player.obj
 0001:000bafd0       ?Init@?$idInterpolate@M@@QAEXMMABM0@Z 100bbfd0 f i Player.obj
 0001:000bb040       ?GetCurrentValue@?$idInterpolate@M@@QBEMM@Z 100bc040 f i Player.obj
 0001:000bb100       ??0?$idEntityPtr@VidProjectile@@@@QAE@XZ 100bc100 f i Player.obj
 0001:000bb140       ?Save@?$idEntityPtr@VidProjectile@@@@QBEXPAVidSaveGame@@@Z 100bc140 f i Player.obj
 0001:000bb190       ?Restore@?$idEntityPtr@VidProjectile@@@@QAEXPAVidRestoreGame@@@Z 100bc190 f i Player.obj
 0001:000bb1e0       ??4?$idEntityPtr@VidProjectile@@@@QAEAAV0@PAVidProjectile@@@Z 100bc1e0 f i Player.obj
 0001:000bb240       ?GetEntity@?$idEntityPtr@VidProjectile@@@@QBEPAVidProjectile@@XZ 100bc240 f i Player.obj
 0001:000bb2a0       ??0?$idList@UaasLocation_t@@@@QAE@H@Z 100bc2a0 f i Player.obj
 0001:000bb320       ??1?$idList@UaasLocation_t@@@@QAE@XZ 100bc320 f i Player.obj
 0001:000bb360       ?Num@?$idList@UaasLocation_t@@@@QBEHXZ 100bc360 f i Player.obj
 0001:000bb390       ?SetGranularity@?$idList@UaasLocation_t@@@@QAEXH@Z 100bc390 f i Player.obj
 0001:000bb440       ??A?$idList@UaasLocation_t@@@@QAEAAUaasLocation_t@@H@Z 100bc440 f i Player.obj
 0001:000bb4d0       ??A?$idList@UaasLocation_t@@@@QBEABUaasLocation_t@@H@Z 100bc4d0 f i Player.obj
 0001:000bb560       ?SetNum@?$idList@UaasLocation_t@@@@QAEXH_N@Z 100bc560 f i Player.obj
 0001:000bb5e0       ??_EidLevelTriggerInfo@@QAEPAXI@Z 100bc5e0 f i Player.obj
 0001:000bb680       ??4idLevelTriggerInfo@@QAEAAU0@ABU0@@Z 100bc680 f i Player.obj
 0001:000bb6e0       ??_EidItemInfo@@QAEPAXI@Z  100bc6e0 f i Player.obj
 0001:000bb780       ??4idItemInfo@@QAEAAU0@ABU0@@Z 100bc780 f i Player.obj
 0001:000bb7e0       ??_EidObjectiveInfo@@QAEPAXI@Z 100bc7e0 f i Player.obj
 0001:000bb880       ??4idObjectiveInfo@@QAEAAU0@ABU0@@Z 100bc880 f i Player.obj
 0001:000bb8f0       ??0idTraceModel@@QAE@ABVidBounds@@H@Z 100bc8f0 f i Player.obj
 0001:000bb9a0       ?Clear@?$idList@PAVidDict@@@@QAEXXZ 100bc9a0 f i Player.obj
 0001:000bba20       ?Resize@?$idList@PAVidDict@@@@QAEXH@Z 100bca20 f i Player.obj
 0001:000bbb40       ?FindIndex@?$idList@PAVidDict@@@@QBEHABQAVidDict@@@Z 100bcb40 f i Player.obj
 0001:000bbbb0       ?RemoveIndex@?$idList@PAVidDict@@@@QAE_NH@Z 100bcbb0 f i Player.obj
 0001:000bbcb0       ??0idStr@@QAE@PBDHH@Z      100bccb0 f i Player.obj
 0001:000bbda0       ?Resize@?$idList@UidLevelTriggerInfo@@@@QAEXH@Z 100bcda0 f i Player.obj
 0001:000bbf90       ?Resize@?$idList@UidItemInfo@@@@QAEXH@Z 100bcf90 f i Player.obj
 0001:000bc180       ?Resize@?$idList@UidObjectiveInfo@@@@QAEXH@Z 100bd180 f i Player.obj
 0001:000bc370       ?Clear@?$idList@UaasLocation_t@@@@QAEXXZ 100bd370 f i Player.obj
 0001:000bc3f0       ?Resize@?$idList@UaasLocation_t@@@@QAEXH@Z 100bd3f0 f i Player.obj
 0001:000bc590       ??0aasLocation_t@@QAE@XZ   100bd590 f i Player.obj
 0001:000bc5e0       ??4aasLocation_t@@QAEAAU0@ABU0@@Z 100bd5e0 f i Player.obj
 0001:000bc640       ?Insert@idStr@@QAEXPBDH@Z  100bd640 f i Player.obj
 0001:000bc740       ?RemoveColors@idStr@@QAEAAV1@XZ 100bd740 f i Player.obj
 0001:000bc7a0       ??0idDict@@QAE@ABV0@@Z     100bd7a0 f i Player.obj
 0001:000bc830       ?WriteDir@idBitMsgDelta@@QAEXABVidVec3@@H@Z 100bd830 f i Player.obj
 0001:000bc890       ?WriteDeltaFloat@idBitMsgDelta@@QAEXMM@Z 100bd890 f i Player.obj
 0001:000bc8e0       ?ReadDir@idBitMsgDelta@@QBE?AVidVec3@@H@Z 100bd8e0 f i Player.obj
 0001:000bc940       ?ReadDeltaFloat@idBitMsgDelta@@QBEMM@Z 100bd940 f i Player.obj
 0001:000bc990       ?GetFrom@idDeclEmail@@QBEPBDXZ 100bd990 f i Player.obj
 0001:000bc9e0       ?GetBody@idDeclEmail@@QBEPBDXZ 100bd9e0 f i Player.obj
 0001:000bca30       ?GetSubject@idDeclEmail@@QBEPBDXZ 100bda30 f i Player.obj
 0001:000bca80       ?GetDate@idDeclEmail@@QBEPBDXZ 100bda80 f i Player.obj
 0001:000bcad0       ?GetRoq@idDeclVideo@@QBEPBDXZ 100bdad0 f i Player.obj
 0001:000bcb20       ?GetWave@idDeclVideo@@QBEPBDXZ 100bdb20 f i Player.obj
 0001:000bcb70       ?GetVideoName@idDeclVideo@@QBEPBDXZ 100bdb70 f i Player.obj
 0001:000bcbc0       ?GetInfo@idDeclVideo@@QBEPBDXZ 100bdbc0 f i Player.obj
 0001:000bcc10       ?GetPreview@idDeclVideo@@QBEPBDXZ 100bdc10 f i Player.obj
 0001:000bcc60       ?GetAudioName@idDeclAudio@@QBEPBDXZ 100bdc60 f i Player.obj
 0001:000bccb0       ?GetWave@idDeclAudio@@QBEPBDXZ 100bdcb0 f i Player.obj
 0001:000bcd00       ?GetInfo@idDeclAudio@@QBEPBDXZ 100bdd00 f i Player.obj
 0001:000bcd50       ?GetPreview@idDeclAudio@@QBEPBDXZ 100bdd50 f i Player.obj
 0001:000bcda0       ?GetPdaName@idDeclPDA@@QBEPBDXZ 100bdda0 f i Player.obj
 0001:000bcdf0       ?GetSecurity@idDeclPDA@@QBEPBDXZ 100bddf0 f i Player.obj
 0001:000bce40       ?GetFullName@idDeclPDA@@QBEPBDXZ 100bde40 f i Player.obj
 0001:000bce90       ?GetIcon@idDeclPDA@@QBEPBDXZ 100bde90 f i Player.obj
 0001:000bcee0       ?GetPost@idDeclPDA@@QBEPBDXZ 100bdee0 f i Player.obj
 0001:000bcf30       ?GetID@idDeclPDA@@QBEPBDXZ 100bdf30 f i Player.obj
 0001:000bcf80       ?GetTitle@idDeclPDA@@QBEPBDXZ 100bdf80 f i Player.obj
 0001:000bcfd0       ?GetNumStages@idMaterial@@QBE?BHXZ 100bdfd0 f i Player.obj
 0001:000bd010       ?GetStage@idMaterial@@QBEPBUshaderStage_t@@H@Z 100be010 f i Player.obj
 0001:000bd090       ?GetSurfaceFlags@idMaterial@@QBE?BHXZ 100be090 f i Player.obj
 0001:000bd0c0       ??0idPlayerIcon@@QAE@XZ    100be0c0 f   PlayerIcon.obj
 0001:000bd120       ??1idPlayerIcon@@QAE@XZ    100be120 f   PlayerIcon.obj
 0001:000bd160       ?Draw@idPlayerIcon@@QAEXPAVidPlayer@@W4jointHandle_t@@@Z 100be160 f   PlayerIcon.obj
 0001:000bd230       ?Draw@idPlayerIcon@@QAEXPAVidPlayer@@ABVidVec3@@@Z 100be230 f   PlayerIcon.obj
 0001:000bd3a0       ?FreeIcon@idPlayerIcon@@QAEXXZ 100be3a0 f   PlayerIcon.obj
 0001:000bd420       ?CreateIcon@idPlayerIcon@@QAE_NPAVidPlayer@@W4playerIconType_t@@ABVidVec3@@ABVidMat3@@@Z 100be420 f   PlayerIcon.obj
 0001:000bd4c0       ?CreateIcon@idPlayerIcon@@QAE_NPAVidPlayer@@W4playerIconType_t@@PBDABVidVec3@@ABVidMat3@@@Z 100be4c0 f   PlayerIcon.obj
 0001:000bd6c0       ?UpdateIcon@idPlayerIcon@@QAEXPAVidPlayer@@ABVidVec3@@ABVidMat3@@@Z 100be6c0 f   PlayerIcon.obj
 0001:000bd770       ??0idPlayerView@@QAE@XZ    100be770 f   PlayerView.obj
 0001:000bda20       ?Save@idPlayerView@@QBEXPAVidSaveGame@@@Z 100bea20 f   PlayerView.obj
 0001:000bdca0       ?Restore@idPlayerView@@QAEXPAVidRestoreGame@@@Z 100beca0 f   PlayerView.obj
 0001:000bdf10       ?SetPlayerEntity@idPlayerView@@QAEXPAVidPlayer@@@Z 100bef10 f   PlayerView.obj
 0001:000bdf50       ?ClearEffects@idPlayerView@@QAEXXZ 100bef50 f   PlayerView.obj
 0001:000be010       ?GetScreenBlob@idPlayerView@@AAEPAUscreenBlob_t@@XZ 100bf010 f   PlayerView.obj
 0001:000be080       ?DamageImpulse@idPlayerView@@QAEXVidVec3@@PBVidDict@@@Z 100bf080 f   PlayerView.obj
 0001:000be4b0       ?AddBloodSpray@idPlayerView@@QAEXM@Z 100bf4b0 f   PlayerView.obj
 0001:000be4e0       ?WeaponFireFeedback@idPlayerView@@QAEXPBVidDict@@@Z 100bf4e0 f   PlayerView.obj
 0001:000be5e0       ?CalculateShake@idPlayerView@@QAEXXZ 100bf5e0 f   PlayerView.obj
 0001:000be720       ?ShakeAxis@idPlayerView@@QBE?AVidMat3@@XZ 100bf720 f   PlayerView.obj
 0001:000be770       ?AngleOffset@idPlayerView@@QBE?AVidAngles@@XZ 100bf770 f   PlayerView.obj
 0001:000be900       ?SingleView@idPlayerView@@AAEXPAVidUserInterface@@PBUrenderView_s@@@Z 100bf900 f   PlayerView.obj
 0001:000bf170       ?Flash@idPlayerView@@QAEXVidVec4@@H@Z 100c0170 f   PlayerView.obj
 0001:000bf210       ?Fade@idPlayerView@@QAEXVidVec4@@H@Z 100c0210 f   PlayerView.obj
 0001:000bf350       ?ScreenFade@idPlayerView@@AAEXXZ 100c0350 f   PlayerView.obj
 0001:000bf560       ?RenderPlayerView@idPlayerView@@QAEXPAVidUserInterface@@@Z 100c0560 f   PlayerView.obj
 0001:000bf680       ?Zero@idVec4@@QAEXXZ       100c0680 f i PlayerView.obj
 0001:000bf6e0       ??HidVec4@@QBE?AV0@ABV0@@Z 100c06e0 f i PlayerView.obj
 0001:000bf770       ?CreateInstance@idProjectile@@SAPAVidClass@@XZ 100c0770 f   Projectile.obj
 0001:000bf860       ?GetType@idProjectile@@UBEPAVidTypeInfo@@XZ 100c0860 f   Projectile.obj
 0001:000bf890       ??0idProjectile@@QAE@XZ    100c0890 f   Projectile.obj
 0001:000bfa70       ??_EidProjectile@@UAEPAXI@Z 100c0a70 f i Projectile.obj
 0001:000bfa70       ??_GidProjectile@@UAEPAXI@Z 100c0a70 f i Projectile.obj
 0001:000bfad0       ?Spawn@idProjectile@@QAEXXZ 100c0ad0 f   Projectile.obj
 0001:000bfc70       ?Save@idProjectile@@QBEXPAVidSaveGame@@@Z 100c0c70 f   Projectile.obj
 0001:000bfe10       ?Restore@idProjectile@@QAEXPAVidRestoreGame@@@Z 100c0e10 f   Projectile.obj
 0001:000c00a0       ?GetOwner@idProjectile@@QBEPAVidEntity@@XZ 100c10a0 f   Projectile.obj
 0001:000c00f0       ?Create@idProjectile@@QAEXPAVidEntity@@ABVidVec3@@1@Z 100c10f0 f   Projectile.obj
 0001:000c0540       ??1idProjectile@@UAE@XZ    100c1540 f   Projectile.obj
 0001:000c05f0       ?FreeLightDef@idProjectile@@UAEXXZ 100c15f0 f   Projectile.obj
 0001:000c0670       ?Launch@idProjectile@@UAEXABVidVec3@@00MMM@Z 100c1670 f   Projectile.obj
 0001:000c1050       ?Think@idProjectile@@UAEXXZ 100c2050 f   Projectile.obj
 0001:000c14d0       ?GetMSec@idGameLocal@@QBEHXZ 100c24d0 f i Projectile.obj
 0001:000c1500       ?Collide@idProjectile@@UAE_NABUtrace_s@@ABVidVec3@@@Z 100c2500 f   Projectile.obj
 0001:000c1b50       ?DefaultDamageEffect@idProjectile@@SAXPAVidEntity@@ABVidDict@@ABUtrace_s@@ABVidVec3@@@Z 100c2b50 f   Projectile.obj
 0001:000c1ce0       ?AddDefaultDamageEffect@idProjectile@@AAEXABUtrace_s@@ABVidVec3@@@Z 100c2ce0 f   Projectile.obj
 0001:000c1f40       ?Killed@idProjectile@@UAEXPAVidEntity@@0HABVidVec3@@H@Z 100c2f40 f   Projectile.obj
 0001:000c2100       ?Fizzle@idProjectile@@QAEXXZ 100c3100 f   Projectile.obj
 0001:000c22a0       ?Event_RadiusDamage@idProjectile@@AAEXPAVidEntity@@@Z 100c32a0 f   Projectile.obj
 0001:000c2360       ?Event_GetProjectileState@idProjectile@@AAEXXZ 100c3360 f   Projectile.obj
 0001:000c23b0       ?Explode@idProjectile@@UAEXABUtrace_s@@PAVidEntity@@@Z 100c33b0 f   Projectile.obj
 0001:000c2e00       ?GetVelocity@idProjectile@@SA?AVidVec3@@PBVidDict@@@Z 100c3e00 f   Projectile.obj
 0001:000c2ea0       ?GetGravity@idProjectile@@SA?AVidVec3@@PBVidDict@@@Z 100c3ea0 f   Projectile.obj
 0001:000c2f00       ?Event_Explode@idProjectile@@AAEXXZ 100c3f00 f   Projectile.obj
 0001:000c3060       ?Event_Fizzle@idProjectile@@AAEXXZ 100c4060 f   Projectile.obj
 0001:000c30a0       ?Event_Touch@idProjectile@@AAEXPAVidEntity@@PAUtrace_s@@@Z 100c40a0 f   Projectile.obj
 0001:000c3230       ?ClientPredictionCollide@idProjectile@@SA_NPAVidEntity@@ABVidDict@@ABUtrace_s@@ABVidVec3@@_N@Z 100c4230 f   Projectile.obj
 0001:000c33a0       ?ClientPredictionThink@idProjectile@@UAEXXZ 100c43a0 f   Projectile.obj
 0001:000c3400       ?WriteToSnapshot@idProjectile@@UBEXAAVidBitMsgDelta@@@Z 100c4400 f   Projectile.obj
 0001:000c35c0       ?ReadFromSnapshot@idProjectile@@UAEXABVidBitMsgDelta@@@Z 100c45c0 f   Projectile.obj
 0001:000c3af0       ?ClientReceiveEvent@idProjectile@@UAE_NHHABVidBitMsg@@@Z 100c4af0 f   Projectile.obj
 0001:000c3d30       ?CreateInstance@idGuidedProjectile@@SAPAVidClass@@XZ 100c4d30 f   Projectile.obj
 0001:000c3e20       ?GetType@idGuidedProjectile@@UBEPAVidTypeInfo@@XZ 100c4e20 f   Projectile.obj
 0001:000c3e50       ??0idGuidedProjectile@@QAE@XZ 100c4e50 f   Projectile.obj
 0001:000c3fb0       ??_GidGuidedProjectile@@UAEPAXI@Z 100c4fb0 f i Projectile.obj
 0001:000c3fb0       ??_EidGuidedProjectile@@UAEPAXI@Z 100c4fb0 f i Projectile.obj
 0001:000c4010       ??1idGuidedProjectile@@UAE@XZ 100c5010 f   Projectile.obj
 0001:000c4060       ?Spawn@idGuidedProjectile@@QAEXXZ 100c5060 f   Projectile.obj
 0001:000c4090       ?Save@idGuidedProjectile@@QBEXPAVidSaveGame@@@Z 100c5090 f   Projectile.obj
 0001:000c41a0       ?Restore@idGuidedProjectile@@QAEXPAVidRestoreGame@@@Z 100c51a0 f   Projectile.obj
 0001:000c42b0       ?GetSeekPos@idGuidedProjectile@@MAEXAAVidVec3@@@Z 100c52b0 f   Projectile.obj
 0001:000c4400       ?Think@idGuidedProjectile@@UAEXXZ 100c5400 f   Projectile.obj
 0001:000c49e0       ?Launch@idGuidedProjectile@@UAEXABVidVec3@@00MMM@Z 100c59e0 f   Projectile.obj
 0001:000c4d80       ?CreateInstance@idSoulCubeMissile@@SAPAVidClass@@XZ 100c5d80 f   Projectile.obj
 0001:000c4e70       ??0idSoulCubeMissile@@QAE@XZ 100c5e70 f i Projectile.obj
 0001:000c4f20       ??_GidSoulCubeMissile@@UAEPAXI@Z 100c5f20 f i Projectile.obj
 0001:000c4f20       ??_EidSoulCubeMissile@@UAEPAXI@Z 100c5f20 f i Projectile.obj
 0001:000c4f80       ?GetType@idSoulCubeMissile@@UBEPAVidTypeInfo@@XZ 100c5f80 f   Projectile.obj
 0001:000c4fb0       ?Spawn@idSoulCubeMissile@@QAEXXZ 100c5fb0 f   Projectile.obj
 0001:000c5050       ??1idSoulCubeMissile@@UAE@XZ 100c6050 f   Projectile.obj
 0001:000c50a0       ?Save@idSoulCubeMissile@@QBEXPAVidSaveGame@@@Z 100c60a0 f   Projectile.obj
 0001:000c51a0       ?Restore@idSoulCubeMissile@@QAEXPAVidRestoreGame@@@Z 100c61a0 f   Projectile.obj
 0001:000c52a0       ?KillTarget@idSoulCubeMissile@@IAEXABVidVec3@@@Z 100c62a0 f   Projectile.obj
 0001:000c54e0       ?SetTimeScale@idPhysics_AF@@QAEXM@Z 100c64e0 f i Projectile.obj
 0001:000c5520       ?Think@idSoulCubeMissile@@UAEXXZ 100c6520 f   Projectile.obj
 0001:000c5840       ?GetSeekPos@idSoulCubeMissile@@MAEXAAVidVec3@@@Z 100c6840 f   Projectile.obj
 0001:000c5920       ?ReturnToOwner@idSoulCubeMissile@@IAEXXZ 100c6920 f   Projectile.obj
 0001:000c5990       ?Launch@idSoulCubeMissile@@UAEXABVidVec3@@00MMM@Z 100c6990 f   Projectile.obj
 0001:000c5ca0       ?CreateInstance@idBFGProjectile@@SAPAVidClass@@XZ 100c6ca0 f   Projectile.obj
 0001:000c5d90       ?GetType@idBFGProjectile@@UBEPAVidTypeInfo@@XZ 100c6d90 f   Projectile.obj
 0001:000c5dc0       ??0idBFGProjectile@@QAE@XZ 100c6dc0 f   Projectile.obj
 0001:000c5ea0       ??_EidBFGProjectile@@UAEPAXI@Z 100c6ea0 f i Projectile.obj
 0001:000c5ea0       ??_GidBFGProjectile@@UAEPAXI@Z 100c6ea0 f i Projectile.obj
 0001:000c5f00       ??1idBFGProjectile@@UAE@XZ 100c6f00 f   Projectile.obj
 0001:000c5fe0       ?Spawn@idBFGProjectile@@QAEXXZ 100c6fe0 f   Projectile.obj
 0001:000c6150       ?Save@idBFGProjectile@@QBEXPAVidSaveGame@@@Z 100c7150 f   Projectile.obj
 0001:000c6270       ?Restore@idBFGProjectile@@QAEXPAVidRestoreGame@@@Z 100c7270 f   Projectile.obj
 0001:000c6460       ?FreeBeams@idBFGProjectile@@AAEXXZ 100c7460 f   Projectile.obj
 0001:000c6550       ?EnableBFGVision@idPlayerView@@QAEX_N@Z 100c7550 f i Projectile.obj
 0001:000c6590       ?Think@idBFGProjectile@@UAEXXZ 100c7590 f   Projectile.obj
 0001:000c6c30       ?Launch@idBFGProjectile@@UAEXABVidVec3@@00MMM@Z 100c7c30 f   Projectile.obj
 0001:000c7330       ??0beamTarget_t@@QAE@XZ    100c8330 f i Projectile.obj
 0001:000c7380       ?Event_RemoveBeams@idBFGProjectile@@AAEXXZ 100c8380 f   Projectile.obj
 0001:000c73d0       ?Explode@idBFGProjectile@@UAEXABUtrace_s@@PAVidEntity@@@Z 100c83d0 f   Projectile.obj
 0001:000c7840       ?CreateInstance@idDebris@@SAPAVidClass@@XZ 100c8840 f   Projectile.obj
 0001:000c7930       ?GetType@idDebris@@UBEPAVidTypeInfo@@XZ 100c8930 f   Projectile.obj
 0001:000c7960       ?Spawn@idDebris@@QAEXXZ    100c8960 f   Projectile.obj
 0001:000c79d0       ?Create@idDebris@@QAEXPAVidEntity@@ABVidVec3@@ABVidMat3@@@Z 100c89d0 f   Projectile.obj
 0001:000c7ae0       ??0idDebris@@QAE@XZ        100c8ae0 f   Projectile.obj
 0001:000c7bb0       ??_GidDebris@@UAEPAXI@Z    100c8bb0 f i Projectile.obj
 0001:000c7bb0       ??_EidDebris@@UAEPAXI@Z    100c8bb0 f i Projectile.obj
 0001:000c7c10       ??1idDebris@@UAE@XZ        100c8c10 f   Projectile.obj
 0001:000c7ca0       ?Save@idDebris@@QBEXPAVidSaveGame@@@Z 100c8ca0 f   Projectile.obj
 0001:000c7d40       ?Restore@idDebris@@QAEXPAVidRestoreGame@@@Z 100c8d40 f   Projectile.obj
 0001:000c7de0       ?Launch@idDebris@@QAEXXZ   100c8de0 f   Projectile.obj
 0001:000c8740       ?Think@idDebris@@UAEXXZ    100c9740 f   Projectile.obj
 0001:000c8850       ?Killed@idDebris@@UAEXPAVidEntity@@0HABVidVec3@@H@Z 100c9850 f   Projectile.obj
 0001:000c88c0       ?Collide@idDebris@@UAE_NABUtrace_s@@ABVidVec3@@@Z 100c98c0 f   Projectile.obj
 0001:000c8930       ?Fizzle@idDebris@@QAEXXZ   100c9930 f   Projectile.obj
 0001:000c8b20       ?Explode@idDebris@@QAEXXZ  100c9b20 f   Projectile.obj
 0001:000c8d20       ?Event_Explode@idDebris@@AAEXXZ 100c9d20 f   Projectile.obj
 0001:000c8d60       ?Event_Fizzle@idDebris@@AAEXXZ 100c9d60 f   Projectile.obj
 0001:000c8da0       ?GetSpawnId@?$idEntityPtr@VidEntity@@@@QBEHXZ 100c9da0 f i Projectile.obj
 0001:000c8dd0       ?GetEntityNum@?$idEntityPtr@VidEntity@@@@QBEHXZ 100c9dd0 f i Projectile.obj
 0001:000c8e10       ??0?$idList@UbeamTarget_t@@@@QAE@H@Z 100c9e10 f i Projectile.obj
 0001:000c8e90       ??1?$idList@UbeamTarget_t@@@@QAE@XZ 100c9e90 f i Projectile.obj
 0001:000c8ed0       ?Clear@?$idList@UbeamTarget_t@@@@QAEXXZ 100c9ed0 f i Projectile.obj
 0001:000c8f50       ?Num@?$idList@UbeamTarget_t@@@@QBEHXZ 100c9f50 f i Projectile.obj
 0001:000c8f80       ??A?$idList@UbeamTarget_t@@@@QAEAAUbeamTarget_t@@H@Z 100c9f80 f i Projectile.obj
 0001:000c9010       ??A?$idList@UbeamTarget_t@@@@QBEABUbeamTarget_t@@H@Z 100ca010 f i Projectile.obj
 0001:000c90a0       ?SetNum@?$idList@UbeamTarget_t@@@@QAEXH_N@Z 100ca0a0 f i Projectile.obj
 0001:000c9120       ?Append@?$idList@UbeamTarget_t@@@@QAEHABUbeamTarget_t@@@Z 100ca120 f i Projectile.obj
 0001:000c91f0       ??4beamTarget_t@@QAEAAU0@ABU0@@Z 100ca1f0 f i Projectile.obj
 0001:000c9260       ?Resize@?$idList@UbeamTarget_t@@@@QAEXH@Z 100ca260 f i Projectile.obj
 0001:000c9410       ?WriteFloat@idBitMsg@@QAEXMHH@Z 100ca410 f i Projectile.obj
 0001:000c9480       ?ReadFloat@idBitMsg@@QBEMHH@Z 100ca480 f i Projectile.obj
 0001:000c94f0       ?WriteDeltaFloat@idBitMsgDelta@@QAEXMMHH@Z 100ca4f0 f i Projectile.obj
 0001:000c9580       ?ReadDeltaFloat@idBitMsgDelta@@QBEMMHH@Z 100ca580 f i Projectile.obj
 0001:000c9600       ??0idPVS@@QAE@XZ           100ca600 f   Pvs.obj
 0001:000c96d0       ??1idPVS@@QAE@XZ           100ca6d0 f   Pvs.obj
 0001:000c9710       ?GetPortalCount@idPVS@@ABEHXZ 100ca710 f   Pvs.obj
 0001:000c97b0       ?CreatePVSData@idPVS@@AAEXXZ 100ca7b0 f   Pvs.obj
 0001:000c9ba0       ??0pvsPortal_s@@QAE@XZ     100caba0 f i Pvs.obj
 0001:000c9bf0       ??0pvsArea_s@@QAE@XZ       100cabf0 f i Pvs.obj
 0001:000c9c40       ?DestroyPVSData@idPVS@@AAEXXZ 100cac40 f   Pvs.obj
 0001:000c9dd0       ?FloodFrontPortalPVS_r@idPVS@@ABEXPAUpvsPortal_s@@H@Z 100cadd0 f   Pvs.obj
 0001:000c9ef0       ?FrontPortalPVS@idPVS@@ABEXXZ 100caef0 f   Pvs.obj
 0001:000ca1b0       ?FloodPassagePVS_r@idPVS@@ABEPAUpvsStack_s@@PAUpvsPortal_s@@PBU3@PAU2@@Z 100cb1b0 f   Pvs.obj
 0001:000ca490       ?PassagePVS@idPVS@@ABEXXZ  100cb490 f   Pvs.obj
 0001:000ca5d0       ?AddPassageBoundaries@idPVS@@ABEXABVidWinding@@0_NPAVidPlane@@AAHH@Z 100cb5d0 f   Pvs.obj
 0001:000caa50       ?CreatePassages@idPVS@@ABEXXZ 100cba50 f   Pvs.obj
 0001:000caf70       ?DestroyPassages@idPVS@@ABEXXZ 100cbf70 f   Pvs.obj
 0001:000cb060       ?CopyPortalPVSToMightSee@idPVS@@ABEXXZ 100cc060 f   Pvs.obj
 0001:000cb0f0       ?AreaPVSFromPortalPVS@idPVS@@ABEHXZ 100cc0f0 f   Pvs.obj
 0001:000cb3a0       ?Init@idPVS@@QAEXXZ        100cc3a0 f   Pvs.obj
 0001:000cb6e0       ?Shutdown@idPVS@@QAEXXZ    100cc6e0 f   Pvs.obj
 0001:000cb800       ?GetConnectedAreas@idPVS@@ABEXHPA_N@Z 100cc800 f   Pvs.obj
 0001:000cb980       ?GetPVSArea@idPVS@@QBEHABVidVec3@@@Z 100cc980 f   Pvs.obj
 0001:000cb9e0       ?GetPVSAreas@idPVS@@QBEHABVidBounds@@PAHH@Z 100cc9e0 f   Pvs.obj
 0001:000cba40       ?SetupCurrentPVS@idPVS@@QBE?AUpvsHandle_s@@ABVidVec3@@W4pvsType_t@@@Z 100cca40 f   Pvs.obj
 0001:000cbac0       ?SetupCurrentPVS@idPVS@@QBE?AUpvsHandle_s@@ABVidBounds@@W4pvsType_t@@@Z 100ccac0 f   Pvs.obj
 0001:000cbb70       ?SetupCurrentPVS@idPVS@@QBE?AUpvsHandle_s@@HW4pvsType_t@@@Z 100ccb70 f   Pvs.obj
 0001:000cbd60       ?SetupCurrentPVS@idPVS@@QBE?AUpvsHandle_s@@PBHHW4pvsType_t@@@Z 100ccd60 f   Pvs.obj
 0001:000cc090       ?MergeCurrentPVS@idPVS@@QBE?AUpvsHandle_s@@U2@0@Z 100cd090 f   Pvs.obj
 0001:000cc200       ?AllocCurrentPVS@idPVS@@ABE?AUpvsHandle_s@@I@Z 100cd200 f   Pvs.obj
 0001:000cc300       ?FreeCurrentPVS@idPVS@@QBEXUpvsHandle_s@@@Z 100cd300 f   Pvs.obj
 0001:000cc380       ?InCurrentPVS@idPVS@@QBE_NUpvsHandle_s@@ABVidVec3@@@Z 100cd380 f   Pvs.obj
 0001:000cc440       ?InCurrentPVS@idPVS@@QBE_NUpvsHandle_s@@ABVidBounds@@@Z 100cd440 f   Pvs.obj
 0001:000cc560       ?InCurrentPVS@idPVS@@QBE_NUpvsHandle_s@@H@Z 100cd560 f   Pvs.obj
 0001:000cc610       ?InCurrentPVS@idPVS@@QBE_NUpvsHandle_s@@PBHH@Z 100cd610 f   Pvs.obj
 0001:000cc6f0       ?DrawPVS@idPVS@@QBEXABVidVec3@@W4pvsType_t@@@Z 100cd6f0 f   Pvs.obj
 0001:000cc9f0       ?DrawPVS@idPVS@@QBEXABVidBounds@@W4pvsType_t@@@Z 100cd9f0 f   Pvs.obj
 0001:000ccd50       ?DrawCurrentPVS@idPVS@@QBEXUpvsHandle_s@@ABVidVec3@@@Z 100cdd50 f   Pvs.obj
 0001:000cd030       ??GidPlane@@QBE?AV0@XZ     100ce030 f i Pvs.obj
 0001:000cd0b0       ??0idPlane@@QAE@MMMM@Z     100ce0b0 f i Pvs.obj
 0001:000cd110       ?Compare@idPlane@@QBE_NABV1@MM@Z 100ce110 f i Pvs.obj
 0001:000cd1a0       ?Compare@idVec3@@QBE_NABV1@M@Z 100ce1a0 f i Pvs.obj
 0001:000cd250       ?Normal@idPlane@@QBEABVidVec3@@XZ 100ce250 f i Pvs.obj
 0001:000cd280       ?SetDist@idPlane@@QAEXM@Z  100ce280 f i Pvs.obj
 0001:000cd2c0       ??4idFixedWinding@@QAEAAV0@ABVidWinding@@@Z 100ce2c0 f i Pvs.obj
 0001:000cd390       ?CreateInstance@idSecurityCamera@@SAPAVidClass@@XZ 100ce390 f   SecurityCamera.obj
 0001:000cd480       ??0idSecurityCamera@@QAE@XZ 100ce480 f i SecurityCamera.obj
 0001:000cd530       ??_EidSecurityCamera@@UAEPAXI@Z 100ce530 f i SecurityCamera.obj
 0001:000cd530       ??_GidSecurityCamera@@UAEPAXI@Z 100ce530 f i SecurityCamera.obj
 0001:000cd590       ??1idSecurityCamera@@UAE@XZ 100ce590 f i SecurityCamera.obj
 0001:000cd610       ?GetType@idSecurityCamera@@UBEPAVidTypeInfo@@XZ 100ce610 f   SecurityCamera.obj
 0001:000cd640       ?Save@idSecurityCamera@@QBEXPAVidSaveGame@@@Z 100ce640 f   SecurityCamera.obj
 0001:000cd7b0       ?Restore@idSecurityCamera@@QAEXPAVidRestoreGame@@@Z 100ce7b0 f   SecurityCamera.obj
 0001:000cd910       ?Spawn@idSecurityCamera@@QAEXXZ 100ce910 f   SecurityCamera.obj
 0001:000cdd90       ?abs@@YAMM@Z               100ced90 f i SecurityCamera.obj
 0001:000cddd0       ?Event_AddLight@idSecurityCamera@@AAEXXZ 100cedd0 f   SecurityCamera.obj
 0001:000ce270       ?DrawFov@idSecurityCamera@@AAEXXZ 100cf270 f   SecurityCamera.obj
 0001:000ce980       ?GetRenderView@idSecurityCamera@@UAEPAUrenderView_s@@XZ 100cf980 f   SecurityCamera.obj
 0001:000cea70       ?CanSeePlayer@idSecurityCamera@@AAE_NXZ 100cfa70 f   SecurityCamera.obj
 0001:000cedb0       ?SetAlertMode@idSecurityCamera@@AAEXH@Z 100cfdb0 f   SecurityCamera.obj
 0001:000cee20       ?Think@idSecurityCamera@@UAEXXZ 100cfe20 f   SecurityCamera.obj
 0001:000cf0c0       ?GetAxis@idSecurityCamera@@ABE?BVidVec3@@XZ 100d00c0 f   SecurityCamera.obj
 0001:000cf1d0       ?SweepSpeed@idSecurityCamera@@ABEMXZ 100d01d0 f   SecurityCamera.obj
 0001:000cf220       ?StartSweep@idSecurityCamera@@AAEXXZ 100d0220 f   SecurityCamera.obj
 0001:000cf2d0       ?Event_ContinueSweep@idSecurityCamera@@AAEXXZ 100d02d0 f   SecurityCamera.obj
 0001:000cf3e0       ?Event_Alert@idSecurityCamera@@AAEXXZ 100d03e0 f   SecurityCamera.obj
 0001:000cf490       ?Event_ReverseSweep@idSecurityCamera@@AAEXXZ 100d0490 f   SecurityCamera.obj
 0001:000cf530       ?Event_Pause@idSecurityCamera@@AAEXXZ 100d0530 f   SecurityCamera.obj
 0001:000cf5c0       ?Killed@idSecurityCamera@@UAEXPAVidEntity@@0HABVidVec3@@H@Z 100d05c0 f   SecurityCamera.obj
 0001:000cf870       ?Pain@idSecurityCamera@@UAE_NPAVidEntity@@0HABVidVec3@@H@Z 100d0870 f   SecurityCamera.obj
 0001:000cf8f0       ?Present@idSecurityCamera@@UAEXXZ 100d08f0 f   SecurityCamera.obj
 0001:000cfa00       ??0idSmokeParticles@@QAE@XZ 100d0a00 f   SmokeParticles.obj
 0001:000cfae0       ??0singleSmoke_s@@QAE@XZ   100d0ae0 f i SmokeParticles.obj
 0001:000cfb40       ?Init@idSmokeParticles@@QAEXXZ 100d0b40 f   SmokeParticles.obj
 0001:000cfd50       ?Shutdown@idSmokeParticles@@QAEXXZ 100d0d50 f   SmokeParticles.obj
 0001:000cfe00       ?FreeSmokes@idSmokeParticles@@QAEXXZ 100d0e00 f   SmokeParticles.obj
 0001:000cff70       ?EmitSmoke@idSmokeParticles@@QAE_NPBVidDeclParticle@@HMABVidVec3@@ABVidMat3@@@Z 100d0f70 f   SmokeParticles.obj
 0001:000d0440       ?UpdateRenderEntity@idSmokeParticles@@AAE_NPAUrenderEntity_s@@PBUrenderView_s@@@Z 100d1440 f   SmokeParticles.obj
 0001:000d0a30       ??0particleGen_t@@QAE@XZ   100d1a30 f i SmokeParticles.obj
 0001:000d0aa0       ?ModelCallback@idSmokeParticles@@CA_NPAUrenderEntity_s@@PBUrenderView_s@@@Z 100d1aa0 f   SmokeParticles.obj
 0001:000d0b00       ?Num@?$idList@PAVidParticleStage@@@@QBEHXZ 100d1b00 f i SmokeParticles.obj
 0001:000d0b30       ??A?$idList@PAVidParticleStage@@@@QBEABQAVidParticleStage@@H@Z 100d1b30 f i SmokeParticles.obj
 0001:000d0bc0       ??0?$idList@UactiveSmokeStage_t@@@@QAE@H@Z 100d1bc0 f i SmokeParticles.obj
 0001:000d0c40       ?Num@?$idList@UactiveSmokeStage_t@@@@QBEHXZ 100d1c40 f i SmokeParticles.obj
 0001:000d0c70       ??A?$idList@UactiveSmokeStage_t@@@@QAEAAUactiveSmokeStage_t@@H@Z 100d1c70 f i SmokeParticles.obj
 0001:000d0d00       ?Append@?$idList@UactiveSmokeStage_t@@@@QAEHABUactiveSmokeStage_t@@@Z 100d1d00 f i SmokeParticles.obj
 0001:000d0dd0       ?RemoveIndex@?$idList@UactiveSmokeStage_t@@@@QAE_NH@Z 100d1dd0 f i SmokeParticles.obj
 0001:000d0ed0       ?Resize@?$idList@UactiveSmokeStage_t@@@@QAEXH@Z 100d1ed0 f i SmokeParticles.obj
 0001:000d1000       ?CreateInstance@idSound@@SAPAVidClass@@XZ 100d2000 f   Sound.obj
 0001:000d10f0       ?GetType@idSound@@UBEPAVidTypeInfo@@XZ 100d20f0 f   Sound.obj
 0001:000d1120       ??0idSound@@QAE@XZ         100d2120 f   Sound.obj
 0001:000d1220       ??_EidSound@@UAEPAXI@Z     100d2220 f i Sound.obj
 0001:000d1220       ??_GidSound@@UAEPAXI@Z     100d2220 f i Sound.obj
 0001:000d1280       ??1idSound@@UAE@XZ         100d2280 f i Sound.obj
 0001:000d12c0       ?Save@idSound@@QBEXPAVidSaveGame@@@Z 100d22c0 f   Sound.obj
 0001:000d1390       ?Restore@idSound@@QAEXPAVidRestoreGame@@@Z 100d2390 f   Sound.obj
 0001:000d1460       ?Spawn@idSound@@QAEXXZ     100d2460 f   Sound.obj
 0001:000d1670       ?Event_Trigger@idSound@@AAEXPAVidEntity@@@Z 100d2670 f   Sound.obj
 0001:000d17c0       ?Event_Timer@idSound@@AAEXXZ 100d27c0 f   Sound.obj
 0001:000d1830       ?Think@idSound@@UAEXXZ     100d2830 f   Sound.obj
 0001:000d18b0       ?UpdateChangeableSpawnArgs@idSound@@UAEXPBVidDict@@@Z 100d28b0 f   Sound.obj
 0001:000d1c20       ?SetSound@idSound@@QAEXPBDH@Z 100d2c20 f   Sound.obj
 0001:000d1d20       ?DoSound@idSound@@AAEX_N@Z 100d2d20 f   Sound.obj
 0001:000d1dc0       ?Event_On@idSound@@AAEXXZ  100d2dc0 f   Sound.obj
 0001:000d1e50       ?Event_Off@idSound@@AAEXXZ 100d2e50 f   Sound.obj
 0001:000d1ec0       ?ShowEditingDialog@idSound@@UAEXXZ 100d2ec0 f   Sound.obj
 0001:000d1f20       ??9idAngles@@QBE_NABV0@@Z  100d2f20 f i Sound.obj
 0001:000d1f70       ?CreateInstance@idTarget@@SAPAVidClass@@XZ 100d2f70 f   Target.obj
 0001:000d2060       ??0idTarget@@QAE@XZ        100d3060 f i Target.obj
 0001:000d20b0       ??_EidTarget@@UAEPAXI@Z    100d30b0 f i Target.obj
 0001:000d20b0       ??_GidTarget@@UAEPAXI@Z    100d30b0 f i Target.obj
 0001:000d2110       ??1idTarget@@UAE@XZ        100d3110 f i Target.obj
 0001:000d2150       ?GetType@idTarget@@UBEPAVidTypeInfo@@XZ 100d3150 f   Target.obj
 0001:000d2180       ?CreateInstance@idTarget_Remove@@SAPAVidClass@@XZ 100d3180 f   Target.obj
 0001:000d2270       ??0idTarget_Remove@@QAE@XZ 100d3270 f i Target.obj
 0001:000d22c0       ??_EidTarget_Remove@@UAEPAXI@Z 100d32c0 f i Target.obj
 0001:000d22c0       ??_GidTarget_Remove@@UAEPAXI@Z 100d32c0 f i Target.obj
 0001:000d2320       ??1idTarget_Remove@@UAE@XZ 100d3320 f i Target.obj
 0001:000d2360       ?GetType@idTarget_Remove@@UBEPAVidTypeInfo@@XZ 100d3360 f   Target.obj
 0001:000d2390       ?Event_Activate@idTarget_Remove@@AAEXPAVidEntity@@@Z 100d3390 f   Target.obj
 0001:000d2430       ?CreateInstance@idTarget_Show@@SAPAVidClass@@XZ 100d3430 f   Target.obj
 0001:000d2520       ??0idTarget_Show@@QAE@XZ   100d3520 f i Target.obj
 0001:000d2570       ??_GidTarget_Show@@UAEPAXI@Z 100d3570 f i Target.obj
 0001:000d2570       ??_EidTarget_Show@@UAEPAXI@Z 100d3570 f i Target.obj
 0001:000d25d0       ??1idTarget_Show@@UAE@XZ   100d35d0 f i Target.obj
 0001:000d2610       ?GetType@idTarget_Show@@UBEPAVidTypeInfo@@XZ 100d3610 f   Target.obj
 0001:000d2640       ?Event_Activate@idTarget_Show@@AAEXPAVidEntity@@@Z 100d3640 f   Target.obj
 0001:000d26f0       ?CreateInstance@idTarget_Damage@@SAPAVidClass@@XZ 100d36f0 f   Target.obj
 0001:000d27e0       ??0idTarget_Damage@@QAE@XZ 100d37e0 f i Target.obj
 0001:000d2830       ??_EidTarget_Damage@@UAEPAXI@Z 100d3830 f i Target.obj
 0001:000d2830       ??_GidTarget_Damage@@UAEPAXI@Z 100d3830 f i Target.obj
 0001:000d2890       ??1idTarget_Damage@@UAE@XZ 100d3890 f i Target.obj
 0001:000d28d0       ?GetType@idTarget_Damage@@UBEPAVidTypeInfo@@XZ 100d38d0 f   Target.obj
 0001:000d2900       ?Event_Activate@idTarget_Damage@@AAEXPAVidEntity@@@Z 100d3900 f   Target.obj
 0001:000d29d0       ?CreateInstance@idTarget_SessionCommand@@SAPAVidClass@@XZ 100d39d0 f   Target.obj
 0001:000d2ac0       ??0idTarget_SessionCommand@@QAE@XZ 100d3ac0 f i Target.obj
 0001:000d2b10       ??_EidTarget_SessionCommand@@UAEPAXI@Z 100d3b10 f i Target.obj
 0001:000d2b10       ??_GidTarget_SessionCommand@@UAEPAXI@Z 100d3b10 f i Target.obj
 0001:000d2b70       ??1idTarget_SessionCommand@@UAE@XZ 100d3b70 f i Target.obj
 0001:000d2bb0       ?GetType@idTarget_SessionCommand@@UBEPAVidTypeInfo@@XZ 100d3bb0 f   Target.obj
 0001:000d2be0       ?Event_Activate@idTarget_SessionCommand@@AAEXPAVidEntity@@@Z 100d3be0 f   Target.obj
 0001:000d2c40       ?CreateInstance@idTarget_EndLevel@@SAPAVidClass@@XZ 100d3c40 f   Target.obj
 0001:000d2d30       ??0idTarget_EndLevel@@QAE@XZ 100d3d30 f i Target.obj
 0001:000d2d80       ??_GidTarget_EndLevel@@UAEPAXI@Z 100d3d80 f i Target.obj
 0001:000d2d80       ??_EidTarget_EndLevel@@UAEPAXI@Z 100d3d80 f i Target.obj
 0001:000d2de0       ??1idTarget_EndLevel@@UAE@XZ 100d3de0 f i Target.obj
 0001:000d2e20       ?GetType@idTarget_EndLevel@@UBEPAVidTypeInfo@@XZ 100d3e20 f   Target.obj
 0001:000d2e50       ?Event_Activate@idTarget_EndLevel@@AAEXPAVidEntity@@@Z 100d3e50 f   Target.obj
 0001:000d2fe0       ?CreateInstance@idTarget_WaitForButton@@SAPAVidClass@@XZ 100d3fe0 f   Target.obj
 0001:000d30d0       ??0idTarget_WaitForButton@@QAE@XZ 100d40d0 f i Target.obj
 0001:000d3120       ??_EidTarget_WaitForButton@@UAEPAXI@Z 100d4120 f i Target.obj
 0001:000d3120       ??_GidTarget_WaitForButton@@UAEPAXI@Z 100d4120 f i Target.obj
 0001:000d3180       ??1idTarget_WaitForButton@@UAE@XZ 100d4180 f i Target.obj
 0001:000d31c0       ?GetType@idTarget_WaitForButton@@UBEPAVidTypeInfo@@XZ 100d41c0 f   Target.obj
 0001:000d31f0       ?Event_Activate@idTarget_WaitForButton@@AAEXPAVidEntity@@@Z 100d41f0 f   Target.obj
 0001:000d3260       ?Think@idTarget_WaitForButton@@UAEXXZ 100d4260 f   Target.obj
 0001:000d3320       ?CreateInstance@idTarget_SetGlobalShaderTime@@SAPAVidClass@@XZ 100d4320 f   Target.obj
 0001:000d3410       ??0idTarget_SetGlobalShaderTime@@QAE@XZ 100d4410 f i Target.obj
 0001:000d3460       ??_EidTarget_SetGlobalShaderTime@@UAEPAXI@Z 100d4460 f i Target.obj
 0001:000d3460       ??_GidTarget_SetGlobalShaderTime@@UAEPAXI@Z 100d4460 f i Target.obj
 0001:000d34c0       ??1idTarget_SetGlobalShaderTime@@UAE@XZ 100d44c0 f i Target.obj
 0001:000d3500       ?GetType@idTarget_SetGlobalShaderTime@@UBEPAVidTypeInfo@@XZ 100d4500 f   Target.obj
 0001:000d3530       ?Event_Activate@idTarget_SetGlobalShaderTime@@AAEXPAVidEntity@@@Z 100d4530 f   Target.obj
 0001:000d35b0       ?CreateInstance@idTarget_SetShaderParm@@SAPAVidClass@@XZ 100d45b0 f   Target.obj
 0001:000d36a0       ??0idTarget_SetShaderParm@@QAE@XZ 100d46a0 f i Target.obj
 0001:000d36f0       ??_GidTarget_SetShaderParm@@UAEPAXI@Z 100d46f0 f i Target.obj
 0001:000d36f0       ??_EidTarget_SetShaderParm@@UAEPAXI@Z 100d46f0 f i Target.obj
 0001:000d3750       ??1idTarget_SetShaderParm@@UAE@XZ 100d4750 f i Target.obj
 0001:000d3790       ?GetType@idTarget_SetShaderParm@@UBEPAVidTypeInfo@@XZ 100d4790 f   Target.obj
 0001:000d37c0       ?Event_Activate@idTarget_SetShaderParm@@AAEXPAVidEntity@@@Z 100d47c0 f   Target.obj
 0001:000d3a10       ?CreateInstance@idTarget_SetShaderTime@@SAPAVidClass@@XZ 100d4a10 f   Target.obj
 0001:000d3b00       ??0idTarget_SetShaderTime@@QAE@XZ 100d4b00 f i Target.obj
 0001:000d3b50       ??_EidTarget_SetShaderTime@@UAEPAXI@Z 100d4b50 f i Target.obj
 0001:000d3b50       ??_GidTarget_SetShaderTime@@UAEPAXI@Z 100d4b50 f i Target.obj
 0001:000d3bb0       ??1idTarget_SetShaderTime@@UAE@XZ 100d4bb0 f i Target.obj
 0001:000d3bf0       ?GetType@idTarget_SetShaderTime@@UBEPAVidTypeInfo@@XZ 100d4bf0 f   Target.obj
 0001:000d3c20       ?Event_Activate@idTarget_SetShaderTime@@AAEXPAVidEntity@@@Z 100d4c20 f   Target.obj
 0001:000d3cf0       ?CreateInstance@idTarget_FadeEntity@@SAPAVidClass@@XZ 100d4cf0 f   Target.obj
 0001:000d3de0       ?GetType@idTarget_FadeEntity@@UBEPAVidTypeInfo@@XZ 100d4de0 f   Target.obj
 0001:000d3e10       ??0idTarget_FadeEntity@@QAE@XZ 100d4e10 f   Target.obj
 0001:000d3ec0       ??_EidTarget_FadeEntity@@UAEPAXI@Z 100d4ec0 f i Target.obj
 0001:000d3ec0       ??_GidTarget_FadeEntity@@UAEPAXI@Z 100d4ec0 f i Target.obj
 0001:000d3f20       ??1idTarget_FadeEntity@@UAE@XZ 100d4f20 f i Target.obj
 0001:000d3f60       ?Save@idTarget_FadeEntity@@QBEXPAVidSaveGame@@@Z 100d4f60 f   Target.obj
 0001:000d3fd0       ?Restore@idTarget_FadeEntity@@QAEXPAVidRestoreGame@@@Z 100d4fd0 f   Target.obj
 0001:000d4040       ?Event_Activate@idTarget_FadeEntity@@AAEXPAVidEntity@@@Z 100d5040 f   Target.obj
 0001:000d4160       ?Think@idTarget_FadeEntity@@UAEXXZ 100d5160 f   Target.obj
 0001:000d4310       ?CreateInstance@idTarget_LightFadeIn@@SAPAVidClass@@XZ 100d5310 f   Target.obj
 0001:000d4400       ??0idTarget_LightFadeIn@@QAE@XZ 100d5400 f i Target.obj
 0001:000d4450       ??_EidTarget_LightFadeIn@@UAEPAXI@Z 100d5450 f i Target.obj
 0001:000d4450       ??_GidTarget_LightFadeIn@@UAEPAXI@Z 100d5450 f i Target.obj
 0001:000d44b0       ??1idTarget_LightFadeIn@@UAE@XZ 100d54b0 f i Target.obj
 0001:000d44f0       ?GetType@idTarget_LightFadeIn@@UBEPAVidTypeInfo@@XZ 100d54f0 f   Target.obj
 0001:000d4520       ?Event_Activate@idTarget_LightFadeIn@@AAEXPAVidEntity@@@Z 100d5520 f   Target.obj
 0001:000d4630       ?CreateInstance@idTarget_LightFadeOut@@SAPAVidClass@@XZ 100d5630 f   Target.obj
 0001:000d4720       ??0idTarget_LightFadeOut@@QAE@XZ 100d5720 f i Target.obj
 0001:000d4770       ??_EidTarget_LightFadeOut@@UAEPAXI@Z 100d5770 f i Target.obj
 0001:000d4770       ??_GidTarget_LightFadeOut@@UAEPAXI@Z 100d5770 f i Target.obj
 0001:000d47d0       ??1idTarget_LightFadeOut@@UAE@XZ 100d57d0 f i Target.obj
 0001:000d4810       ?GetType@idTarget_LightFadeOut@@UBEPAVidTypeInfo@@XZ 100d5810 f   Target.obj
 0001:000d4840       ?Event_Activate@idTarget_LightFadeOut@@AAEXPAVidEntity@@@Z 100d5840 f   Target.obj
 0001:000d4950       ?CreateInstance@idTarget_Give@@SAPAVidClass@@XZ 100d5950 f   Target.obj
 0001:000d4a40       ??0idTarget_Give@@QAE@XZ   100d5a40 f i Target.obj
 0001:000d4a90       ??_GidTarget_Give@@UAEPAXI@Z 100d5a90 f i Target.obj
 0001:000d4a90       ??_EidTarget_Give@@UAEPAXI@Z 100d5a90 f i Target.obj
 0001:000d4af0       ??1idTarget_Give@@UAE@XZ   100d5af0 f i Target.obj
 0001:000d4b30       ?GetType@idTarget_Give@@UBEPAVidTypeInfo@@XZ 100d5b30 f   Target.obj
 0001:000d4b60       ?Spawn@idTarget_Give@@QAEXXZ 100d5b60 f   Target.obj
 0001:000d4bd0       ?Event_Activate@idTarget_Give@@AAEXPAVidEntity@@@Z 100d5bd0 f   Target.obj
 0001:000d4de0       ?CreateInstance@idTarget_GiveEmail@@SAPAVidClass@@XZ 100d5de0 f   Target.obj
 0001:000d4ed0       ??0idTarget_GiveEmail@@QAE@XZ 100d5ed0 f i Target.obj
 0001:000d4f20       ??_EidTarget_GiveEmail@@UAEPAXI@Z 100d5f20 f i Target.obj
 0001:000d4f20       ??_GidTarget_GiveEmail@@UAEPAXI@Z 100d5f20 f i Target.obj
 0001:000d4f80       ??1idTarget_GiveEmail@@UAE@XZ 100d5f80 f i Target.obj
 0001:000d4fc0       ?GetType@idTarget_GiveEmail@@UBEPAVidTypeInfo@@XZ 100d5fc0 f   Target.obj
 0001:000d4ff0       ?Spawn@idTarget_GiveEmail@@QAEXXZ 100d5ff0 f   Target.obj
 0001:000d5020       ?Event_Activate@idTarget_GiveEmail@@AAEXPAVidEntity@@@Z 100d6020 f   Target.obj
 0001:000d50d0       ?CreateInstance@idTarget_SetModel@@SAPAVidClass@@XZ 100d60d0 f   Target.obj
 0001:000d51c0       ??0idTarget_SetModel@@QAE@XZ 100d61c0 f i Target.obj
 0001:000d5210       ??_GidTarget_SetModel@@UAEPAXI@Z 100d6210 f i Target.obj
 0001:000d5210       ??_EidTarget_SetModel@@UAEPAXI@Z 100d6210 f i Target.obj
 0001:000d5270       ??1idTarget_SetModel@@UAE@XZ 100d6270 f i Target.obj
 0001:000d52b0       ?GetType@idTarget_SetModel@@UBEPAVidTypeInfo@@XZ 100d62b0 f   Target.obj
 0001:000d52e0       ?Spawn@idTarget_SetModel@@QAEXXZ 100d62e0 f   Target.obj
 0001:000d53a0       ?Event_Activate@idTarget_SetModel@@AAEXPAVidEntity@@@Z 100d63a0 f   Target.obj
 0001:000d5450       ?CreateInstance@idTarget_SetInfluence@@SAPAVidClass@@XZ 100d6450 f   Target.obj
 0001:000d5540       ?GetType@idTarget_SetInfluence@@UBEPAVidTypeInfo@@XZ 100d6540 f   Target.obj
 0001:000d5570       ??0idTarget_SetInfluence@@QAE@XZ 100d6570 f   Target.obj
 0001:000d56c0       ??_GidTarget_SetInfluence@@UAEPAXI@Z 100d66c0 f i Target.obj
 0001:000d56c0       ??_EidTarget_SetInfluence@@UAEPAXI@Z 100d66c0 f i Target.obj
 0001:000d5720       ??1idTarget_SetInfluence@@UAE@XZ 100d6720 f i Target.obj
 0001:000d5800       ?Save@idTarget_SetInfluence@@QBEXPAVidSaveGame@@@Z 100d6800 f   Target.obj
 0001:000d5ab0       ?Restore@idTarget_SetInfluence@@QAEXPAVidRestoreGame@@@Z 100d6ab0 f   Target.obj
 0001:000d5d50       ?Spawn@idTarget_SetInfluence@@QAEXXZ 100d6d50 f   Target.obj
 0001:000d5e60       ?Event_Flash@idTarget_SetInfluence@@AAEXMH@Z 100d6e60 f   Target.obj
 0001:000d6030       ?Event_ClearFlash@idTarget_SetInfluence@@AAEXM@Z 100d7030 f   Target.obj
 0001:000d60c0       ?Event_GatherEntities@idTarget_SetInfluence@@AAEXXZ 100d70c0 f   Target.obj
 0001:000d65c0       ?Event_Activate@idTarget_SetInfluence@@AAEXPAVidEntity@@@Z 100d75c0 f   Target.obj
 0001:000d6fb0       ??0idEventArg@@QAE@PBD@Z   100d7fb0 f i Target.obj
 0001:000d7000       ?Think@idTarget_SetInfluence@@EAEXXZ 100d8000 f   Target.obj
 0001:000d70e0       ?Event_RestoreInfluence@idTarget_SetInfluence@@AAEXXZ 100d80e0 f   Target.obj
 0001:000d7640       ?CreateInstance@idTarget_SetKeyVal@@SAPAVidClass@@XZ 100d8640 f   Target.obj
 0001:000d7730       ??0idTarget_SetKeyVal@@QAE@XZ 100d8730 f i Target.obj
 0001:000d7780       ??_EidTarget_SetKeyVal@@UAEPAXI@Z 100d8780 f i Target.obj
 0001:000d7780       ??_GidTarget_SetKeyVal@@UAEPAXI@Z 100d8780 f i Target.obj
 0001:000d77e0       ??1idTarget_SetKeyVal@@UAE@XZ 100d87e0 f i Target.obj
 0001:000d7820       ?GetType@idTarget_SetKeyVal@@UBEPAVidTypeInfo@@XZ 100d8820 f   Target.obj
 0001:000d7850       ?Event_Activate@idTarget_SetKeyVal@@AAEXPAVidEntity@@@Z 100d8850 f   Target.obj
 0001:000d7c00       ?CreateInstance@idTarget_SetFov@@SAPAVidClass@@XZ 100d8c00 f   Target.obj
 0001:000d7cf0       ??0idTarget_SetFov@@QAE@XZ 100d8cf0 f i Target.obj
 0001:000d7d80       ??_GidTarget_SetFov@@UAEPAXI@Z 100d8d80 f i Target.obj
 0001:000d7d80       ??_EidTarget_SetFov@@UAEPAXI@Z 100d8d80 f i Target.obj
 0001:000d7de0       ??1idTarget_SetFov@@UAE@XZ 100d8de0 f i Target.obj
 0001:000d7e20       ?GetType@idTarget_SetFov@@UBEPAVidTypeInfo@@XZ 100d8e20 f   Target.obj
 0001:000d7e50       ?Save@idTarget_SetFov@@QBEXPAVidSaveGame@@@Z 100d8e50 f   Target.obj
 0001:000d7f00       ?Restore@idTarget_SetFov@@QAEXPAVidRestoreGame@@@Z 100d8f00 f   Target.obj
 0001:000d8020       ?Event_Activate@idTarget_SetFov@@AAEXPAVidEntity@@@Z 100d9020 f   Target.obj
 0001:000d8130       ?Think@idTarget_SetFov@@UAEXXZ 100d9130 f   Target.obj
 0001:000d8200       ?CreateInstance@idTarget_SetPrimaryObjective@@SAPAVidClass@@XZ 100d9200 f   Target.obj
 0001:000d82f0       ??0idTarget_SetPrimaryObjective@@QAE@XZ 100d92f0 f i Target.obj
 0001:000d8340       ??_GidTarget_SetPrimaryObjective@@UAEPAXI@Z 100d9340 f i Target.obj
 0001:000d8340       ??_EidTarget_SetPrimaryObjective@@UAEPAXI@Z 100d9340 f i Target.obj
 0001:000d83a0       ??1idTarget_SetPrimaryObjective@@UAE@XZ 100d93a0 f i Target.obj
 0001:000d83e0       ?GetType@idTarget_SetPrimaryObjective@@UBEPAVidTypeInfo@@XZ 100d93e0 f   Target.obj
 0001:000d8410       ?Event_Activate@idTarget_SetPrimaryObjective@@AAEXPAVidEntity@@@Z 100d9410 f   Target.obj
 0001:000d84d0       ?CreateInstance@idTarget_LockDoor@@SAPAVidClass@@XZ 100d94d0 f   Target.obj
 0001:000d85c0       ??0idTarget_LockDoor@@QAE@XZ 100d95c0 f i Target.obj
 0001:000d8610       ??_GidTarget_LockDoor@@UAEPAXI@Z 100d9610 f i Target.obj
 0001:000d8610       ??_EidTarget_LockDoor@@UAEPAXI@Z 100d9610 f i Target.obj
 0001:000d8670       ??1idTarget_LockDoor@@UAE@XZ 100d9670 f i Target.obj
 0001:000d86b0       ?GetType@idTarget_LockDoor@@UBEPAVidTypeInfo@@XZ 100d96b0 f   Target.obj
 0001:000d86e0       ?Event_Activate@idTarget_LockDoor@@AAEXPAVidEntity@@@Z 100d96e0 f   Target.obj
 0001:000d87c0       ?CreateInstance@idTarget_CallObjectFunction@@SAPAVidClass@@XZ 100d97c0 f   Target.obj
 0001:000d88b0       ??0idTarget_CallObjectFunction@@QAE@XZ 100d98b0 f i Target.obj
 0001:000d8900       ??_GidTarget_CallObjectFunction@@UAEPAXI@Z 100d9900 f i Target.obj
 0001:000d8900       ??_EidTarget_CallObjectFunction@@UAEPAXI@Z 100d9900 f i Target.obj
 0001:000d8960       ??1idTarget_CallObjectFunction@@UAE@XZ 100d9960 f i Target.obj
 0001:000d89a0       ?GetType@idTarget_CallObjectFunction@@UBEPAVidTypeInfo@@XZ 100d99a0 f   Target.obj
 0001:000d89d0       ?Event_Activate@idTarget_CallObjectFunction@@AAEXPAVidEntity@@@Z 100d99d0 f   Target.obj
 0001:000d8c10       ?CreateInstance@idTarget_EnableLevelWeapons@@SAPAVidClass@@XZ 100d9c10 f   Target.obj
 0001:000d8d00       ??0idTarget_EnableLevelWeapons@@QAE@XZ 100d9d00 f i Target.obj
 0001:000d8d50       ??_EidTarget_EnableLevelWeapons@@UAEPAXI@Z 100d9d50 f i Target.obj
 0001:000d8d50       ??_GidTarget_EnableLevelWeapons@@UAEPAXI@Z 100d9d50 f i Target.obj
 0001:000d8db0       ??1idTarget_EnableLevelWeapons@@UAE@XZ 100d9db0 f i Target.obj
 0001:000d8df0       ?GetType@idTarget_EnableLevelWeapons@@UBEPAVidTypeInfo@@XZ 100d9df0 f   Target.obj
 0001:000d8e20       ?Event_Activate@idTarget_EnableLevelWeapons@@AAEXPAVidEntity@@@Z 100d9e20 f   Target.obj
 0001:000d8f80       ?CreateInstance@idTarget_Tip@@SAPAVidClass@@XZ 100d9f80 f   Target.obj
 0001:000d9070       ?GetType@idTarget_Tip@@UBEPAVidTypeInfo@@XZ 100da070 f   Target.obj
 0001:000d90a0       ??0idTarget_Tip@@QAE@XZ    100da0a0 f   Target.obj
 0001:000d9140       ??_GidTarget_Tip@@UAEPAXI@Z 100da140 f i Target.obj
 0001:000d9140       ??_EidTarget_Tip@@UAEPAXI@Z 100da140 f i Target.obj
 0001:000d91a0       ??1idTarget_Tip@@UAE@XZ    100da1a0 f i Target.obj
 0001:000d91e0       ?Spawn@idTarget_Tip@@QAEXXZ 100da1e0 f   Target.obj
 0001:000d9210       ?Save@idTarget_Tip@@QBEXPAVidSaveGame@@@Z 100da210 f   Target.obj
 0001:000d9260       ?Restore@idTarget_Tip@@QAEXPAVidRestoreGame@@@Z 100da260 f   Target.obj
 0001:000d92b0       ?Event_GetPlayerPos@idTarget_Tip@@AAEXXZ 100da2b0 f   Target.obj
 0001:000d9350       ?Event_Activate@idTarget_Tip@@AAEXPAVidEntity@@@Z 100da350 f   Target.obj
 0001:000d9420       ?IsTipVisible@idPlayer@@QAE_NXZ 100da420 f i Target.obj
 0001:000d9460       ?Event_TipOff@idTarget_Tip@@AAEXXZ 100da460 f   Target.obj
 0001:000d9540       ?CreateInstance@idTarget_GiveSecurity@@SAPAVidClass@@XZ 100da540 f   Target.obj
 0001:000d9630       ??0idTarget_GiveSecurity@@QAE@XZ 100da630 f i Target.obj
 0001:000d9680       ??_GidTarget_GiveSecurity@@UAEPAXI@Z 100da680 f i Target.obj
 0001:000d9680       ??_EidTarget_GiveSecurity@@UAEPAXI@Z 100da680 f i Target.obj
 0001:000d96e0       ??1idTarget_GiveSecurity@@UAE@XZ 100da6e0 f i Target.obj
 0001:000d9720       ?GetType@idTarget_GiveSecurity@@UBEPAVidTypeInfo@@XZ 100da720 f   Target.obj
 0001:000d9750       ?Event_Activate@idTarget_GiveSecurity@@AAEXPAVidEntity@@@Z 100da750 f   Target.obj
 0001:000d97c0       ?CreateInstance@idTarget_RemoveWeapons@@SAPAVidClass@@XZ 100da7c0 f   Target.obj
 0001:000d98b0       ??0idTarget_RemoveWeapons@@QAE@XZ 100da8b0 f i Target.obj
 0001:000d9900       ??_EidTarget_RemoveWeapons@@UAEPAXI@Z 100da900 f i Target.obj
 0001:000d9900       ??_GidTarget_RemoveWeapons@@UAEPAXI@Z 100da900 f i Target.obj
 0001:000d9960       ??1idTarget_RemoveWeapons@@UAE@XZ 100da960 f i Target.obj
 0001:000d99a0       ?GetType@idTarget_RemoveWeapons@@UBEPAVidTypeInfo@@XZ 100da9a0 f   Target.obj
 0001:000d99d0       ?Event_Activate@idTarget_RemoveWeapons@@AAEXPAVidEntity@@@Z 100da9d0 f   Target.obj
 0001:000d9ab0       ?CreateInstance@idTarget_LevelTrigger@@SAPAVidClass@@XZ 100daab0 f   Target.obj
 0001:000d9ba0       ??0idTarget_LevelTrigger@@QAE@XZ 100daba0 f i Target.obj
 0001:000d9bf0       ??_GidTarget_LevelTrigger@@UAEPAXI@Z 100dabf0 f i Target.obj
 0001:000d9bf0       ??_EidTarget_LevelTrigger@@UAEPAXI@Z 100dabf0 f i Target.obj
 0001:000d9c50       ??1idTarget_LevelTrigger@@UAE@XZ 100dac50 f i Target.obj
 0001:000d9c90       ?GetType@idTarget_LevelTrigger@@UBEPAVidTypeInfo@@XZ 100dac90 f   Target.obj
 0001:000d9cc0       ?Event_Activate@idTarget_LevelTrigger@@AAEXPAVidEntity@@@Z 100dacc0 f   Target.obj
 0001:000d9d70       ?CreateInstance@idTarget_EnableStamina@@SAPAVidClass@@XZ 100dad70 f   Target.obj
 0001:000d9e60       ??0idTarget_EnableStamina@@QAE@XZ 100dae60 f i Target.obj
 0001:000d9eb0       ??_GidTarget_EnableStamina@@UAEPAXI@Z 100daeb0 f i Target.obj
 0001:000d9eb0       ??_EidTarget_EnableStamina@@UAEPAXI@Z 100daeb0 f i Target.obj
 0001:000d9f10       ??1idTarget_EnableStamina@@UAE@XZ 100daf10 f i Target.obj
 0001:000d9f50       ?GetType@idTarget_EnableStamina@@UBEPAVidTypeInfo@@XZ 100daf50 f   Target.obj
 0001:000d9f80       ?Event_Activate@idTarget_EnableStamina@@AAEXPAVidEntity@@@Z 100daf80 f   Target.obj
 0001:000da040       ?CreateInstance@idTarget_FadeSoundClass@@SAPAVidClass@@XZ 100db040 f   Target.obj
 0001:000da130       ??0idTarget_FadeSoundClass@@QAE@XZ 100db130 f i Target.obj
 0001:000da180       ??_GidTarget_FadeSoundClass@@UAEPAXI@Z 100db180 f i Target.obj
 0001:000da180       ??_EidTarget_FadeSoundClass@@UAEPAXI@Z 100db180 f i Target.obj
 0001:000da1e0       ??1idTarget_FadeSoundClass@@UAE@XZ 100db1e0 f i Target.obj
 0001:000da220       ?GetType@idTarget_FadeSoundClass@@UBEPAVidTypeInfo@@XZ 100db220 f   Target.obj
 0001:000da250       ?Event_Activate@idTarget_FadeSoundClass@@AAEXPAVidEntity@@@Z 100db250 f   Target.obj
 0001:000da390       ?Event_RestoreVolume@idTarget_FadeSoundClass@@AAEXXZ 100db390 f   Target.obj
 0001:000da440       ?SetStartTime@?$idInterpolate@H@@QAEXM@Z 100db440 f i Target.obj
 0001:000da480       ?SetDuration@?$idInterpolate@H@@QAEXM@Z 100db480 f i Target.obj
 0001:000da4c0       ?SetStartValue@?$idInterpolate@H@@QAEXABH@Z 100db4c0 f i Target.obj
 0001:000da500       ?SetEndValue@?$idInterpolate@H@@QAEXABH@Z 100db500 f i Target.obj
 0001:000da540       ?IsDone@?$idInterpolate@H@@QBE_NM@Z 100db540 f i Target.obj
 0001:000da5a0       ?GetStartTime@?$idInterpolate@H@@QBEMXZ 100db5a0 f i Target.obj
 0001:000da5d0       ?GetDuration@?$idInterpolate@H@@QBEMXZ 100db5d0 f i Target.obj
 0001:000da600       ?GetStartValue@?$idInterpolate@H@@QBEABHXZ 100db600 f i Target.obj
 0001:000da630       ?GetEndValue@?$idInterpolate@H@@QBEABHXZ 100db630 f i Target.obj
 0001:000da660       ?Append@?$idList@H@@QAEHABH@Z 100db660 f i Target.obj
 0001:000da720       ??0?$idInterpolate@H@@QAE@XZ 100db720 f i Target.obj
 0001:000da7b0       ?Init@?$idInterpolate@H@@QAEXMMABH0@Z 100db7b0 f i Target.obj
 0001:000da820       ?GetCurrentValue@?$idInterpolate@H@@QBEHM@Z 100db820 f i Target.obj
 0001:000da8f0       ?CreateInstance@idTrigger@@SAPAVidClass@@XZ 100db8f0 f   Trigger.obj
 0001:000da9e0       ?GetType@idTrigger@@UBEPAVidTypeInfo@@XZ 100db9e0 f   Trigger.obj
 0001:000daa10       ?DrawDebugInfo@idTrigger@@SAXXZ 100dba10 f   Trigger.obj
 0001:000db1d0       ?Enable@idTrigger@@UAEXXZ  100dc1d0 f   Trigger.obj
 0001:000db270       ?Disable@idTrigger@@UAEXXZ 100dc270 f   Trigger.obj
 0001:000db300       ?CallScript@idTrigger@@IBEXXZ 100dc300 f   Trigger.obj
 0001:000db3e0       ?GetScriptFunction@idTrigger@@QBEPBVfunction_t@@XZ 100dc3e0 f   Trigger.obj
 0001:000db420       ?Save@idTrigger@@QBEXPAVidSaveGame@@@Z 100dc420 f   Trigger.obj
 0001:000db490       ?Restore@idTrigger@@QAEXPAVidRestoreGame@@@Z 100dc490 f   Trigger.obj
 0001:000db5f0       ?Event_Enable@idTrigger@@IAEXXZ 100dc5f0 f   Trigger.obj
 0001:000db640       ?Event_Disable@idTrigger@@IAEXXZ 100dc640 f   Trigger.obj
 0001:000db690       ??0idTrigger@@QAE@XZ       100dc690 f   Trigger.obj
 0001:000db6f0       ??_EidTrigger@@UAEPAXI@Z   100dc6f0 f i Trigger.obj
 0001:000db6f0       ??_GidTrigger@@UAEPAXI@Z   100dc6f0 f i Trigger.obj
 0001:000db750       ??1idTrigger@@UAE@XZ       100dc750 f i Trigger.obj
 0001:000db790       ?Spawn@idTrigger@@QAEXXZ   100dc790 f   Trigger.obj
 0001:000db920       ?CreateInstance@idTrigger_Multi@@SAPAVidClass@@XZ 100dc920 f   Trigger.obj
 0001:000dba10       ?GetType@idTrigger_Multi@@UBEPAVidTypeInfo@@XZ 100dca10 f   Trigger.obj
 0001:000dba40       ??0idTrigger_Multi@@QAE@XZ 100dca40 f   Trigger.obj
 0001:000dbb40       ??_GidTrigger_Multi@@UAEPAXI@Z 100dcb40 f i Trigger.obj
 0001:000dbb40       ??_EidTrigger_Multi@@UAEPAXI@Z 100dcb40 f i Trigger.obj
 0001:000dbba0       ??1idTrigger_Multi@@UAE@XZ 100dcba0 f i Trigger.obj
 0001:000dbc20       ?Save@idTrigger_Multi@@QBEXPAVidSaveGame@@@Z 100dcc20 f   Trigger.obj
 0001:000dbd30       ?Restore@idTrigger_Multi@@QAEXPAVidRestoreGame@@@Z 100dcd30 f   Trigger.obj
 0001:000dbe30       ?Spawn@idTrigger_Multi@@QAEXXZ 100dce30 f   Trigger.obj
 0001:000dc210       ?CheckFacing@idTrigger_Multi@@AAE_NPAVidEntity@@@Z 100dd210 f   Trigger.obj
 0001:000dc320       ?TriggerAction@idTrigger_Multi@@AAEXPAVidEntity@@@Z 100dd320 f   Trigger.obj
 0001:000dc410       ?Event_TriggerAction@idTrigger_Multi@@AAEXPAVidEntity@@@Z 100dd410 f   Trigger.obj
 0001:000dc460       ?Event_Trigger@idTrigger_Multi@@AAEXPAVidEntity@@@Z 100dd460 f   Trigger.obj
 0001:000dc5b0       ?Event_Touch@idTrigger_Multi@@AAEXPAVidEntity@@PAUtrace_s@@@Z 100dd5b0 f   Trigger.obj
 0001:000dc770       ?CreateInstance@idTrigger_EntityName@@SAPAVidClass@@XZ 100dd770 f   Trigger.obj
 0001:000dc860       ?GetType@idTrigger_EntityName@@UBEPAVidTypeInfo@@XZ 100dd860 f   Trigger.obj
 0001:000dc890       ??0idTrigger_EntityName@@QAE@XZ 100dd890 f   Trigger.obj
 0001:000dc970       ??_EidTrigger_EntityName@@UAEPAXI@Z 100dd970 f i Trigger.obj
 0001:000dc970       ??_GidTrigger_EntityName@@UAEPAXI@Z 100dd970 f i Trigger.obj
 0001:000dc9d0       ??1idTrigger_EntityName@@UAE@XZ 100dd9d0 f i Trigger.obj
 0001:000dca50       ?Save@idTrigger_EntityName@@QBEXPAVidSaveGame@@@Z 100dda50 f   Trigger.obj
 0001:000dcb10       ?Restore@idTrigger_EntityName@@QAEXPAVidRestoreGame@@@Z 100ddb10 f   Trigger.obj
 0001:000dcbc0       ?Spawn@idTrigger_EntityName@@QAEXXZ 100ddbc0 f   Trigger.obj
 0001:000dcef0       ?TriggerAction@idTrigger_EntityName@@AAEXPAVidEntity@@@Z 100ddef0 f   Trigger.obj
 0001:000dcfc0       ?Event_TriggerAction@idTrigger_EntityName@@AAEXPAVidEntity@@@Z 100ddfc0 f   Trigger.obj
 0001:000dd010       ?Event_Trigger@idTrigger_EntityName@@AAEXPAVidEntity@@@Z 100de010 f   Trigger.obj
 0001:000dd140       ?Event_Touch@idTrigger_EntityName@@AAEXPAVidEntity@@PAUtrace_s@@@Z 100de140 f   Trigger.obj
 0001:000dd270       ?CreateInstance@idTrigger_Timer@@SAPAVidClass@@XZ 100de270 f   Trigger.obj
 0001:000dd360       ?GetType@idTrigger_Timer@@UBEPAVidTypeInfo@@XZ 100de360 f   Trigger.obj
 0001:000dd390       ??0idTrigger_Timer@@QAE@XZ 100de390 f   Trigger.obj
 0001:000dd460       ??_GidTrigger_Timer@@UAEPAXI@Z 100de460 f i Trigger.obj
 0001:000dd460       ??_EidTrigger_Timer@@UAEPAXI@Z 100de460 f i Trigger.obj
 0001:000dd4c0       ??1idTrigger_Timer@@UAE@XZ 100de4c0 f i Trigger.obj
 0001:000dd550       ?Save@idTrigger_Timer@@QBEXPAVidSaveGame@@@Z 100de550 f   Trigger.obj
 0001:000dd600       ?Restore@idTrigger_Timer@@QAEXPAVidRestoreGame@@@Z 100de600 f   Trigger.obj
 0001:000dd6a0       ?Spawn@idTrigger_Timer@@QAEXXZ 100de6a0 f   Trigger.obj
 0001:000dd860       ?Enable@idTrigger_Timer@@UAEXXZ 100de860 f   Trigger.obj
 0001:000dd8d0       ?Disable@idTrigger_Timer@@UAEXXZ 100de8d0 f   Trigger.obj
 0001:000dd930       ?Event_Timer@idTrigger_Timer@@AAEXXZ 100de930 f   Trigger.obj
 0001:000dd9c0       ?Event_Use@idTrigger_Timer@@AAEXPAVidEntity@@@Z 100de9c0 f   Trigger.obj
 0001:000ddaa0       ?CreateInstance@idTrigger_Count@@SAPAVidClass@@XZ 100deaa0 f   Trigger.obj
 0001:000ddb90       ?GetType@idTrigger_Count@@UBEPAVidTypeInfo@@XZ 100deb90 f   Trigger.obj
 0001:000ddbc0       ??0idTrigger_Count@@QAE@XZ 100debc0 f   Trigger.obj
 0001:000ddc40       ??_EidTrigger_Count@@UAEPAXI@Z 100dec40 f i Trigger.obj
 0001:000ddc40       ??_GidTrigger_Count@@UAEPAXI@Z 100dec40 f i Trigger.obj
 0001:000ddca0       ??1idTrigger_Count@@UAE@XZ 100deca0 f i Trigger.obj
 0001:000ddce0       ?Save@idTrigger_Count@@QBEXPAVidSaveGame@@@Z 100dece0 f   Trigger.obj
 0001:000ddd50       ?Restore@idTrigger_Count@@QAEXPAVidRestoreGame@@@Z 100ded50 f   Trigger.obj
 0001:000dddc0       ?Spawn@idTrigger_Count@@QAEXXZ 100dedc0 f   Trigger.obj
 0001:000dde40       ?Event_Trigger@idTrigger_Count@@AAEXPAVidEntity@@@Z 100dee40 f   Trigger.obj
 0001:000ddf10       ?Event_TriggerAction@idTrigger_Count@@AAEXPAVidEntity@@@Z 100def10 f   Trigger.obj
 0001:000ddf80       ?CreateInstance@idTrigger_Hurt@@SAPAVidClass@@XZ 100def80 f   Trigger.obj
 0001:000de070       ?GetType@idTrigger_Hurt@@UBEPAVidTypeInfo@@XZ 100df070 f   Trigger.obj
 0001:000de0a0       ??0idTrigger_Hurt@@QAE@XZ  100df0a0 f   Trigger.obj
 0001:000de110       ??_EidTrigger_Hurt@@UAEPAXI@Z 100df110 f i Trigger.obj
 0001:000de110       ??_GidTrigger_Hurt@@UAEPAXI@Z 100df110 f i Trigger.obj
 0001:000de170       ??1idTrigger_Hurt@@UAE@XZ  100df170 f i Trigger.obj
 0001:000de1b0       ?Save@idTrigger_Hurt@@QBEXPAVidSaveGame@@@Z 100df1b0 f   Trigger.obj
 0001:000de220       ?Restore@idTrigger_Hurt@@QAEXPAVidRestoreGame@@@Z 100df220 f   Trigger.obj
 0001:000de290       ?Spawn@idTrigger_Hurt@@QAEXXZ 100df290 f   Trigger.obj
 0001:000de330       ?Event_Touch@idTrigger_Hurt@@AAEXPAVidEntity@@PAUtrace_s@@@Z 100df330 f   Trigger.obj
 0001:000de420       ?Event_Toggle@idTrigger_Hurt@@AAEXPAVidEntity@@@Z 100df420 f   Trigger.obj
 0001:000de470       ?CreateInstance@idTrigger_Fade@@SAPAVidClass@@XZ 100df470 f   Trigger.obj
 0001:000de560       ??0idTrigger_Fade@@QAE@XZ  100df560 f i Trigger.obj
 0001:000de5b0       ??_EidTrigger_Fade@@UAEPAXI@Z 100df5b0 f i Trigger.obj
 0001:000de5b0       ??_GidTrigger_Fade@@UAEPAXI@Z 100df5b0 f i Trigger.obj
 0001:000de610       ??1idTrigger_Fade@@UAE@XZ  100df610 f i Trigger.obj
 0001:000de650       ?GetType@idTrigger_Fade@@UBEPAVidTypeInfo@@XZ 100df650 f   Trigger.obj
 0001:000de680       ?Event_Trigger@idTrigger_Fade@@AAEXPAVidEntity@@@Z 100df680 f   Trigger.obj
 0001:000de7c0       ?CreateInstance@idTrigger_Touch@@SAPAVidClass@@XZ 100df7c0 f   Trigger.obj
 0001:000de8b0       ?GetType@idTrigger_Touch@@UBEPAVidTypeInfo@@XZ 100df8b0 f   Trigger.obj
 0001:000de8e0       ??0idTrigger_Touch@@QAE@XZ 100df8e0 f   Trigger.obj
 0001:000de940       ??_EidTrigger_Touch@@UAEPAXI@Z 100df940 f i Trigger.obj
 0001:000de940       ??_GidTrigger_Touch@@UAEPAXI@Z 100df940 f i Trigger.obj
 0001:000de9a0       ??1idTrigger_Touch@@UAE@XZ 100df9a0 f i Trigger.obj
 0001:000de9e0       ?Spawn@idTrigger_Touch@@QAEXXZ 100df9e0 f   Trigger.obj
 0001:000deb20       ?Save@idTrigger_Touch@@QAEXPAVidSaveGame@@@Z 100dfb20 f   Trigger.obj
 0001:000deb70       ?Restore@idTrigger_Touch@@QAEXPAVidRestoreGame@@@Z 100dfb70 f   Trigger.obj
 0001:000debc0       ?TouchEntities@idTrigger_Touch@@QAEXXZ 100dfbc0 f   Trigger.obj
 0001:000dee30       ?Think@idTrigger_Touch@@UAEXXZ 100dfe30 f   Trigger.obj
 0001:000dee90       ?Event_Trigger@idTrigger_Touch@@AAEXPAVidEntity@@@Z 100dfe90 f   Trigger.obj
 0001:000deef0       ?Enable@idTrigger_Touch@@UAEXXZ 100dfef0 f   Trigger.obj
 0001:000def40       ?Disable@idTrigger_Touch@@UAEXXZ 100dff40 f   Trigger.obj
 0001:000def90       ??9@YA_NABVidStr@@0@Z      100dff90 f i Trigger.obj
 0001:000defe0       ?GetVec4@idDict@@QBE?AVidVec4@@PBD0@Z 100dffe0 f i Trigger.obj
 0001:000df080       ?CreateInstance@idWeapon@@SAPAVidClass@@XZ 100e0080 f   Weapon.obj
 0001:000df170       ?GetType@idWeapon@@UBEPAVidTypeInfo@@XZ 100e0170 f   Weapon.obj
 0001:000df1a0       ??0idWeapon@@QAE@XZ        100e01a0 f   Weapon.obj
 0001:000df520       ??_EidWeapon@@UAEPAXI@Z    100e0520 f i Weapon.obj
 0001:000df520       ??_GidWeapon@@UAEPAXI@Z    100e0520 f i Weapon.obj
 0001:000df580       ??1idWeapon@@UAE@XZ        100e0580 f   Weapon.obj
 0001:000df6c0       ?Spawn@idWeapon@@QAEXXZ    100e06c0 f   Weapon.obj
 0001:000df7f0       ?SetOwner@idWeapon@@QAEXPAVidPlayer@@@Z 100e07f0 f   Weapon.obj
 0001:000df8d0       ?ShouldConstructScriptObjectAtSpawn@idWeapon@@UBE_NXZ 100e08d0 f   Weapon.obj
 0001:000df900       ?CacheWeapon@idWeapon@@SAXPBD@Z 100e0900 f   Weapon.obj
 0001:000dfaa0       ?Save@idWeapon@@QBEXPAVidSaveGame@@@Z 100e0aa0 f   Weapon.obj
 0001:000e0100       ?Restore@idWeapon@@QAEXPAVidRestoreGame@@@Z 100e1100 f   Weapon.obj
 0001:000e0940       ?Clear@idWeapon@@QAEXXZ    100e1940 f   Weapon.obj
 0001:000e10c0       ?InitWorldModel@idWeapon@@AAEXPBVidDeclEntityDef@@@Z 100e20c0 f   Weapon.obj
 0001:000e1400       ?GetWeaponDef@idWeapon@@QAEXPBDH@Z 100e2400 f   Weapon.obj
 0001:000e2530       ?Icon@idWeapon@@QBEPBDXZ   100e3530 f   Weapon.obj
 0001:000e2580       ?UpdateGUI@idWeapon@@QAEXXZ 100e3580 f   Weapon.obj
 0001:000e28a0       ?UpdateFlashPosition@idWeapon@@AAEXXZ 100e38a0 f   Weapon.obj
 0001:000e2a60       ?MuzzleFlashLight@idWeapon@@AAEXXZ 100e3a60 f   Weapon.obj
 0001:000e2c20       ?UpdateSkin@idWeapon@@QAE_NXZ 100e3c20 f   Weapon.obj
 0001:000e2ce0       ?SetModel@idWeapon@@UAEXPBD@Z 100e3ce0 f   Weapon.obj
 0001:000e2e20       ?GetGlobalJointTransform@idWeapon@@QAE_N_NW4jointHandle_t@@AAVidVec3@@AAVidMat3@@@Z 100e3e20 f   Weapon.obj
 0001:000e3080       ?SetPushVelocity@idWeapon@@QAEXABVidVec3@@@Z 100e4080 f   Weapon.obj
 0001:000e30d0       ?Think@idWeapon@@UAEXXZ    100e40d0 f   Weapon.obj
 0001:000e3100       ?Raise@idWeapon@@QAEXXZ    100e4100 f   Weapon.obj
 0001:000e3170       ?PutAway@idWeapon@@QAEXXZ  100e4170 f   Weapon.obj
 0001:000e31e0       ?Reload@idWeapon@@QAEXXZ   100e41e0 f   Weapon.obj
 0001:000e3250       ?LowerWeapon@idWeapon@@QAEXXZ 100e4250 f   Weapon.obj
 0001:000e3310       ?RaiseWeapon@idWeapon@@QAEXXZ 100e4310 f   Weapon.obj
 0001:000e33f0       ?HideWeapon@idWeapon@@QAEXXZ 100e43f0 f   Weapon.obj
 0001:000e3490       ?ShowWeapon@idWeapon@@QAEXXZ 100e4490 f   Weapon.obj
 0001:000e3540       ?HideWorldModel@idWeapon@@QAEXXZ 100e4540 f   Weapon.obj
 0001:000e35c0       ?ShowWorldModel@idWeapon@@QAEXXZ 100e45c0 f   Weapon.obj
 0001:000e3640       ?OwnerDied@idWeapon@@QAEXXZ 100e4640 f   Weapon.obj
 0001:000e3710       ?BeginAttack@idWeapon@@QAEXXZ 100e4710 f   Weapon.obj
 0001:000e37c0       ?EndAttack@idWeapon@@QAEXXZ 100e47c0 f   Weapon.obj
 0001:000e3870       ?IsReady@idWeapon@@QBE_NXZ 100e4870 f   Weapon.obj
 0001:000e3910       ?IsReloading@idWeapon@@QBE_NXZ 100e4910 f   Weapon.obj
 0001:000e3950       ?IsHolstered@idWeapon@@QBE_NXZ 100e4950 f   Weapon.obj
 0001:000e3990       ?ShowCrosshair@idWeapon@@QBE_NXZ 100e4990 f   Weapon.obj
 0001:000e3b90       ?CanDrop@idWeapon@@QBE_NXZ 100e4b90 f   Weapon.obj
 0001:000e3c20       ?WeaponStolen@idWeapon@@QAEXXZ 100e4c20 f   Weapon.obj
 0001:000e3ce0       ?DropItem@idWeapon@@QAEPAVidEntity@@ABVidVec3@@HH_N@Z 100e4ce0 f   Weapon.obj
 0001:000e3e30       ?SetState@idWeapon@@QAEXPBDH@Z 100e4e30 f   Weapon.obj
 0001:000e3f60       ?UpdateNozzleFx@idWeapon@@AAEXXZ 100e4f60 f   Weapon.obj
 0001:000e41d0       ?BloodSplat@idWeapon@@QAE_NM@Z 100e51d0 f   Weapon.obj
 0001:000e4690       ?MuzzleRise@idWeapon@@AAEXAAVidVec3@@AAVidMat3@@@Z 100e5690 f   Weapon.obj
 0001:000e4810       ?ConstructScriptObject@idWeapon@@UAEPAVidThread@@XZ 100e5810 f   Weapon.obj
 0001:000e48d0       ?DeconstructScriptObject@idWeapon@@UAEXXZ 100e58d0 f   Weapon.obj
 0001:000e4990       ?UpdateScript@idWeapon@@QAEXXZ 100e5990 f   Weapon.obj
 0001:000e4ac0       ?AlertMonsters@idWeapon@@AAEXXZ 100e5ac0 f   Weapon.obj
 0001:000e4ed0       ?Sin16@idMath@@SAMM@Z      100e5ed0 f i Weapon.obj
 0001:000e4fe0       ?PresentWeapon@idWeapon@@QAEX_N@Z 100e5fe0 f   Weapon.obj
 0001:000e57b0       ?EnterCinematic@idWeapon@@QAEXXZ 100e67b0 f   Weapon.obj
 0001:000e5910       ?ExitCinematic@idWeapon@@QAEXXZ 100e6910 f   Weapon.obj
 0001:000e5990       ?NetCatchup@idWeapon@@QAEXXZ 100e6990 f   Weapon.obj
 0001:000e5a00       ?GetZoomFov@idWeapon@@QAEHXZ 100e6a00 f   Weapon.obj
 0001:000e5a40       ?GetWeaponAngleOffsets@idWeapon@@QAEXPAHPAM1@Z 100e6a40 f   Weapon.obj
 0001:000e5aa0       ?GetWeaponTimeOffsets@idWeapon@@QAEXPAM0@Z 100e6aa0 f   Weapon.obj
 0001:000e5af0       ?GetAmmoNumForName@idWeapon@@SAHPBD@Z 100e6af0 f   Weapon.obj
 0001:000e5c10       ?GetAmmoNameForNum@idWeapon@@SAPBDH@Z 100e6c10 f   Weapon.obj
 0001:000e5d20       ?GetAmmoPickupNameForNum@idWeapon@@SAPBDH@Z 100e6d20 f   Weapon.obj
 0001:000e5e10       ?AmmoAvailable@idWeapon@@QBEHXZ 100e6e10 f   Weapon.obj
 0001:000e5e80       ?AmmoInClip@idWeapon@@QBEHXZ 100e6e80 f   Weapon.obj
 0001:000e5ec0       ?ResetAmmoClip@idWeapon@@QAEXXZ 100e6ec0 f   Weapon.obj
 0001:000e5f00       ?GetAmmoType@idWeapon@@QBEHXZ 100e6f00 f   Weapon.obj
 0001:000e5f40       ?ClipSize@idWeapon@@QBEHXZ 100e6f40 f   Weapon.obj
 0001:000e5f80       ?LowAmmo@idWeapon@@QBEHXZ  100e6f80 f   Weapon.obj
 0001:000e5fc0       ?AmmoRequired@idWeapon@@QBEHXZ 100e6fc0 f   Weapon.obj
 0001:000e6000       ?WriteToSnapshot@idWeapon@@UBEXAAVidBitMsgDelta@@@Z 100e7000 f   Weapon.obj
 0001:000e60a0       ?ReadFromSnapshot@idWeapon@@UAEXABVidBitMsgDelta@@@Z 100e70a0 f   Weapon.obj
 0001:000e61e0       ?ClientReceiveEvent@idWeapon@@UAE_NHHABVidBitMsg@@@Z 100e71e0 f   Weapon.obj
 0001:000e63a0       ?Event_Clear@idWeapon@@AAEXXZ 100e73a0 f   Weapon.obj
 0001:000e63e0       ?Event_GetOwner@idWeapon@@AAEXXZ 100e73e0 f   Weapon.obj
 0001:000e6430       ?Event_WeaponState@idWeapon@@AAEXPBDH@Z 100e7430 f   Weapon.obj
 0001:000e6530       ?Event_WeaponReady@idWeapon@@AAEXXZ 100e7530 f   Weapon.obj
 0001:000e65d0       ?Event_WeaponOutOfAmmo@idWeapon@@AAEXXZ 100e75d0 f   Weapon.obj
 0001:000e6650       ?Event_WeaponReloading@idWeapon@@AAEXXZ 100e7650 f   Weapon.obj
 0001:000e6690       ?Event_WeaponHolstered@idWeapon@@AAEXXZ 100e7690 f   Weapon.obj
 0001:000e6710       ?Event_WeaponRising@idWeapon@@AAEXXZ 100e7710 f   Weapon.obj
 0001:000e6790       ?Event_WeaponLowering@idWeapon@@AAEXXZ 100e7790 f   Weapon.obj
 0001:000e6810       ?Event_UseAmmo@idWeapon@@AAEXH@Z 100e7810 f   Weapon.obj
 0001:000e6920       ?Event_AddToClip@idWeapon@@AAEXH@Z 100e7920 f   Weapon.obj
 0001:000e69f0       ?Event_AmmoInClip@idWeapon@@AAEXXZ 100e79f0 f   Weapon.obj
 0001:000e6a50       ?Event_AmmoAvailable@idWeapon@@AAEXXZ 100e7a50 f   Weapon.obj
 0001:000e6ad0       ?Event_TotalAmmoCount@idWeapon@@AAEXXZ 100e7ad0 f   Weapon.obj
 0001:000e6b40       ?Event_ClipSize@idWeapon@@AAEXXZ 100e7b40 f   Weapon.obj
 0001:000e6b90       ?Event_AutoReload@idWeapon@@AAEXXZ 100e7b90 f   Weapon.obj
 0001:000e6c50       ?Event_NetReload@idWeapon@@AAEXXZ 100e7c50 f   Weapon.obj
 0001:000e6cd0       ?Event_NetEndReload@idWeapon@@AAEXXZ 100e7cd0 f   Weapon.obj
 0001:000e6d50       ?Event_PlayAnim@idWeapon@@AAEXHPBD@Z 100e7d50 f   Weapon.obj
 0001:000e6f60       ?GetInfluenceLevel@idPlayer@@QAEHXZ 100e7f60 f i Weapon.obj
 0001:000e6fa0       ?Event_PlayCycle@idWeapon@@AAEXHPBD@Z 100e7fa0 f   Weapon.obj
 0001:000e71b0       ?Event_AnimDone@idWeapon@@AAEXHH@Z 100e81b0 f   Weapon.obj
 0001:000e7220       ?Event_SetBlendFrames@idWeapon@@AAEXHH@Z 100e8220 f   Weapon.obj
 0001:000e7260       ?Event_GetBlendFrames@idWeapon@@AAEXH@Z 100e8260 f   Weapon.obj
 0001:000e72b0       ?Event_Next@idWeapon@@AAEXXZ 100e82b0 f   Weapon.obj
 0001:000e7300       ?Event_SetSkin@idWeapon@@AAEXPBD@Z 100e8300 f   Weapon.obj
 0001:000e74a0       ?Event_Flashlight@idWeapon@@AAEXH@Z 100e84a0 f   Weapon.obj
 0001:000e7510       ?Event_GetLightParm@idWeapon@@AAEXH@Z 100e8510 f   Weapon.obj
 0001:000e7590       ?Event_SetLightParm@idWeapon@@AAEXHM@Z 100e8590 f   Weapon.obj
 0001:000e7620       ?Event_SetLightParms@idWeapon@@AAEXMMMM@Z 100e8620 f   Weapon.obj
 0001:000e76d0       ?Event_CreateProjectile@idWeapon@@AAEXXZ 100e86d0 f   Weapon.obj
 0001:000e77f0       ?Event_LaunchProjectiles@idWeapon@@AAEXHMMMM@Z 100e87f0 f   Weapon.obj
 0001:000e83a0       ?Sin@idMath@@SAMM@Z        100e93a0 f i Weapon.obj
 0001:000e83e0       ?Cos@idMath@@SAMM@Z        100e93e0 f i Weapon.obj
 0001:000e8420       ?Event_Melee@idWeapon@@AAEXXZ 100e9420 f   Weapon.obj
 0001:000e8c80       ??GidMat3@@QBE?AV0@XZ      100e9c80 f i Weapon.obj
 0001:000e8d70       ?Event_GetWorldModel@idWeapon@@AAEXXZ 100e9d70 f   Weapon.obj
 0001:000e8dc0       ?Event_AllowDrop@idWeapon@@AAEXH@Z 100e9dc0 f   Weapon.obj
 0001:000e8e10       ?Event_EjectBrass@idWeapon@@AAEXXZ 100e9e10 f   Weapon.obj
 0001:000e9160       ?Event_IsInvisible@idWeapon@@AAEXXZ 100ea160 f   Weapon.obj
 0001:000e91e0       ?ClientPredictionThink@idWeapon@@UAEXXZ 100ea1e0 f   Weapon.obj
 0001:000e9220       ?GetSpawnId@?$idEntityPtr@VidAnimatedEntity@@@@QBEHXZ 100ea220 f i Weapon.obj
 0001:000e9250       ?IsLinked@?$idScriptVariable@H$0O@H@@QBE_NXZ 100ea250 f i Weapon.obj
 0001:000e9290       ?Unlink@?$idScriptVariable@H$0O@H@@QAEXXZ 100ea290 f i Weapon.obj
 0001:000e92d0       ??0?$idEntityPtr@VidAnimatedEntity@@@@QAE@XZ 100ea2d0 f i Weapon.obj
 0001:000e9310       ?Save@?$idEntityPtr@VidAnimatedEntity@@@@QBEXPAVidSaveGame@@@Z 100ea310 f i Weapon.obj
 0001:000e9360       ?Restore@?$idEntityPtr@VidAnimatedEntity@@@@QAEXPAVidRestoreGame@@@Z 100ea360 f i Weapon.obj
 0001:000e93b0       ??4?$idEntityPtr@VidAnimatedEntity@@@@QAEAAV0@PAVidAnimatedEntity@@@Z 100ea3b0 f i Weapon.obj
 0001:000e9410       ?SetSpawnId@?$idEntityPtr@VidAnimatedEntity@@@@QAE_NH@Z 100ea410 f i Weapon.obj
 0001:000e9470       ??GidBounds@@QBE?AV0@ABV0@@Z 100ea470 f i Weapon.obj
 0001:000e96f0       ?Rotate@idBounds@@QBE?AV1@ABVidMat3@@@Z 100ea6f0 f i Weapon.obj
 0001:000e97a0       ?CreateInstance@idWorldspawn@@SAPAVidClass@@XZ 100ea7a0 f   WorldSpawn.obj
 0001:000e9890       ??0idWorldspawn@@QAE@XZ    100ea890 f i WorldSpawn.obj
 0001:000e98e0       ??_GidWorldspawn@@UAEPAXI@Z 100ea8e0 f i WorldSpawn.obj
 0001:000e98e0       ??_EidWorldspawn@@UAEPAXI@Z 100ea8e0 f i WorldSpawn.obj
 0001:000e9940       ?GetType@idWorldspawn@@UBEPAVidTypeInfo@@XZ 100ea940 f   WorldSpawn.obj
 0001:000e9970       ?Spawn@idWorldspawn@@QAEXXZ 100ea970 f   WorldSpawn.obj
 0001:000e9c80       ?Save@idWorldspawn@@QAEXPAVidRestoreGame@@@Z 100eac80 f   WorldSpawn.obj
 0001:000e9cb0       ?Restore@idWorldspawn@@QAEXPAVidRestoreGame@@@Z 100eacb0 f   WorldSpawn.obj
 0001:000e9d70       ??1idWorldspawn@@UAE@XZ    100ead70 f   WorldSpawn.obj
 0001:000e9dd0       ?Event_Remove@idWorldspawn@@AAEXXZ 100eadd0 f   WorldSpawn.obj
 0001:000e9e20       ?Alloc@idAAS@@SAPAV1@XZ    100eae20 f   AAS.obj
 0001:000e9ed0       ??1idAAS@@UAE@XZ           100eaed0 f   AAS.obj
 0001:000e9f10       ??0idAASLocal@@QAE@XZ      100eaf10 f   AAS.obj
 0001:000e9fb0       ??_EidAASLocal@@UAEPAXI@Z  100eafb0 f i AAS.obj
 0001:000e9fb0       ??_GidAASLocal@@UAEPAXI@Z  100eafb0 f i AAS.obj
 0001:000ea010       ??0idAAS@@QAE@XZ           100eb010 f i AAS.obj
 0001:000ea050       ??1idAASLocal@@UAE@XZ      100eb050 f   AAS.obj
 0001:000ea0f0       ?Init@idAASLocal@@UAE_NABVidStr@@I@Z 100eb0f0 f   AAS.obj
 0001:000ea230       ?Shutdown@idAASLocal@@UAEXXZ 100eb230 f   AAS.obj
 0001:000ea2c0       ?Stats@idAASLocal@@UBEXXZ  100eb2c0 f   AAS.obj
 0001:000ea360       ?GetSettings@idAASLocal@@UBEPBVidAASSettings@@XZ 100eb360 f   AAS.obj
 0001:000ea3b0       ?PointAreaNum@idAASLocal@@UBEHABVidVec3@@@Z 100eb3b0 f   AAS.obj
 0001:000ea420       ?PointReachableAreaNum@idAASLocal@@UBEHABVidVec3@@ABVidBounds@@H@Z 100eb420 f   AAS.obj
 0001:000ea490       ?BoundsReachableAreaNum@idAASLocal@@UBEHABVidBounds@@H@Z 100eb490 f   AAS.obj
 0001:000ea500       ?PushPointIntoAreaNum@idAASLocal@@UBEXHAAVidVec3@@@Z 100eb500 f   AAS.obj
 0001:000ea570       ?AreaCenter@idAASLocal@@UBE?AVidVec3@@H@Z 100eb570 f   AAS.obj
 0001:000ea600       ?AreaFlags@idAASLocal@@UBEHH@Z 100eb600 f   AAS.obj
 0001:000ea660       ?AreaTravelFlags@idAASLocal@@UBEHH@Z 100eb660 f   AAS.obj
 0001:000ea6c0       ?Trace@idAASLocal@@UBE_NAAUaasTrace_s@@ABVidVec3@@1@Z 100eb6c0 f   AAS.obj
 0001:000ea750       ?GetPlane@idAASLocal@@UBEABVidPlane@@H@Z 100eb750 f   AAS.obj
 0001:000ea800       ?GetEdgeVertexNumbers@idAASLocal@@UBEXHQAH@Z 100eb800 f   AAS.obj
 0001:000ea8a0       ?GetEdge@idAASLocal@@UBEXHAAVidVec3@@0@Z 100eb8a0 f   AAS.obj
 0001:000ea960       ??0?$idList@PAVidRoutingObstacle@@@@QAE@H@Z 100eb960 f i AAS.obj
 0001:000ea9e0       ??1?$idList@PAVidRoutingObstacle@@@@QAE@XZ 100eb9e0 f i AAS.obj
 0001:000eaa20       ?Clear@?$idList@PAVidRoutingObstacle@@@@QAEXXZ 100eba20 f i AAS.obj
 0001:000eaaa0       ?GetName@idAASFile@@QBEPBDXZ 100ebaa0 f i AAS.obj
 0001:000eaaf0       ?GetCRC@idAASFile@@QBEIXZ  100ebaf0 f i AAS.obj
 0001:000eab20       ?GetPlane@idAASFile@@QBEABVidPlane@@H@Z 100ebb20 f i AAS.obj
 0001:000eab70       ??A?$idList@VidPlane@@@@QBEABVidPlane@@H@Z 100ebb70 f i AAS.obj
 0001:000eac00       ?GetVertex@idAASFile@@QBEABVidVec3@@H@Z 100ebc00 f i AAS.obj
 0001:000eac50       ?GetEdge@idAASFile@@QBEABUaasEdge_s@@H@Z 100ebc50 f i AAS.obj
 0001:000eaca0       ??A?$idList@UaasEdge_s@@@@QBEABUaasEdge_s@@H@Z 100ebca0 f i AAS.obj
 0001:000ead30       ?GetArea@idAASFile@@QAEABUaasArea_s@@H@Z 100ebd30 f i AAS.obj
 0001:000ead80       ??A?$idList@UaasArea_s@@@@QAEAAUaasArea_s@@H@Z 100ebd80 f i AAS.obj
 0001:000eae10       ?GetSettings@idAASFile@@QBEABVidAASSettings@@XZ 100ebe10 f i AAS.obj
 0001:000eae50       ?DrawCone@idAASLocal@@ABEXABVidVec3@@0MABVidVec4@@@Z 100ebe50 f   AAS_debug.obj
 0001:000eb170       ?DrawReachability@idAASLocal@@ABEXPBVidReachability@@@Z 100ec170 f   AAS_debug.obj
 0001:000eb290       ?DrawEdge@idAASLocal@@ABEXH_N@Z 100ec290 f   AAS_debug.obj
 0001:000eb460       ?DrawFace@idAASLocal@@ABEXH_N@Z 100ec460 f   AAS_debug.obj
 0001:000eb6e0       ?DrawArea@idAASLocal@@ABEXH@Z 100ec6e0 f   AAS_debug.obj
 0001:000eb7d0       ?DefaultSearchBounds@idAASLocal@@ABEABVidBounds@@XZ 100ec7d0 f   AAS_debug.obj
 0001:000eb820       ?ShowArea@idAASLocal@@ABEXABVidVec3@@@Z 100ec820 f   AAS_debug.obj
 0001:000ebb40       ?ShowWalkPath@idAASLocal@@UBEXABVidVec3@@H0@Z 100ecb40 f   AAS_debug.obj
 0001:000ebdb0       ??0aasPath_s@@QAE@XZ       100ecdb0 f i AAS_debug.obj
 0001:000ebe00       ?ShowFlyPath@idAASLocal@@UBEXABVidVec3@@H0@Z 100ece00 f   AAS_debug.obj
 0001:000ec070       ?ShowWallEdges@idAASLocal@@ABEXABVidVec3@@@Z 100ed070 f   AAS_debug.obj
 0001:000ec2b0       ?ShowHideArea@idAASLocal@@ABEXABVidVec3@@H@Z 100ed2b0 f   AAS_debug.obj
 0001:000ec520       ??0aasGoal_s@@QAE@XZ       100ed520 f i AAS_debug.obj
 0001:000ec570       ??0aasObstacle_s@@QAE@XZ   100ed570 f i AAS_debug.obj
 0001:000ec5c0       ?PullPlayer@idAASLocal@@ABE_NABVidVec3@@H@Z 100ed5c0 f   AAS_debug.obj
 0001:000ec940       ?RandomPullPlayer@idAASLocal@@ABEXABVidVec3@@@Z 100ed940 f   AAS_debug.obj
 0001:000eca90       ?ShowPushIntoArea@idAASLocal@@ABEXABVidVec3@@@Z 100eda90 f   AAS_debug.obj
 0001:000ecb80       ?Test@idAASLocal@@UAEXABVidVec3@@@Z 100edb80 f   AAS_debug.obj
 0001:000ecdf0       ?GetEdgeIndex@idAASFile@@QBEABHH@Z 100eddf0 f i AAS_debug.obj
 0001:000ece40       ?GetFace@idAASFile@@QBEABUaasFace_s@@H@Z 100ede40 f i AAS_debug.obj
 0001:000ece90       ??A?$idList@UaasFace_s@@@@QBEABUaasFace_s@@H@Z 100ede90 f i AAS_debug.obj
 0001:000ecf20       ?GetFaceIndex@idAASFile@@QBEABHH@Z 100edf20 f i AAS_debug.obj
 0001:000ecf70       ?GetNumAreas@idAASFile@@QBEHXZ 100edf70 f i AAS_debug.obj
 0001:000ecfc0       ?Num@?$idList@UaasArea_s@@@@QBEHXZ 100edfc0 f i AAS_debug.obj
 0001:000ecff0       ?EdgeSplitPoint@idAASLocal@@ABE_NAAVidVec3@@HABVidPlane@@@Z 100edff0 f   AAS_pathing.obj
 0001:000ed180       ?FloorEdgeSplitPoint@idAASLocal@@ABE_NAAVidVec3@@HABVidPlane@@1_N@Z 100ee180 f   AAS_pathing.obj
 0001:000ed3b0       ?WalkPathValid@idAASLocal@@UBE_NHABVidVec3@@H0HAAV2@AAH@Z 100ee3b0 f   AAS_pathing.obj
 0001:000ed8e0       ?SubSampleWalkPath@idAASLocal@@ABE?AVidVec3@@HABV2@00HAAH@Z 100ee8e0 f   AAS_pathing.obj
 0001:000edb10       ?WalkPathToGoal@idAASLocal@@UBE_NAAUaasPath_s@@HABVidVec3@@H1H@Z 100eeb10 f   AAS_pathing.obj
 0001:000ee1d0       ?FlyPathValid@idAASLocal@@UBE_NHABVidVec3@@H0HAAV2@AAH@Z 100ef1d0 f   AAS_pathing.obj
 0001:000ee2b0       ?SubSampleFlyPath@idAASLocal@@ABE?AVidVec3@@HABV2@00HAAH@Z 100ef2b0 f   AAS_pathing.obj
 0001:000ee4e0       ?FlyPathToGoal@idAASLocal@@UBE_NAAUaasPath_s@@HABVidVec3@@H1H@Z 100ef4e0 f   AAS_pathing.obj
 0001:000ee950       ?SortWallEdges@idAASLocal@@UBEXPAHH@Z 100ef950 f   AAS_pathing.obj
 0001:000eec10       ?GetWallEdges@idAASLocal@@UBEHHABVidBounds@@HPAHH@Z 100efc10 f   AAS_pathing.obj
 0001:000ef090       ?Normalize@idPlane@@QAEM_N@Z 100f0090 f i AAS_pathing.obj
 0001:000ef0f0       ?FixDegenerateNormal@idPlane@@QAE_NXZ 100f00f0 f i AAS_pathing.obj
 0001:000ef140       ?Dist@idPlane@@QBEMXZ      100f0140 f i AAS_pathing.obj
 0001:000ef180       ??0aasTrace_s@@QAE@XZ      100f0180 f i AAS_pathing.obj
 0001:000ef200       ??0idRoutingCache@@QAE@H@Z 100f0200 f   AAS_routing.obj
 0001:000ef310       ??1idRoutingCache@@QAE@XZ  100f0310 f   AAS_routing.obj
 0001:000ef380       ?Size@idRoutingCache@@QBEHXZ 100f0380 f   AAS_routing.obj
 0001:000ef3c0       ?AreaTravelTime@idAASLocal@@ABEGHABVidVec3@@0@Z 100f03c0 f   AAS_routing.obj
 0001:000ef4a0       ?CalculateAreaTravelTimes@idAASLocal@@AAEXXZ 100f04a0 f   AAS_routing.obj
 0001:000ef7b0       ?DeleteAreaTravelTimes@idAASLocal@@AAEXXZ 100f07b0 f   AAS_routing.obj
 0001:000ef810       ?SetupRoutingCache@idAASLocal@@AAEXXZ 100f0810 f   AAS_routing.obj
 0001:000ef9c0       ?DeleteClusterCache@idAASLocal@@AAEXH@Z 100f09c0 f   AAS_routing.obj
 0001:000efac0       ??_GidRoutingCache@@QAEPAXI@Z 100f0ac0 f i AAS_routing.obj
 0001:000efb20       ?DeletePortalCache@idAASLocal@@AAEXXZ 100f0b20 f   AAS_routing.obj
 0001:000efc10       ?ShutdownRoutingCache@idAASLocal@@AAEXXZ 100f0c10 f   AAS_routing.obj
 0001:000efd30       ?SetupRouting@idAASLocal@@AAE_NXZ 100f0d30 f   AAS_routing.obj
 0001:000efd80       ?ShutdownRouting@idAASLocal@@AAEXXZ 100f0d80 f   AAS_routing.obj
 0001:000efdd0       ?RoutingStats@idAASLocal@@ABEXXZ 100f0dd0 f   AAS_routing.obj
 0001:000eff50       ?RemoveRoutingCacheUsingArea@idAASLocal@@AAEXH@Z 100f0f50 f   AAS_routing.obj
 0001:000f0000       ?DisableArea@idAASLocal@@AAEXH@Z 100f1000 f   AAS_routing.obj
 0001:000f00b0       ?EnableArea@idAASLocal@@AAEXH@Z 100f10b0 f   AAS_routing.obj
 0001:000f0160       ?SetAreaState_r@idAASLocal@@AAE_NHABVidBounds@@H_N@Z 100f1160 f   AAS_routing.obj
 0001:000f0290       ?SetAreaState@idAASLocal@@UAE_NABVidBounds@@H_N@Z 100f1290 f   AAS_routing.obj
 0001:000f03b0       ?GetBoundsAreas_r@idAASLocal@@ABEXHABVidBounds@@AAV?$idList@H@@@Z 100f13b0 f   AAS_routing.obj
 0001:000f04a0       ?SetObstacleState@idAASLocal@@AAEXPBVidRoutingObstacle@@_N@Z 100f14a0 f   AAS_routing.obj
 0001:000f0630       ?AddObstacle@idAASLocal@@UAEHABVidBounds@@@Z 100f1630 f   AAS_routing.obj
 0001:000f07f0       ??0idRoutingObstacle@@AAE@XZ 100f17f0 f i AAS_routing.obj
 0001:000f0840       ?RemoveObstacle@idAASLocal@@UAEXH@Z 100f1840 f   AAS_routing.obj
 0001:000f0920       ??_GidRoutingObstacle@@QAEPAXI@Z 100f1920 f i AAS_routing.obj
 0001:000f0980       ??1idRoutingObstacle@@QAE@XZ 100f1980 f i AAS_routing.obj
 0001:000f09d0       ?RemoveAllObstacles@idAASLocal@@UAEXXZ 100f19d0 f   AAS_routing.obj
 0001:000f0ab0       ?LinkCache@idAASLocal@@ABEXPAVidRoutingCache@@@Z 100f1ab0 f   AAS_routing.obj
 0001:000f0b70       ?UnlinkCache@idAASLocal@@ABEXPAVidRoutingCache@@@Z 100f1b70 f   AAS_routing.obj
 0001:000f0c20       ?DeleteOldestCache@idAASLocal@@ABEXXZ 100f1c20 f   AAS_routing.obj
 0001:000f0d60       ?GetAreaReachability@idAASLocal@@ABEPAVidReachability@@HH@Z 100f1d60 f   AAS_routing.obj
 0001:000f0de0       ?ClusterAreaNum@idAASLocal@@ABEHHH@Z 100f1de0 f i AAS_routing.obj
 0001:000f0e90       ?UpdateAreaRoutingCache@idAASLocal@@ABEXPAVidRoutingCache@@@Z 100f1e90 f   AAS_routing.obj
 0001:000f12b0       ?GetAreaRoutingCache@idAASLocal@@ABEPAVidRoutingCache@@HHH@Z 100f22b0 f   AAS_routing.obj
 0001:000f1450       ?UpdatePortalRoutingCache@idAASLocal@@ABEXPAVidRoutingCache@@@Z 100f2450 f   AAS_routing.obj
 0001:000f1740       ?GetPortalRoutingCache@idAASLocal@@ABEPAVidRoutingCache@@HHH@Z 100f2740 f   AAS_routing.obj
 0001:000f18d0       ?RouteToGoalArea@idAASLocal@@UBE_NHVidVec3@@HHAAHPAPAVidReachability@@@Z 100f28d0 f   AAS_routing.obj
 0001:000f1df0       ?TravelTimeToGoalArea@idAASLocal@@UBEHHABVidVec3@@HH@Z 100f2df0 f   AAS_routing.obj
 0001:000f1ed0       ?FindNearestGoal@idAASLocal@@UBE_NAAUaasGoal_s@@HVidVec3@@ABV3@HPAUaasObstacle_s@@HAAVidAASCallback@@@Z 100f2ed0 f   AAS_routing.obj
 0001:000f2760       ?Num@?$idList@PAVidRoutingObstacle@@@@QBEHXZ 100f3760 f i AAS_routing.obj
 0001:000f2790       ??A?$idList@PAVidRoutingObstacle@@@@QAEAAPAVidRoutingObstacle@@H@Z 100f3790 f i AAS_routing.obj
 0001:000f2820       ?Append@?$idList@PAVidRoutingObstacle@@@@QAEHABQAVidRoutingObstacle@@@Z 100f3820 f i AAS_routing.obj
 0001:000f28e0       ?RemoveIndex@?$idList@PAVidRoutingObstacle@@@@QAE_NH@Z 100f38e0 f i AAS_routing.obj
 0001:000f29e0       ?Resize@?$idList@PAVidRoutingObstacle@@@@QAEXH@Z 100f39e0 f i AAS_routing.obj
 0001:000f2b00       ?GetNode@idAASFile@@QBEABUaasNode_s@@H@Z 100f3b00 f i AAS_routing.obj
 0001:000f2b50       ??A?$idList@UaasNode_s@@@@QBEABUaasNode_s@@H@Z 100f3b50 f i AAS_routing.obj
 0001:000f2be0       ?GetNumPortals@idAASFile@@QBEHXZ 100f3be0 f i AAS_routing.obj
 0001:000f2c30       ?Num@?$idList@UaasPortal_s@@@@QBEHXZ 100f3c30 f i AAS_routing.obj
 0001:000f2c60       ?GetPortal@idAASFile@@QAEABUaasPortal_s@@H@Z 100f3c60 f i AAS_routing.obj
 0001:000f2cb0       ??A?$idList@UaasPortal_s@@@@QAEAAUaasPortal_s@@H@Z 100f3cb0 f i AAS_routing.obj
 0001:000f2d40       ?GetPortalIndex@idAASFile@@QBEABHH@Z 100f3d40 f i AAS_routing.obj
 0001:000f2d90       ?GetNumClusters@idAASFile@@QBEHXZ 100f3d90 f i AAS_routing.obj
 0001:000f2de0       ?Num@?$idList@UaasCluster_s@@@@QBEHXZ 100f3de0 f i AAS_routing.obj
 0001:000f2e10       ?GetCluster@idAASFile@@QBEABUaasCluster_s@@H@Z 100f3e10 f i AAS_routing.obj
 0001:000f2e60       ??A?$idList@UaasCluster_s@@@@QBEABUaasCluster_s@@H@Z 100f3e60 f i AAS_routing.obj
 0001:000f2ef0       ?SetPortalMaxTravelTime@idAASFile@@QAEXHH@Z 100f3ef0 f i AAS_routing.obj
 0001:000f2f50       ?SetAreaTravelFlag@idAASFile@@QAEXHH@Z 100f3f50 f i AAS_routing.obj
 0001:000f2fc0       ?RemoveAreaTravelFlag@idAASFile@@QAEXHH@Z 100f3fc0 f i AAS_routing.obj
 0001:000f3030       ??0idMoveState@@QAE@XZ     100f4030 f   AI.obj
 0001:000f3190       ?Save@idMoveState@@QBEXPAVidSaveGame@@@Z 100f4190 f   AI.obj
 0001:000f32f0       ?Restore@idMoveState@@QAEXPAVidRestoreGame@@@Z 100f42f0 f   AI.obj
 0001:000f3450       ??0idAASFindCover@@QAE@ABVidVec3@@@Z 100f4450 f   AI.obj
 0001:000f35a0       ??1idAASCallback@@UAE@XZ   100f45a0 f i AI.obj
 0001:000f35e0       ??_GidAASCallback@@UAEPAXI@Z 100f45e0 f i AI.obj
 0001:000f35e0       ??_EidAASCallback@@UAEPAXI@Z 100f45e0 f i AI.obj
 0001:000f3640       ??_EidAASFindCover@@UAEPAXI@Z 100f4640 f i AI.obj
 0001:000f3640       ??_GidAASFindCover@@UAEPAXI@Z 100f4640 f i AI.obj
 0001:000f36a0       ??0idAASCallback@@QAE@XZ   100f46a0 f i AI.obj
 0001:000f36e0       ??1idAASFindCover@@UAE@XZ  100f46e0 f   AI.obj
 0001:000f3770       ?TestArea@idAASFindCover@@UAE_NPBVidAAS@@H@Z 100f4770 f   AI.obj
 0001:000f38b0       ??0idAASFindAreaOutOfRange@@QAE@ABVidVec3@@M@Z 100f48b0 f   AI.obj
 0001:000f3950       ??_EidAASFindAreaOutOfRange@@UAEPAXI@Z 100f4950 f i AI.obj
 0001:000f3950       ??_GidAASFindAreaOutOfRange@@UAEPAXI@Z 100f4950 f i AI.obj
 0001:000f39b0       ??1idAASFindAreaOutOfRange@@UAE@XZ 100f49b0 f i AI.obj
 0001:000f39f0       ?TestArea@idAASFindAreaOutOfRange@@UAE_NPBVidAAS@@H@Z 100f49f0 f   AI.obj
 0001:000f3b50       ??0idAASFindAttackPosition@@QAE@PBVidAI@@ABVidMat3@@PAVidEntity@@ABVidVec3@@3@Z 100f4b50 f   AI.obj
 0001:000f3d90       ??_EidAASFindAttackPosition@@UAEPAXI@Z 100f4d90 f i AI.obj
 0001:000f3d90       ??_GidAASFindAttackPosition@@UAEPAXI@Z 100f4d90 f i AI.obj
 0001:000f3df0       ??1idAASFindAttackPosition@@UAE@XZ 100f4df0 f   AI.obj
 0001:000f3e80       ?TestArea@idAASFindAttackPosition@@UAE_NPBVidAAS@@H@Z 100f4e80 f   AI.obj
 0001:000f4120       ??0idAI@@QAE@XZ            100f5120 f   AI.obj
 0001:000f48d0       ??_GidAI@@UAEPAXI@Z        100f58d0 f i AI.obj
 0001:000f48d0       ??_EidAI@@UAEPAXI@Z        100f58d0 f i AI.obj
 0001:000f4930       ??1idPhysics_Monster@@UAE@XZ 100f5930 f i AI.obj
 0001:000f4970       ??1idAI@@UAE@XZ            100f5970 f   AI.obj
 0001:000f4af0       ?Save@idAI@@QBEXPAVidSaveGame@@@Z 100f5af0 f   AI.obj
 0001:000f5330       ?Normalize@idVec2@@QAEMXZ  100f6330 f i AI.obj
 0001:000f53c0       ?Restore@idAI@@QAEXPAVidRestoreGame@@@Z 100f63c0 f   AI.obj
 0001:000f5d20       ?Spawn@idAI@@QAEXXZ        100f6d20 f   AI.obj
 0001:000f6e00       ?InitMuzzleFlash@idAI@@IAEXXZ 100f7e00 f   AI.obj
 0001:000f6ff0       ?List_f@idAI@@SAXABVidCmdArgs@@@Z 100f7ff0 f   AI.obj
 0001:000f7130       ?DormantBegin@idAI@@MAEXXZ 100f8130 f   AI.obj
 0001:000f71f0       ?DormantEnd@idAI@@MAEXXZ   100f81f0 f   AI.obj
 0001:000f72d0       ?Think@idAI@@MAEXXZ        100f82d0 f   AI.obj
 0001:000f7680       ?LinkScriptVariables@idAI@@IAEXXZ 100f8680 f   AI.obj
 0001:000f78b0       ?UpdateAIScript@idAI@@IAEXXZ 100f88b0 f   AI.obj
 0001:000f7940       ?KickObstacles@idAI@@IAEXABVidVec3@@MPAVidEntity@@@Z 100f8940 f   AI.obj
 0001:000f7ed0       ??DidVec2@@QBE?AV0@M@Z     100f8ed0 f i AI.obj
 0001:000f7f30       ??YidVec2@@QAEAAV0@ABV0@@Z 100f8f30 f i AI.obj
 0001:000f7f80       ?ValidForBounds@@YA_NPBVidAASSettings@@ABVidBounds@@@Z 100f8f80 f   AI.obj
 0001:000f8060       ?SetAAS@idAI@@IAEXXZ       100f9060 f   AI.obj
 0001:000f8230       ?DrawRoute@idAI@@IBEXXZ    100f9230 f   AI.obj
 0001:000f83a0       ?ReachedPos@idAI@@IBE_NABVidVec3@@W4moveCommand_t@@@Z 100f93a0 f   AI.obj
 0001:000f85a0       ?PointReachableAreaNum@idAI@@IBEHABVidVec3@@M@Z 100f95a0 f   AI.obj
 0001:000f8730       ?PathToGoal@idAI@@IBE_NAAUaasPath_s@@HABVidVec3@@H1@Z 100f9730 f   AI.obj
 0001:000f88e0       ?TravelDistance@idAI@@IBEMABVidVec3@@0@Z 100f98e0 f   AI.obj
 0001:000f8ce0       ?LengthFast@idVec2@@QBEMXZ 100f9ce0 f i AI.obj
 0001:000f8d50       ?StopMove@idAI@@IAEXW4moveStatus_t@@@Z 100f9d50 f   AI.obj
 0001:000f8f00       ?FaceEnemy@idAI@@IAE_NXZ   100f9f00 f   AI.obj
 0001:000f9050       ?FaceEntity@idAI@@IAE_NPAVidEntity@@@Z 100fa050 f   AI.obj
 0001:000f9200       ?DirectMoveToPosition@idAI@@IAE_NABVidVec3@@@Z 100fa200 f   AI.obj
 0001:000f93d0       ?MoveToEnemyHeight@idAI@@IAE_NXZ 100fa3d0 f   AI.obj
 0001:000f9510       ?MoveToEnemy@idAI@@IAE_NXZ 100fa510 f   AI.obj
 0001:000f98b0       ?MoveToEntity@idAI@@IAE_NPAVidEntity@@@Z 100fa8b0 f   AI.obj
 0001:000f9c90       ?MoveOutOfRange@idAI@@IAE_NPAVidEntity@@M@Z 100fac90 f   AI.obj
 0001:000fa0b0       ?MoveToAttackPosition@idAI@@IAE_NPAVidEntity@@H@Z 100fb0b0 f   AI.obj
 0001:000fa4b0       ?MoveToPosition@idAI@@IAE_NABVidVec3@@@Z 100fb4b0 f   AI.obj
 0001:000fa790       ?MoveToCover@idAI@@IAE_NPAVidEntity@@ABVidVec3@@@Z 100fb790 f   AI.obj
 0001:000fab20       ?SlideToPosition@idAI@@IAE_NABVidVec3@@M@Z 100fbb20 f   AI.obj
 0001:000face0       ?WanderAround@idAI@@IAE_NXZ 100fbce0 f   AI.obj
 0001:000fae70       ?MoveDone@idAI@@IBE_NXZ    100fbe70 f   AI.obj
 0001:000faeb0       ?StepDirection@idAI@@IAE_NM@Z 100fbeb0 f   AI.obj
 0001:000fb2b0       ?NewWanderDir@idAI@@IAE_NABVidVec3@@@Z 100fc2b0 f   AI.obj
 0001:000fb6b0       ?GetMovePos@idAI@@IAE_NAAVidVec3@@@Z 100fc6b0 f   AI.obj
 0001:000fbb70       ?EntityCanSeePos@idAI@@IAE_NPAVidActor@@ABVidVec3@@1@Z 100fcb70 f   AI.obj
 0001:000fbea0       ?BlockedFailSafe@idAI@@IAEXXZ 100fcea0 f   AI.obj
 0001:000fc040       ?Turn@idAI@@IAEXXZ         100fd040 f   AI.obj
 0001:000fc600       ?FacingIdeal@idAI@@IAE_NXZ 100fd600 f   AI.obj
 0001:000fc6b0       ?TurnToward@idAI@@IAE_NM@Z 100fd6b0 f   AI.obj
 0001:000fc710       ?TurnToward@idAI@@IAE_NABVidVec3@@@Z 100fd710 f   AI.obj
 0001:000fc870       ?ApplyImpulse@idAI@@MAEXPAVidEntity@@HABVidVec3@@1@Z 100fd870 f   AI.obj
 0001:000fc8e0       ?GetMoveDelta@idAI@@IAEXABVidMat3@@0AAVidVec3@@@Z 100fd8e0 f   AI.obj
 0001:000fca60       ?CheckObstacleAvoidance@idAI@@IAEXABVidVec3@@AAV2@@Z 100fda60 f   AI.obj
 0001:000fcf50       ?DeadMove@idAI@@IAEXXZ     100fdf50 f   AI.obj
 0001:000fd080       ?AnimMove@idAI@@IAEXXZ     100fe080 f   AI.obj
 0001:000fd840       ?Seek@@YA?AVidVec3@@AAV1@ABV1@1M@Z 100fe840 f   AI.obj
 0001:000fd970       ?SlideMove@idAI@@IAEXXZ    100fe970 f   AI.obj
 0001:000fe2e0       ?Truncate@idVec3@@QAEAAV1@M@Z 100ff2e0 f i AI.obj
 0001:000fe390       ?AdjustFlyingAngles@idAI@@IAEXXZ 100ff390 f   AI.obj
 0001:000fe630       ?AddFlyBob@idAI@@IAEXAAVidVec3@@@Z 100ff630 f   AI.obj
 0001:000fe820       ?AdjustFlyHeight@idAI@@IAEXAAVidVec3@@ABV2@@Z 100ff820 f   AI.obj
 0001:000feb50       ?FlySeekGoal@idAI@@IAEXAAVidVec3@@0@Z 100ffb50 f   AI.obj
 0001:000fec30       ?AdjustFlySpeed@idAI@@IAEXAAVidVec3@@@Z 100ffc30 f   AI.obj
 0001:000fed30       ?FlyTurn@idAI@@IAEXXZ      100ffd30 f   AI.obj
 0001:000fee60       ?FlyMove@idAI@@IAEXXZ      100ffe60 f   AI.obj
 0001:000ff580       ?StaticMove@idAI@@IAEXXZ   10100580 f   AI.obj
 0001:000ff880       ?ReactionTo@idAI@@IAEHPBVidEntity@@@Z 10100880 f   AI.obj
 0001:000ff980       ?Pain@idAI@@MAE_NPAVidEntity@@0HABVidVec3@@H@Z 10100980 f   AI.obj
 0001:000ffb00       ?SpawnParticles@idAI@@IAEXPBD@Z 10100b00 f   AI.obj
 0001:000ffd50       ??0particleEmitter_s@@QAE@XZ 10100d50 f i AI.obj
 0001:000ffda0       ?SpawnParticlesOnJoint@idAI@@IAEPBVidDeclParticle@@AAUparticleEmitter_s@@PBD1@Z 10100da0 f   AI.obj
 0001:000fff90       ?Killed@idAI@@MAEXPAVidEntity@@0HABVidVec3@@H@Z 10100f90 f   AI.obj
 0001:001004f0       ?PlayCinematic@idAI@@IAEXXZ 101014f0 f   AI.obj
 0001:00100860       ?Activate@idAI@@IAEXPAVidEntity@@@Z 10101860 f   AI.obj
 0001:00100a40       ?EnemyDead@idAI@@IAEXXZ    10101a40 f   AI.obj
 0001:00100aa0       ?TalkTo@idAI@@QAEXPAVidActor@@@Z 10101aa0 f   AI.obj
 0001:00100b40       ?GetEnemy@idAI@@QBEPAVidActor@@XZ 10101b40 f   AI.obj
 0001:00100b90       ?GetTalkState@idAI@@QBE?AW4talkState_t@@XZ 10101b90 f   AI.obj
 0001:00100c10       ?TouchedByFlashlight@idAI@@QAEXPAVidActor@@@Z 10101c10 f   AI.obj
 0001:00100c70       ?ClearEnemy@idAI@@IAEXXZ   10101c70 f   AI.obj
 0001:00100d40       ?EnemyPositionValid@idAI@@IBE_NXZ 10101d40 f   AI.obj
 0001:00100e70       ?SetEnemyPosition@idAI@@IAEXXZ 10101e70 f   AI.obj
 0001:001013a0       ?UpdateEnemyPosition@idAI@@IAEXXZ 101023a0 f   AI.obj
 0001:001017f0       ?SetEnemy@idAI@@IAEXPAVidActor@@@Z 101027f0 f   AI.obj
 0001:001019f0       ?FirstVisiblePointOnPath@idAI@@IBE?AVidVec3@@V2@ABV2@H@Z 101029f0 f   AI.obj
 0001:00101c40       ?CalculateAttackOffsets@idAI@@IAEXXZ 10102c40 f   AI.obj
 0001:00101e40       ?CreateProjectileClipModel@idAI@@IBEXXZ 10102e40 f   AI.obj
 0001:00101f70       ?GetAimDir@idAI@@QBE_NABVidVec3@@PAVidEntity@@PBV3@AAV2@@Z 10102f70 f   AI.obj
 0001:001022c0       ?BeginAttack@idAI@@IAEXPBD@Z 101032c0 f   AI.obj
 0001:00102320       ?EndAttack@idAI@@IAEXXZ    10103320 f   AI.obj
 0001:00102370       ?CreateProjectile@idAI@@IAEPAVidProjectile@@ABVidVec3@@0@Z 10103370 f   AI.obj
 0001:001024b0       ?RemoveProjectile@idAI@@IAEXXZ 101034b0 f   AI.obj
 0001:00102530       ?LaunchProjectile@idAI@@IAEPAVidProjectile@@PBDPAVidEntity@@_N@Z 10103530 f   AI.obj
 0001:00102ec0       ?DamageFeedback@idAI@@MAEXPAVidEntity@@0AAH@Z 10103ec0 f   AI.obj
 0001:00102f60       ?DirectDamage@idAI@@IAEXPBDPAVidEntity@@@Z 10103f60 f   AI.obj
 0001:00103180       ?TestMelee@idAI@@IBE_NXZ   10104180 f   AI.obj
 0001:001035c0       ?AttackMelee@idAI@@IAE_NPBD@Z 101045c0 f   AI.obj
 0001:00103950       ?PushWithAF@idAI@@IAEXXZ   10104950 f   AI.obj
 0001:00103c50       ?GetMuzzle@idAI@@IAEXPBDAAVidVec3@@AAVidMat3@@@Z 10104c50 f   AI.obj
 0001:00103df0       ?TriggerWeaponEffects@idAI@@IAEXABVidVec3@@@Z 10104df0 f   AI.obj
 0001:00103fb0       ?UpdateMuzzleFlash@idAI@@IAEXXZ 10104fb0 f   AI.obj
 0001:001041a0       ?Hide@idAI@@MAEXXZ         101051a0 f   AI.obj
 0001:001042a0       ?Show@idAI@@MAEXXZ         101052a0 f   AI.obj
 0001:00104410       ?SetChatSound@idAI@@IAEXXZ 10105410 f   AI.obj
 0001:00104640       ?CanPlayChatterSounds@idAI@@MBE_NXZ 10105640 f   AI.obj
 0001:001046e0       ?PlayChatter@idAI@@IAEXXZ  101056e0 f   AI.obj
 0001:001047d0       ?UpdateParticles@idAI@@IAEXXZ 101057d0 f   AI.obj
 0001:00104ad0       ?TriggerParticles@idAI@@IAEXPBD@Z 10105ad0 f   AI.obj
 0001:00104b90       ?UpdateAnimationControllers@idAI@@MAE_NXZ 10105b90 f   AI.obj
 0001:00105b80       ?CreateInstance@idCombatNode@@SAPAVidClass@@XZ 10106b80 f   AI.obj
 0001:00105c70       ?GetType@idCombatNode@@UBEPAVidTypeInfo@@XZ 10106c70 f   AI.obj
 0001:00105ca0       ??0idCombatNode@@QAE@XZ    10106ca0 f   AI.obj
 0001:00105dc0       ??_EidCombatNode@@UAEPAXI@Z 10106dc0 f i AI.obj
 0001:00105dc0       ??_GidCombatNode@@UAEPAXI@Z 10106dc0 f i AI.obj
 0001:00105e20       ??1idCombatNode@@UAE@XZ    10106e20 f i AI.obj
 0001:00105e60       ?Save@idCombatNode@@QBEXPAVidSaveGame@@@Z 10106e60 f   AI.obj
 0001:00105f40       ?Restore@idCombatNode@@QAEXPAVidRestoreGame@@@Z 10106f40 f   AI.obj
 0001:00106020       ?Spawn@idCombatNode@@QAEXXZ 10107020 f   AI.obj
 0001:001062a0       ?IsDisabled@idCombatNode@@QBE_NXZ 101072a0 f   AI.obj
 0001:001062e0       ?DrawDebugInfo@idCombatNode@@SAXXZ 101072e0 f   AI.obj
 0001:00106890       ?EntityInView@idCombatNode@@QAE_NPAVidActor@@ABVidVec3@@@Z 10107890 f   AI.obj
 0001:00106ab0       ?Event_Activate@idCombatNode@@AAEXPAVidEntity@@@Z 10107ab0 f   AI.obj
 0001:00106b00       ?Event_MarkUsed@idCombatNode@@AAEXXZ 10107b00 f   AI.obj
 0001:00106b60       ?Compare@idAngles@@QBE_NABV1@M@Z 10107b60 f i AI.obj
 0001:00106c10       ?Clamp@idAngles@@QAEXABV1@0@Z 10107c10 f i AI.obj
 0001:00106d00       ?InList@?$idLinkList@VidActor@@@@QBE_NXZ 10107d00 f i AI.obj
 0001:00106d40       ?SetGranularity@?$idList@W4jointHandle_t@@@@QAEXH@Z 10107d40 f i AI.obj
 0001:00106df0       ??A?$idList@W4jointHandle_t@@@@QBEABW4jointHandle_t@@H@Z 10107df0 f i AI.obj
 0001:00106e80       ?SetNum@?$idList@W4jointHandle_t@@@@QAEXH_N@Z 10107e80 f i AI.obj
 0001:00106f00       ?Append@?$idList@W4jointHandle_t@@@@QAEHABW4jointHandle_t@@@Z 10107f00 f i AI.obj
 0001:00106fc0       ??0?$idList@VidAngles@@@@QAE@H@Z 10107fc0 f i AI.obj
 0001:00107040       ??1?$idList@VidAngles@@@@QAE@XZ 10108040 f i AI.obj
 0001:00107080       ?SetGranularity@?$idList@VidAngles@@@@QAEXH@Z 10108080 f i AI.obj
 0001:00107130       ??A?$idList@VidAngles@@@@QAEAAVidAngles@@H@Z 10108130 f i AI.obj
 0001:001071c0       ??A?$idList@VidAngles@@@@QBEABVidAngles@@H@Z 101081c0 f i AI.obj
 0001:00107250       ?SetNum@?$idList@VidAngles@@@@QAEXH_N@Z 10108250 f i AI.obj
 0001:001072d0       ?Append@?$idList@VidAngles@@@@QAEHABVidAngles@@@Z 101082d0 f i AI.obj
 0001:001073a0       ??0?$idList@UparticleEmitter_s@@@@QAE@H@Z 101083a0 f i AI.obj
 0001:00107420       ??1?$idList@UparticleEmitter_s@@@@QAE@XZ 10108420 f i AI.obj
 0001:00107460       ?Clear@?$idList@UparticleEmitter_s@@@@QAEXXZ 10108460 f i AI.obj
 0001:001074e0       ?Num@?$idList@UparticleEmitter_s@@@@QBEHXZ 101084e0 f i AI.obj
 0001:00107510       ??A?$idList@UparticleEmitter_s@@@@QAEAAUparticleEmitter_s@@H@Z 10108510 f i AI.obj
 0001:001075a0       ??A?$idList@UparticleEmitter_s@@@@QBEABUparticleEmitter_s@@H@Z 101085a0 f i AI.obj
 0001:00107630       ?SetNum@?$idList@UparticleEmitter_s@@@@QAEXH_N@Z 10108630 f i AI.obj
 0001:001076b0       ?Append@?$idList@UparticleEmitter_s@@@@QAEHABUparticleEmitter_s@@@Z 101086b0 f i AI.obj
 0001:00107780       ??0?$idScriptVariable@M$03M@@QAE@XZ 10108780 f i AI.obj
 0001:001077c0       ?LinkTo@?$idScriptVariable@M$03M@@QAEXAAVidScriptObject@@PBD@Z 101087c0 f i AI.obj
 0001:00107840       ??4?$idScriptVariable@M$03M@@QAEAAV0@ABM@Z 10108840 f i AI.obj
 0001:001078c0       ?Resize@?$idList@W4jointHandle_t@@@@QAEXH@Z 101088c0 f i AI.obj
 0001:001079e0       ?Clear@?$idList@VidAngles@@@@QAEXXZ 101089e0 f i AI.obj
 0001:00107a60       ?Resize@?$idList@VidAngles@@@@QAEXH@Z 10108a60 f i AI.obj
 0001:00107c00       ?Resize@?$idList@UparticleEmitter_s@@@@QAEXH@Z 10108c00 f i AI.obj
 0001:00107db0       ?TranslateSelf@idBounds@@QAEAAV1@ABVidVec3@@@Z 10108db0 f i AI.obj
 0001:00107e10       ?CreateInstance@idAI@@SAPAVidClass@@XZ 10108e10 f   AI_events.obj
 0001:00107f00       ?GetType@idAI@@UBEPAVidTypeInfo@@XZ 10108f00 f   AI_events.obj
 0001:00107f30       ?Event_Activate@idAI@@IAEXPAVidEntity@@@Z 10108f30 f   AI_events.obj
 0001:00107f80       ?Event_Touch@idAI@@IAEXPAVidEntity@@PAUtrace_s@@@Z 10108f80 f   AI_events.obj
 0001:00108020       ?Event_FindEnemy@idAI@@IAEXH@Z 10109020 f   AI_events.obj
 0001:00108120       ?Event_FindEnemyAI@idAI@@IAEXH@Z 10109120 f   AI_events.obj
 0001:00108370       ?Event_FindEnemyInCombatNodes@idAI@@IAEXXZ 10109370 f   AI_events.obj
 0001:00108520       ?Event_ClosestReachableEnemyOfEntity@idAI@@IAEXPAVidEntity@@@Z 10109520 f   AI_events.obj
 0001:00108780       ?Event_HeardSound@idAI@@IAEXH@Z 10109780 f   AI_events.obj
 0001:00108900       ?Event_SetEnemy@idAI@@IAEXPAVidEntity@@@Z 10109900 f   AI_events.obj
 0001:00108990       ?Event_ClearEnemy@idAI@@IAEXXZ 10109990 f   AI_events.obj
 0001:001089d0       ?Event_MuzzleFlash@idAI@@IAEXPBD@Z 101099d0 f   AI_events.obj
 0001:00108a80       ?Event_CreateMissile@idAI@@IAEXPBD@Z 10109a80 f   AI_events.obj
 0001:00108c10       ?Event_AttackMissile@idAI@@IAEXPBD@Z 10109c10 f   AI_events.obj
 0001:00108c80       ?Event_FireMissileAtTarget@idAI@@IAEXPBD0@Z 10109c80 f   AI_events.obj
 0001:00108d10       ?Event_LaunchMissile@idAI@@IAEXABVidVec3@@ABVidAngles@@@Z 10109d10 f   AI_events.obj
 0001:00109230       ?Event_AttackMelee@idAI@@IAEXPBD@Z 1010a230 f   AI_events.obj
 0001:00109290       ?Event_DirectDamage@idAI@@IAEXPAVidEntity@@PBD@Z 1010a290 f   AI_events.obj
 0001:001092e0       ?Event_RadiusDamageFromJoint@idAI@@IAEXPBD0@Z 1010a2e0 f   AI_events.obj
 0001:00109420       ?Event_RandomPath@idAI@@IAEXXZ 1010a420 f   AI_events.obj
 0001:00109480       ?Event_BeginAttack@idAI@@IAEXPBD@Z 1010a480 f   AI_events.obj
 0001:001094d0       ?Event_EndAttack@idAI@@IAEXXZ 1010a4d0 f   AI_events.obj
 0001:00109510       ?Event_MeleeAttackToJoint@idAI@@IAEXPBD0@Z 1010a510 f   AI_events.obj
 0001:001097b0       ?Event_CanBecomeSolid@idAI@@IAEXXZ 1010a7b0 f   AI_events.obj
 0001:00109910       ?Event_BecomeSolid@idAI@@IAEXXZ 1010a910 f   AI_events.obj
 0001:00109a80       ?Event_BecomeNonSolid@idAI@@IAEXXZ 1010aa80 f   AI_events.obj
 0001:00109b20       ?Event_BecomeRagdoll@idAI@@IAEXXZ 1010ab20 f   AI_events.obj
 0001:00109b70       ?Event_StopRagdoll@idAI@@IAEXXZ 1010ab70 f   AI_events.obj
 0001:00109bc0       ?Event_SetHealth@idAI@@IAEXM@Z 1010abc0 f   AI_events.obj
 0001:00109c70       ?Event_GetHealth@idAI@@IAEXXZ 1010ac70 f   AI_events.obj
 0001:00109cc0       ?Event_AllowDamage@idAI@@IAEXXZ 1010acc0 f   AI_events.obj
 0001:00109d00       ?Event_IgnoreDamage@idAI@@IAEXXZ 1010ad00 f   AI_events.obj
 0001:00109d40       ?Event_GetCurrentYaw@idAI@@IAEXXZ 1010ad40 f   AI_events.obj
 0001:00109d90       ?Event_TurnTo@idAI@@IAEXM@Z 1010ad90 f   AI_events.obj
 0001:00109de0       ?Event_TurnToPos@idAI@@IAEXABVidVec3@@@Z 1010ade0 f   AI_events.obj
 0001:00109e30       ?Event_TurnToEntity@idAI@@IAEXPAVidEntity@@@Z 1010ae30 f   AI_events.obj
 0001:00109eb0       ?Event_MoveStatus@idAI@@IAEXXZ 1010aeb0 f   AI_events.obj
 0001:00109f00       ?Event_StopMove@idAI@@IAEXXZ 1010af00 f   AI_events.obj
 0001:00109f50       ?Event_MoveToCover@idAI@@IAEXXZ 1010af50 f   AI_events.obj
 0001:00109fc0       ?Event_MoveToEnemy@idAI@@IAEXXZ 1010afc0 f   AI_events.obj
 0001:0010a020       ?Event_MoveToEnemyHeight@idAI@@IAEXXZ 1010b020 f   AI_events.obj
 0001:0010a070       ?Event_MoveOutOfRange@idAI@@IAEXPAVidEntity@@M@Z 1010b070 f   AI_events.obj
 0001:0010a0d0       ?Event_MoveToAttackPosition@idAI@@IAEXPAVidEntity@@PBD@Z 1010b0d0 f   AI_events.obj
 0001:0010a150       ?Event_MoveToEntity@idAI@@IAEXPAVidEntity@@@Z 1010b150 f   AI_events.obj
 0001:0010a1b0       ?Event_MoveToPosition@idAI@@IAEXABVidVec3@@@Z 1010b1b0 f   AI_events.obj
 0001:0010a200       ?Event_SlideTo@idAI@@IAEXABVidVec3@@M@Z 1010b200 f   AI_events.obj
 0001:0010a250       ?Event_Wander@idAI@@IAEXXZ 1010b250 f   AI_events.obj
 0001:0010a290       ?Event_FacingIdeal@idAI@@IAEXXZ 1010b290 f   AI_events.obj
 0001:0010a2e0       ?Event_FaceEnemy@idAI@@IAEXXZ 1010b2e0 f   AI_events.obj
 0001:0010a320       ?Event_FaceEntity@idAI@@IAEXPAVidEntity@@@Z 1010b320 f   AI_events.obj
 0001:0010a370       ?Event_WaitAction@idAI@@IAEXPBD@Z 1010b370 f   AI_events.obj
 0001:0010a3f0       ?Event_GetCombatNode@idAI@@IAEXXZ 1010b3f0 f   AI_events.obj
 0001:0010a610       ?Event_EnemyInCombatCone@idAI@@IAEXPAVidEntity@@H@Z 1010b610 f   AI_events.obj
 0001:0010a730       ?Event_WaitMove@idAI@@IAEXXZ 1010b730 f   AI_events.obj
 0001:0010a7a0       ?Event_GetJumpVelocity@idAI@@IAEXABVidVec3@@MM@Z 1010b7a0 f   AI_events.obj
 0001:0010a9e0       ?Event_EntityInAttackCone@idAI@@IAEXPAVidEntity@@@Z 1010b9e0 f   AI_events.obj
 0001:0010ab90       ?Event_CanSeeEntity@idAI@@IAEXPAVidEntity@@@Z 1010bb90 f   AI_events.obj
 0001:0010ac00       ?Event_SetTalkTarget@idAI@@IAEXPAVidEntity@@@Z 1010bc00 f   AI_events.obj
 0001:0010acd0       ?Event_GetTalkTarget@idAI@@IAEXXZ 1010bcd0 f   AI_events.obj
 0001:0010ad20       ?Event_SetTalkState@idAI@@IAEXH@Z 1010bd20 f   AI_events.obj
 0001:0010ad90       ?Event_EnemyRange@idAI@@IAEXXZ 1010bd90 f   AI_events.obj
 0001:0010ae70       ?Event_EnemyRange2D@idAI@@IAEXXZ 1010be70 f   AI_events.obj
 0001:0010af60       ?Length@idVec2@@QBEMXZ     1010bf60 f i AI_events.obj
 0001:0010afc0       ?Event_GetEnemy@idAI@@IAEXXZ 1010bfc0 f   AI_events.obj
 0001:0010b010       ?Event_GetEnemyPos@idAI@@IAEXXZ 1010c010 f   AI_events.obj
 0001:0010b060       ?Event_GetEnemyEyePos@idAI@@IAEXXZ 1010c060 f   AI_events.obj
 0001:0010b0c0       ?Event_PredictEnemyPos@idAI@@IAEXM@Z 1010c0c0 f   AI_events.obj
 0001:0010b210       ?Event_CanHitEnemy@idAI@@IAEXXZ 1010c210 f   AI_events.obj
 0001:0010b480       ?Event_CanHitEnemyFromAnim@idAI@@IAEXPBD@Z 1010c480 f   AI_events.obj
 0001:0010bab0       ?Event_CanHitEnemyFromJoint@idAI@@IAEXPBD@Z 1010cab0 f   AI_events.obj
 0001:0010c0b0       ?Event_EnemyPositionValid@idAI@@IAEXXZ 1010d0b0 f   AI_events.obj
 0001:0010c100       ?Event_ChargeAttack@idAI@@IAEXPBD@Z 1010d100 f   AI_events.obj
 0001:0010c270       ?Event_TestChargeAttack@idAI@@IAEXXZ 1010d270 f   AI_events.obj
 0001:0010c600       ?Event_TestAnimMoveTowardEnemy@idAI@@IAEXPBD@Z 1010d600 f   AI_events.obj
 0001:0010c9b0       ?Event_TestAnimMove@idAI@@IAEXPBD@Z 1010d9b0 f   AI_events.obj
 0001:0010ccb0       ?Event_TestMoveToPosition@idAI@@IAEXABVidVec3@@@Z 1010dcb0 f   AI_events.obj
 0001:0010cec0       ?Event_TestMeleeAttack@idAI@@IAEXXZ 1010dec0 f   AI_events.obj
 0001:0010cf10       ?Event_TestAnimAttack@idAI@@IAEXPBD@Z 1010df10 f   AI_events.obj
 0001:0010d080       ?Event_Shrivel@idAI@@IAEXM@Z 1010e080 f   AI_events.obj
 0001:0010d1b0       ?Event_PreBurn@idAI@@IAEXXZ 1010e1b0 f   AI_events.obj
 0001:0010d1f0       ?Event_Burn@idAI@@IAEXXZ   1010e1f0 f   AI_events.obj
 0001:0010d260       ?Event_ClearBurn@idAI@@IAEXXZ 1010e260 f   AI_events.obj
 0001:0010d2d0       ?Event_SetSmokeVisibility@idAI@@IAEXHH@Z 1010e2d0 f   AI_events.obj
 0001:0010d3e0       ?Event_NumSmokeEmitters@idAI@@IAEXXZ 1010e3e0 f   AI_events.obj
 0001:0010d430       ?Event_StopThinking@idAI@@IAEXXZ 1010e430 f   AI_events.obj
 0001:0010d490       ?Event_GetTurnDelta@idAI@@IAEXXZ 1010e490 f   AI_events.obj
 0001:0010d520       ?Event_GetMoveType@idAI@@IAEXXZ 1010e520 f   AI_events.obj
 0001:0010d570       ?Event_SetMoveType@idAI@@IAEXH@Z 1010e570 f   AI_events.obj
 0001:0010d600       ?Event_SaveMove@idAI@@IAEXXZ 1010e600 f   AI_events.obj
 0001:0010d650       ??4idMoveState@@QAEAAV0@ABV0@@Z 1010e650 f i AI_events.obj
 0001:0010d790       ?Event_RestoreMove@idAI@@IAEXXZ 1010e790 f   AI_events.obj
 0001:0010d9d0       ?Event_AllowMovement@idAI@@IAEXM@Z 1010e9d0 f   AI_events.obj
 0001:0010da40       ?Event_JumpFrame@idAI@@IAEXXZ 1010ea40 f   AI_events.obj
 0001:0010daa0       ?Event_EnableClip@idAI@@IAEXXZ 1010eaa0 f   AI_events.obj
 0001:0010db10       ?Event_DisableClip@idAI@@IAEXXZ 1010eb10 f   AI_events.obj
 0001:0010db80       ?Event_EnableGravity@idAI@@IAEXXZ 1010eb80 f   AI_events.obj
 0001:0010dbc0       ?Event_DisableGravity@idAI@@IAEXXZ 1010ebc0 f   AI_events.obj
 0001:0010dc00       ?Event_EnableAFPush@idAI@@IAEXXZ 1010ec00 f   AI_events.obj
 0001:0010dc40       ?Event_DisableAFPush@idAI@@IAEXXZ 1010ec40 f   AI_events.obj
 0001:0010dc80       ?Event_SetFlySpeed@idAI@@IAEXM@Z 1010ec80 f   AI_events.obj
 0001:0010dce0       ?Event_SetFlyOffset@idAI@@IAEXH@Z 1010ece0 f   AI_events.obj
 0001:0010dd20       ?Event_ClearFlyOffset@idAI@@IAEXXZ 1010ed20 f   AI_events.obj
 0001:0010dd80       ?Event_GetClosestHiddenTarget@idAI@@IAEXPBD@Z 1010ed80 f   AI_events.obj
 0001:0010dfe0       ?Event_GetRandomTarget@idAI@@IAEXPBD@Z 1010efe0 f   AI_events.obj
 0001:0010e110       ?Event_TravelDistanceToPoint@idAI@@IAEXABVidVec3@@@Z 1010f110 f   AI_events.obj
 0001:0010e190       ?Event_TravelDistanceToEntity@idAI@@IAEXPAVidEntity@@@Z 1010f190 f   AI_events.obj
 0001:0010e240       ?Event_TravelDistanceBetweenPoints@idAI@@IAEXABVidVec3@@0@Z 1010f240 f   AI_events.obj
 0001:0010e2a0       ?Event_TravelDistanceBetweenEntities@idAI@@IAEXPAVidEntity@@0@Z 1010f2a0 f   AI_events.obj
 0001:0010e3a0       ?Event_LookAtEntity@idAI@@IAEXPAVidEntity@@M@Z 1010f3a0 f   AI_events.obj
 0001:0010e490       ?Event_LookAtEnemy@idAI@@IAEXM@Z 1010f490 f   AI_events.obj
 0001:0010e580       ?Event_SetJointMod@idAI@@IAEXH@Z 1010f580 f   AI_events.obj
 0001:0010e5c0       ?Event_ThrowMoveable@idAI@@IAEXXZ 1010f5c0 f   AI_events.obj
 0001:0010e680       ?Event_ThrowAF@idAI@@IAEXXZ 1010f680 f   AI_events.obj
 0001:0010e740       ?Event_SetAngles@idAI@@IAEXABVidAngles@@@Z 1010f740 f   AI_events.obj
 0001:0010e7c0       ?Event_GetAngles@idAI@@IAEXXZ 1010f7c0 f   AI_events.obj
 0001:0010e820       ?Event_RealKill@idAI@@IAEXXZ 1010f820 f   AI_events.obj
 0001:0010e8c0       ?Event_Kill@idAI@@IAEXXZ   1010f8c0 f   AI_events.obj
 0001:0010e910       ?Event_WakeOnFlashlight@idAI@@IAEXH@Z 1010f910 f   AI_events.obj
 0001:0010e950       ?Event_LocateEnemy@idAI@@IAEXXZ 1010f950 f   AI_events.obj
 0001:0010ea10       ?Event_KickObstacles@idAI@@IAEXPAVidEntity@@M@Z 1010fa10 f   AI_events.obj
 0001:0010eb40       ?Event_GetObstacle@idAI@@IAEXXZ 1010fb40 f   AI_events.obj
 0001:0010eb90       ?Event_PushPointIntoAAS@idAI@@IAEXABVidVec3@@@Z 1010fb90 f   AI_events.obj
 0001:0010ec70       ?Event_GetTurnRate@idAI@@IAEXXZ 1010fc70 f   AI_events.obj
 0001:0010ecc0       ?Event_SetTurnRate@idAI@@IAEXM@Z 1010fcc0 f   AI_events.obj
 0001:0010ed00       ?Event_AnimTurn@idAI@@IAEXM@Z 1010fd00 f   AI_events.obj
 0001:0010ee60       ?Event_AllowHiddenMovement@idAI@@IAEXH@Z 1010fe60 f   AI_events.obj
 0001:0010eea0       ?Event_TriggerParticles@idAI@@IAEXPBD@Z 1010fea0 f   AI_events.obj
 0001:0010eef0       ?Event_FindActorsInBounds@idAI@@IAEXABVidVec3@@0@Z 1010fef0 f   AI_events.obj
 0001:0010f020       ?Event_CanReachPosition@idAI@@IAEXABVidVec3@@@Z 10110020 f   AI_events.obj
 0001:0010f140       ?Event_CanReachEntity@idAI@@IAEXPAVidEntity@@@Z 10110140 f   AI_events.obj
 0001:0010f330       ?Event_CanReachEnemy@idAI@@IAEXXZ 10110330 f   AI_events.obj
 0001:0010f520       ?Event_GetReachableEntityPosition@idAI@@IAEXPAVidEntity@@@Z 10110520 f   AI_events.obj
 0001:0010f690       ?Init@pathNode_s@@QAEXXZ   10110690 f   AI_pathing.obj
 0001:0010f730       ?LineIntersectsPath@@YA_NABVidVec2@@0PBUpathNode_s@@@Z 10110730 f   AI_pathing.obj
 0001:0010f8c0       ?PointInsideObstacle@@YAHPBUobstacle_s@@HABVidVec2@@@Z 101108c0 f   AI_pathing.obj
 0001:0010f9a0       ?GetPointOutsideObstacles@@YAXPBUobstacle_s@@HAAVidVec2@@PAH2@Z 101109a0 f   AI_pathing.obj
 0001:001100f0       ?GetFirstBlockingObstacle@@YA_NPBUobstacle_s@@HHABVidVec2@@1AAMAAH3@Z 101110f0 f   AI_pathing.obj
 0001:001103a0       ?GetObstacles@@YAHPBVidPhysics@@PBVidAAS@@PBVidEntity@@HABVidVec3@@3PAUobstacle_s@@HAAVidBounds@@@Z 101113a0 f   AI_pathing.obj
 0001:001112c0       ?FreePathTree_r@@YAXPAUpathNode_s@@@Z 101122c0 f   AI_pathing.obj
 0001:00111330       ?DrawPathTree@@YAXPBUpathNode_s@@M@Z 10112330 f   AI_pathing.obj
 0001:001114d0       ?GetPathNodeDelta@@YA_NPAUpathNode_s@@PBUobstacle_s@@ABVidVec2@@_N@Z 101124d0 f   AI_pathing.obj
 0001:001117e0       ?BuildPathTree@@YAPAUpathNode_s@@PBUobstacle_s@@HABVidBounds@@ABVidVec2@@2AAUobstaclePath_s@@@Z 101127e0 f   AI_pathing.obj
 0001:00111df0       ??DidVec2@@QBEMABV0@@Z     10112df0 f i AI_pathing.obj
 0001:00111e40       ?PrunePathTree@@YAXPAUpathNode_s@@ABVidVec2@@@Z 10112e40 f   AI_pathing.obj
 0001:00111fd0       ??HidVec2@@QBE?AV0@ABV0@@Z 10112fd0 f i AI_pathing.obj
 0001:00112040       ?OptimizePath@@YAHPBUpathNode_s@@0PBUobstacle_s@@HQAVidVec2@@@Z 10113040 f   AI_pathing.obj
 0001:00112400       ?PathLength@@YAMQAVidVec2@@HABV1@@Z 10113400 f   AI_pathing.obj
 0001:001124c0       ?FindOptimalPath@@YA_NPBUpathNode_s@@PBUobstacle_s@@HMABVidVec3@@AAV3@@Z 101134c0 f   AI_pathing.obj
 0001:00112910       ?FindPathAroundObstacles@idAI@@SA_NPBVidPhysics@@PBVidAAS@@PBVidEntity@@ABVidVec3@@3AAUobstaclePath_s@@@Z 10113910 f   AI_pathing.obj
 0001:00112d60       ??0obstacle_s@@QAE@XZ      10113d60 f i AI_pathing.obj
 0001:00112dc0       ?FreeObstacleAvoidanceNodes@idAI@@SAXXZ 10113dc0 f   AI_pathing.obj
 0001:00112e00       ?PathTrace@@YA_NPBVidEntity@@PBVidAAS@@ABVidVec3@@2HAAUpathTrace_s@@AAUpredictedPath_s@@@Z 10113e00 f   AI_pathing.obj
 0001:00113280       ?PredictPath@idAI@@SA_NPBVidEntity@@PBVidAAS@@ABVidVec3@@2HHHAAUpredictedPath_s@@@Z 10114280 f   AI_pathing.obj
 0001:00113ba0       ?ProjectOntoPlane@idVec3@@QAEXABV1@M@Z 10114ba0 f i AI_pathing.obj
 0001:00113c60       ??0pathTrace_s@@QAE@XZ     10114c60 f i AI_pathing.obj
 0001:00113cb0       ?TestTrajectory@idAI@@SA_NABVidVec3@@0MMMMPBVidClipModel@@HPBVidEntity@@2H@Z 10114cb0 f   AI_pathing.obj
 0001:00114260       ?PredictTrajectory@idAI@@SA_NABVidVec3@@0M0PBVidClipModel@@HMPBVidEntity@@2HAAV2@@Z 10115260 f   AI_pathing.obj
 0001:00114b40       ?GetAllocCount@?$idBlockAlloc@UpathNode_s@@$0IA@@@QBEHXZ 10115b40 f i AI_pathing.obj
 0001:00114b70       ?Shutdown@?$idBlockAlloc@UpathNode_s@@$0IA@@@QAEXXZ 10115b70 f i AI_pathing.obj
 0001:00114c10       ?Alloc@?$idBlockAlloc@UpathNode_s@@$0IA@@@QAEPAUpathNode_s@@XZ 10115c10 f i AI_pathing.obj
 0001:00114d70       ?Free@?$idBlockAlloc@UpathNode_s@@$0IA@@@QAEXPAUpathNode_s@@@Z 10115d70 f i AI_pathing.obj
 0001:00114dd0       ??0?$idQueueTemplate@UpathNode_s@@$0DA@@@QAE@XZ 10115dd0 f i AI_pathing.obj
 0001:00114e10       ?Add@?$idQueueTemplate@UpathNode_s@@$0DA@@@QAEXPAUpathNode_s@@@Z 10115e10 f i AI_pathing.obj
 0001:00114e70       ?Get@?$idQueueTemplate@UpathNode_s@@$0DA@@@QAEPAUpathNode_s@@XZ 10115e70 f i AI_pathing.obj
 0001:00114ee0       ??0block_s@?$idBlockAlloc@UpathNode_s@@$0IA@@@QAE@XZ 10115ee0 f i AI_pathing.obj
 0001:00114f30       ??0element_s@?$idBlockAlloc@UpathNode_s@@$0IA@@@QAE@XZ 10115f30 f i AI_pathing.obj
 0001:00114f80       ??0pathNode_s@@QAE@XZ      10115f80 f i AI_pathing.obj
 0001:00114fd0       ?Translate@idBounds@@QBE?AV1@ABVidVec3@@@Z 10115fd0 f i AI_pathing.obj
 0001:00115040       ?AxisProjection@idBounds@@QBEXABVidVec3@@AAM1@Z 10116040 f i AI_pathing.obj
 0001:001151d0       ??0idBox@@QAE@XZ           101161d0 f i AI_pathing.obj
 0001:00115230       ??4idBox@@QAEAAV0@ABV0@@Z  10116230 f i AI_pathing.obj
 0001:001152a0       ??0idWinding2D@@QAE@XZ     101162a0 f i AI_pathing.obj
 0001:00115300       ??4idWinding2D@@QAEAAV0@ABV0@@Z 10116300 f i AI_pathing.obj
 0001:00115380       ??AidWinding2D@@QBEABVidVec2@@H@Z 10116380 f i AI_pathing.obj
 0001:001153c0       ??AidWinding2D@@QAEAAVidVec2@@H@Z 101163c0 f i AI_pathing.obj
 0001:00115400       ?Clear@idWinding2D@@QAEXXZ 10116400 f i AI_pathing.obj
 0001:00115440       ?AddPoint@idWinding2D@@QAEXABVidVec2@@@Z 10116440 f i AI_pathing.obj
 0001:001154a0       ?GetNumPoints@idWinding2D@@QBEHXZ 101164a0 f i AI_pathing.obj
 0001:001154d0       ?Plane2DFromPoints@idWinding2D@@SA?AVidVec3@@ABVidVec2@@0_N@Z 101164d0 f i AI_pathing.obj
 0001:001155a0       ??0?$idBlockAlloc@UpathNode_s@@$0IA@@@QAE@XZ 101165a0 f i AI_pathing.obj
 0001:00115600       ??1?$idBlockAlloc@UpathNode_s@@$0IA@@@QAE@XZ 10116600 f i AI_pathing.obj
 0001:00115640       ?CreateInstance@idAI_Vagary@@SAPAVidClass@@XZ 10116640 f   AI_Vagary.obj
 0001:00115730       ??0idAI_Vagary@@QAE@XZ     10116730 f i AI_Vagary.obj
 0001:00115780       ??_EidAI_Vagary@@UAEPAXI@Z 10116780 f i AI_Vagary.obj
 0001:00115780       ??_GidAI_Vagary@@UAEPAXI@Z 10116780 f i AI_Vagary.obj
 0001:001157e0       ??1idAI_Vagary@@UAE@XZ     101167e0 f i AI_Vagary.obj
 0001:00115820       ?GetType@idAI_Vagary@@UBEPAVidTypeInfo@@XZ 10116820 f   AI_Vagary.obj
 0001:00115850       ?Event_ChooseObjectToThrow@idAI_Vagary@@AAEXABVidVec3@@0MMM@Z 10116850 f   AI_Vagary.obj
 0001:00115c90       ?Event_ThrowObjectAtEnemy@idAI_Vagary@@AAEXPAVidEntity@@M@Z 10116c90 f   AI_Vagary.obj
 0001:00115e70       ??0idMD5Anim@@QAE@XZ       10116e70 f   Anim.obj
 0001:00115f70       ??1idMD5Anim@@QAE@XZ       10116f70 f   Anim.obj
 0001:00116030       ?Free@idMD5Anim@@QAEXXZ    10117030 f   Anim.obj
 0001:001160d0       ?NumFrames@idMD5Anim@@QBEHXZ 101170d0 f   Anim.obj
 0001:00116100       ?NumJoints@idMD5Anim@@QBEHXZ 10117100 f   Anim.obj
 0001:00116130       ?Length@idMD5Anim@@QBEHXZ  10117130 f   Anim.obj
 0001:00116160       ?TotalMovementDelta@idMD5Anim@@QBEABVidVec3@@XZ 10117160 f   Anim.obj
 0001:00116190       ?Name@idMD5Anim@@QBEPBDXZ  10117190 f   Anim.obj
 0001:001161e0       ?Reload@idMD5Anim@@QAE_NXZ 101171e0 f   Anim.obj
 0001:001162c0       ?Allocated@idMD5Anim@@QBEIXZ 101172c0 f   Anim.obj
 0001:00116340       ?LoadAnim@idMD5Anim@@QAE_NPBD@Z 10117340 f   Anim.obj
 0001:00116df0       ?IncreaseRefs@idMD5Anim@@QBEXXZ 10117df0 f   Anim.obj
 0001:00116e30       ?DecreaseRefs@idMD5Anim@@QBEXXZ 10117e30 f   Anim.obj
 0001:00116e70       ?NumRefs@idMD5Anim@@QBEHXZ 10117e70 f   Anim.obj
 0001:00116eb0       ?GetFrameBlend@idMD5Anim@@QBEXHAAUframeBlend_t@@@Z 10117eb0 f   Anim.obj
 0001:00116f40       ?ConvertTimeToFrame@idMD5Anim@@QBEXHHAAUframeBlend_t@@@Z 10117f40 f   Anim.obj
 0001:001170d0       ?GetOrigin@idMD5Anim@@QBEXAAVidVec3@@HH@Z 101180d0 f   Anim.obj
 0001:001172a0       ?GetOriginRotation@idMD5Anim@@QBEXAAVidQuat@@HH@Z 101182a0 f   Anim.obj
 0001:00117720       ?GetBounds@idMD5Anim@@QBEXAAVidBounds@@HH@Z 10118720 f   Anim.obj
 0001:00117940       ?GetInterpolatedFrame@idMD5Anim@@QBEXAAUframeBlend_t@@PAVidJointQuat@@PBHH@Z 10118940 f   Anim.obj
 0001:00118190       ?GetSingleFrame@idMD5Anim@@QBEXHPAVidJointQuat@@PBHH@Z 10119190 f   Anim.obj
 0001:00118360       ?CheckModelHierarchy@idMD5Anim@@QBEXPBVidRenderModel@@@Z 10119360 f   Anim.obj
 0001:00118530       ??0idAnimManager@@QAE@XZ   10119530 f   Anim.obj
 0001:001185c0       ??1idAnimManager@@QAE@XZ   101195c0 f   Anim.obj
 0001:00118660       ?Shutdown@idAnimManager@@QAEXXZ 10119660 f   Anim.obj
 0001:001186c0       ?GetAnim@idAnimManager@@QAEPAVidMD5Anim@@PBD@Z 101196c0 f   Anim.obj
 0001:00118930       ??_GidMD5Anim@@QAEPAXI@Z   10119930 f i Anim.obj
 0001:00118990       ?ReloadAnims@idAnimManager@@QAEXXZ 10119990 f   Anim.obj
 0001:00118a10       ?JointIndex@idAnimManager@@QAEHPBD@Z 10119a10 f   Anim.obj
 0001:00118b20       ?JointName@idAnimManager@@QBEPBDH@Z 10119b20 f   Anim.obj
 0001:00118b70       ?ListAnims@idAnimManager@@QBEXXZ 10119b70 f   Anim.obj
 0001:00118ce0       ?Size@idMD5Anim@@QBEIXZ    10119ce0 f i Anim.obj
 0001:00118d30       ?FlushUnusedAnims@idAnimManager@@QAEXXZ 10119d30 f   Anim.obj
 0001:00118ec0       ?SetGranularity@?$idList@M@@QAEXH@Z 10119ec0 f i Anim.obj
 0001:00118f70       ?Allocated@?$idList@M@@QBEIXZ 10119f70 f i Anim.obj
 0001:00118fb0       ?Ptr@?$idList@M@@QAEPAMXZ  10119fb0 f i Anim.obj
 0001:00118fe0       ??0?$idList@VidBounds@@@@QAE@H@Z 10119fe0 f i Anim.obj
 0001:00119060       ??1?$idList@VidBounds@@@@QAE@XZ 1011a060 f i Anim.obj
 0001:001190a0       ?Clear@?$idList@VidBounds@@@@QAEXXZ 1011a0a0 f i Anim.obj
 0001:00119120       ?SetGranularity@?$idList@VidBounds@@@@QAEXH@Z 1011a120 f i Anim.obj
 0001:001191d0       ?Allocated@?$idList@VidBounds@@@@QBEIXZ 1011a1d0 f i Anim.obj
 0001:00119210       ??A?$idList@VidBounds@@@@QAEAAVidBounds@@H@Z 1011a210 f i Anim.obj
 0001:001192a0       ??A?$idList@VidBounds@@@@QBEABVidBounds@@H@Z 1011a2a0 f i Anim.obj
 0001:00119330       ?SetNum@?$idList@VidBounds@@@@QAEXH_N@Z 1011a330 f i Anim.obj
 0001:001193b0       ??0?$idList@UjointAnimInfo_t@@@@QAE@H@Z 1011a3b0 f i Anim.obj
 0001:00119430       ??1?$idList@UjointAnimInfo_t@@@@QAE@XZ 1011a430 f i Anim.obj
 0001:00119470       ?Clear@?$idList@UjointAnimInfo_t@@@@QAEXXZ 1011a470 f i Anim.obj
 0001:001194f0       ?Num@?$idList@UjointAnimInfo_t@@@@QBEHXZ 1011a4f0 f i Anim.obj
 0001:00119520       ?SetGranularity@?$idList@UjointAnimInfo_t@@@@QAEXH@Z 1011a520 f i Anim.obj
 0001:001195d0       ?Allocated@?$idList@UjointAnimInfo_t@@@@QBEIXZ 1011a5d0 f i Anim.obj
 0001:00119610       ??A?$idList@UjointAnimInfo_t@@@@QAEAAUjointAnimInfo_t@@H@Z 1011a610 f i Anim.obj
 0001:001196a0       ??A?$idList@UjointAnimInfo_t@@@@QBEABUjointAnimInfo_t@@H@Z 1011a6a0 f i Anim.obj
 0001:00119730       ?SetNum@?$idList@UjointAnimInfo_t@@@@QAEXH_N@Z 1011a730 f i Anim.obj
 0001:001197b0       ??0?$idList@VidJointQuat@@@@QAE@H@Z 1011a7b0 f i Anim.obj
 0001:00119830       ??1?$idList@VidJointQuat@@@@QAE@XZ 1011a830 f i Anim.obj
 0001:00119870       ?Num@?$idList@VidJointQuat@@@@QBEHXZ 1011a870 f i Anim.obj
 0001:001198a0       ?SetGranularity@?$idList@VidJointQuat@@@@QAEXH@Z 1011a8a0 f i Anim.obj
 0001:00119950       ??A?$idList@VidJointQuat@@@@QAEAAVidJointQuat@@H@Z 1011a950 f i Anim.obj
 0001:001199e0       ??A?$idList@VidJointQuat@@@@QBEABVidJointQuat@@H@Z 1011a9e0 f i Anim.obj
 0001:00119a70       ?SetNum@?$idList@VidJointQuat@@@@QAEXH_N@Z 1011aa70 f i Anim.obj
 0001:00119af0       ?Ptr@?$idList@VidJointQuat@@@@QBEPBVidJointQuat@@XZ 1011aaf0 f i Anim.obj
 0001:00119b20       ??0?$idHashTable@PAVidMD5Anim@@@@QAE@H@Z 1011ab20 f i Anim.obj
 0001:00119c10       ?IsPowerOfTwo@idMath@@SA_NH@Z 1011ac10 f i Anim.obj
 0001:00119c70       ??1?$idHashTable@PAVidMD5Anim@@@@QAE@XZ 1011ac70 f i Anim.obj
 0001:00119cd0       ?Set@?$idHashTable@PAVidMD5Anim@@@@QAEXPBDAAPAVidMD5Anim@@@Z 1011acd0 f i Anim.obj
 0001:00119e20       ?Get@?$idHashTable@PAVidMD5Anim@@@@QBE_NPBDPAPAPAVidMD5Anim@@@Z 1011ae20 f i Anim.obj
 0001:00119ed0       ?Remove@?$idHashTable@PAVidMD5Anim@@@@QAE_NPBD@Z 1011aed0 f i Anim.obj
 0001:00119ff0       ?DeleteContents@?$idHashTable@PAVidMD5Anim@@@@QAEXXZ 1011aff0 f i Anim.obj
 0001:0011a110       ?Num@?$idHashTable@PAVidMD5Anim@@@@QBEHXZ 1011b110 f i Anim.obj
 0001:0011a140       ?GetIndex@?$idHashTable@PAVidMD5Anim@@@@QBEPAPAVidMD5Anim@@H@Z 1011b140 f i Anim.obj
 0001:0011a210       ??0?$idList@PAVidMD5Anim@@@@QAE@H@Z 1011b210 f i Anim.obj
 0001:0011a290       ??1?$idList@PAVidMD5Anim@@@@QAE@XZ 1011b290 f i Anim.obj
 0001:0011a2d0       ?Num@?$idList@PAVidMD5Anim@@@@QBEHXZ 1011b2d0 f i Anim.obj
 0001:0011a300       ??A?$idList@PAVidMD5Anim@@@@QAEAAPAVidMD5Anim@@H@Z 1011b300 f i Anim.obj
 0001:0011a390       ?Append@?$idList@PAVidMD5Anim@@@@QAEHABQAVidMD5Anim@@@Z 1011b390 f i Anim.obj
 0001:0011a450       ??_Ghashnode_s@?$idHashTable@PAVidMD5Anim@@@@QAEPAXI@Z 1011b450 f i Anim.obj
 0001:0011a4b0       ??1hashnode_s@?$idHashTable@PAVidMD5Anim@@@@QAE@XZ 1011b4b0 f i Anim.obj
 0001:0011a4f0       ??0hashnode_s@?$idHashTable@PAVidMD5Anim@@@@QAE@PBDPAVidMD5Anim@@PAU01@@Z 1011b4f0 f i Anim.obj
 0001:0011a550       ?Resize@?$idList@VidBounds@@@@QAEXH@Z 1011b550 f i Anim.obj
 0001:0011a6f0       ?Resize@?$idList@UjointAnimInfo_t@@@@QAEXH@Z 1011b6f0 f i Anim.obj
 0001:0011a830       ?Clear@?$idList@VidJointQuat@@@@QAEXXZ 1011b830 f i Anim.obj
 0001:0011a8b0       ?Resize@?$idList@VidJointQuat@@@@QAEXH@Z 1011b8b0 f i Anim.obj
 0001:0011aa50       ?Clear@?$idHashTable@PAVidMD5Anim@@@@QAEXXZ 1011ba50 f i Anim.obj
 0001:0011ab30       ?GetHash@?$idHashTable@PAVidMD5Anim@@@@ABEHPBD@Z 1011bb30 f i Anim.obj
 0001:0011ab80       ?Clear@?$idList@PAVidMD5Anim@@@@QAEXXZ 1011bb80 f i Anim.obj
 0001:0011ac00       ?Resize@?$idList@PAVidMD5Anim@@@@QAEXH@Z 1011bc00 f i Anim.obj
 0001:0011ad20       ??0idJointQuat@@QAE@XZ     1011bd20 f i Anim.obj
 0001:0011ad70       ??4idJointQuat@@QAEAAV0@ABV0@@Z 1011bd70 f i Anim.obj
 0001:0011add0       ?CalcW@idQuat@@QBEMXZ      1011bdd0 f i Anim.obj
 0001:0011ae50       ?Size@idStr@@QBEIXZ        1011be50 f i Anim.obj
 0001:0011aea0       ?Allocated@idStr@@QBEHXZ   1011bea0 f i Anim.obj
 0001:0011aef0       ?Size@idHashIndex@@QBEIXZ  1011bef0 f i Anim.obj
 0001:0011af40       ?Allocated@idHashIndex@@QBEIXZ 1011bf40 f i Anim.obj
 0001:0011af80       ?Size@?$idList@VidStr@@@@QBEIXZ 1011bf80 f i Anim.obj
 0001:0011b000       ??0idAnim@@QAE@XZ          1011c000 f   Anim_Blend.obj
 0001:0011b0e0       ??0idAnim@@QAE@PBVidDeclModelDef@@PBV0@@Z 1011c0e0 f   Anim_Blend.obj
 0001:0011b370       ??1idAnim@@QAE@XZ          1011c370 f   Anim_Blend.obj
 0001:0011b4b0       ??_GidStr@@QAEPAXI@Z       1011c4b0 f i Anim_Blend.obj
 0001:0011b510       ?SetAnim@idAnim@@QAEXPBVidDeclModelDef@@PBD1HQAPBVidMD5Anim@@@Z 1011c510 f   Anim_Blend.obj
 0001:0011b6c0       ?Name@idAnim@@QBEPBDXZ     1011c6c0 f   Anim_Blend.obj
 0001:0011b710       ?FullName@idAnim@@QBEPBDXZ 1011c710 f   Anim_Blend.obj
 0001:0011b760       ?MD5Anim@idAnim@@QBEPBVidMD5Anim@@H@Z 1011c760 f   Anim_Blend.obj
 0001:0011b7b0       ?ModelDef@idAnim@@QBEPBVidDeclModelDef@@XZ 1011c7b0 f   Anim_Blend.obj
 0001:0011b7e0       ?Length@idAnim@@QBEHXZ     1011c7e0 f   Anim_Blend.obj
 0001:0011b830       ?NumFrames@idAnim@@QBEHXZ  1011c830 f   Anim_Blend.obj
 0001:0011b880       ?NumAnims@idAnim@@QBEHXZ   1011c880 f   Anim_Blend.obj
 0001:0011b8b0       ?TotalMovementDelta@idAnim@@QBEABVidVec3@@XZ 1011c8b0 f   Anim_Blend.obj
 0001:0011b910       ?GetOrigin@idAnim@@QBE_NAAVidVec3@@HHH@Z 1011c910 f   Anim_Blend.obj
 0001:0011b980       ?GetOriginRotation@idAnim@@QBE_NAAVidQuat@@HHH@Z 1011c980 f   Anim_Blend.obj
 0001:0011ba00       ?AddFrameCommand@idAnim@@QAEPBDPBVidDeclModelDef@@HAAVidLexer@@PBVidDict@@@Z 1011ca00 f   Anim_Blend.obj
 0001:0011e180       ?GetNumArgs@idEventDef@@QBEHXZ 1011f180 f i Anim_Blend.obj
 0001:0011e1b0       ?CallFrameCommands@idAnim@@QBEXPAVidEntity@@HH@Z 1011f1b0 f   Anim_Blend.obj
 0001:0011ed10       ?FindFrameForFrameCommand@idAnim@@QBEHW4frameCommandType_t@@PAPBUframeCommand_t@@@Z 1011fd10 f   Anim_Blend.obj
 0001:0011ee30       ?HasFrameCommands@idAnim@@QBE_NXZ 1011fe30 f   Anim_Blend.obj
 0001:0011ee80       ?SetAnimFlags@idAnim@@QAEXABUanimFlags_t@@@Z 1011fe80 f   Anim_Blend.obj
 0001:0011eec0       ?GetAnimFlags@idAnim@@QBEABUanimFlags_t@@XZ 1011fec0 f   Anim_Blend.obj
 0001:0011eef0       ??0idAnimBlend@@QAE@XZ     1011fef0 f   Anim_Blend.obj
 0001:0011ef40       ?Save@idAnimBlend@@QBEXPAVidSaveGame@@@Z 1011ff40 f   Anim_Blend.obj
 0001:0011f070       ?Restore@idAnimBlend@@QAEXPAVidRestoreGame@@PBVidDeclModelDef@@@Z 10120070 f   Anim_Blend.obj
 0001:0011f200       ?Reset@idAnimBlend@@AAEXPBVidDeclModelDef@@@Z 10120200 f   Anim_Blend.obj
 0001:0011f2d0       ?AnimFullName@idAnimBlend@@QBEPBDXZ 101202d0 f   Anim_Blend.obj
 0001:0011f330       ?AnimName@idAnimBlend@@QBEPBDXZ 10120330 f   Anim_Blend.obj
 0001:0011f390       ?NumFrames@idAnimBlend@@QBEHXZ 10120390 f   Anim_Blend.obj
 0001:0011f3f0       ?Length@idAnimBlend@@QBEHXZ 101203f0 f   Anim_Blend.obj
 0001:0011f450       ?GetWeight@idAnimBlend@@QBEMH@Z 10120450 f   Anim_Blend.obj
 0001:0011f4e0       ?GetFinalWeight@idAnimBlend@@QBEMXZ 101204e0 f   Anim_Blend.obj
 0001:0011f510       ?SetWeight@idAnimBlend@@QAEXMHH@Z 10120510 f   Anim_Blend.obj
 0001:0011f5a0       ?NumSyncedAnims@idAnimBlend@@QBEHXZ 101205a0 f   Anim_Blend.obj
 0001:0011f600       ?SetSyncedAnimWeight@idAnimBlend@@QAE_NHM@Z 10120600 f   Anim_Blend.obj
 0001:0011f680       ?SetFrame@idAnimBlend@@AAEXPBVidDeclModelDef@@HHHH@Z 10120680 f   Anim_Blend.obj
 0001:0011f7e0       ?CycleAnim@idAnimBlend@@AAEXPBVidDeclModelDef@@HHH@Z 101207e0 f   Anim_Blend.obj
 0001:0011f960       ?PlayAnim@idAnimBlend@@AAEXPBVidDeclModelDef@@HHH@Z 10120960 f   Anim_Blend.obj
 0001:0011fa80       ?Clear@idAnimBlend@@QAEXHH@Z 10120a80 f   Anim_Blend.obj
 0001:0011faf0       ?IsDone@idAnimBlend@@QBE_NH@Z 10120af0 f   Anim_Blend.obj
 0001:0011fb70       ?FrameHasChanged@idAnimBlend@@QBE_NH@Z 10120b70 f   Anim_Blend.obj
 0001:0011fc30       ?GetCycleCount@idAnimBlend@@QBEHXZ 10120c30 f   Anim_Blend.obj
 0001:0011fc70       ?SetCycleCount@idAnimBlend@@QAEXH@Z 10120c70 f   Anim_Blend.obj
 0001:0011fe70       ?SetPlaybackRate@idAnimBlend@@QAEXHM@Z 10120e70 f   Anim_Blend.obj
 0001:0011ff30       ?GetPlaybackRate@idAnimBlend@@QBEMXZ 10120f30 f   Anim_Blend.obj
 0001:0011ff60       ?SetStartTime@idAnimBlend@@QAEXH@Z 10120f60 f   Anim_Blend.obj
 0001:0011ffc0       ?GetStartTime@idAnimBlend@@QBEHXZ 10120fc0 f   Anim_Blend.obj
 0001:00120000       ?GetEndTime@idAnimBlend@@QBEHXZ 10121000 f   Anim_Blend.obj
 0001:00120040       ?PlayLength@idAnimBlend@@QBEHXZ 10121040 f   Anim_Blend.obj
 0001:001200a0       ?AllowMovement@idAnimBlend@@QAEX_N@Z 101210a0 f   Anim_Blend.obj
 0001:001200e0       ?AllowFrameCommands@idAnimBlend@@QAEX_N@Z 101210e0 f   Anim_Blend.obj
 0001:00120120       ?Anim@idAnimBlend@@QBEPBVidAnim@@XZ 10121120 f   Anim_Blend.obj
 0001:00120180       ?AnimNum@idAnimBlend@@QBEHXZ 10121180 f   Anim_Blend.obj
 0001:001201c0       ?AnimTime@idAnimBlend@@QBEHH@Z 101211c0 f   Anim_Blend.obj
 0001:001202c0       ?GetFrameNumber@idAnimBlend@@QBEHH@Z 101212c0 f   Anim_Blend.obj
 0001:00120390       ?CallFrameCommands@idAnimBlend@@ABEXPAVidEntity@@HH@Z 10121390 f   Anim_Blend.obj
 0001:00120520       ?BlendAnim@idAnimBlend@@ABE_NHHHPAVidJointQuat@@AAM_N22@Z 10121520 f   Anim_Blend.obj
 0001:00120b40       ?BlendOrigin@idAnimBlend@@ABEXHAAVidVec3@@AAM_N@Z 10121b40 f   Anim_Blend.obj
 0001:00120d50       ?BlendDelta@idAnimBlend@@ABEXHHAAVidVec3@@AAM@Z 10121d50 f   Anim_Blend.obj
 0001:00121050       ?BlendDeltaRotation@idAnimBlend@@ABEXHHAAVidQuat@@AAM@Z 10122050 f   Anim_Blend.obj
 0001:001213c0       ?AddBounds@idAnimBlend@@ABE_NHAAVidBounds@@_N@Z 101223c0 f   Anim_Blend.obj
 0001:00121570       ?GetBounds@idAnim@@QBE_NAAVidBounds@@HHH@Z 10122570 f i Anim_Blend.obj
 0001:001215e0       ??0idDeclModelDef@@QAE@XZ  101225e0 f   Anim_Blend.obj
 0001:00121710       ??_GidDeclModelDef@@UAEPAXI@Z 10122710 f i Anim_Blend.obj
 0001:00121710       ??_EidDeclModelDef@@UAEPAXI@Z 10122710 f i Anim_Blend.obj
 0001:00121770       ??1idDeclModelDef@@UAE@XZ  10122770 f   Anim_Blend.obj
 0001:00121840       ?Size@idDeclModelDef@@UBEIXZ 10122840 f   Anim_Blend.obj
 0001:00121870       ?CopyDecl@idDeclModelDef@@AAEXPBV1@@Z 10122870 f   Anim_Blend.obj
 0001:00121ab0       ?FreeData@idDeclModelDef@@UAEXXZ 10122ab0 f   Anim_Blend.obj
 0001:00121b60       ?DefaultDefinition@idDeclModelDef@@UBEPBDXZ 10122b60 f   Anim_Blend.obj
 0001:00121b90       ?FindJoint@idDeclModelDef@@QBEPBUjointInfo_t@@PBD@Z 10122b90 f   Anim_Blend.obj
 0001:00121c60       ?ModelHandle@idDeclModelDef@@QBEPAVidRenderModel@@XZ 10122c60 f   Anim_Blend.obj
 0001:00121ca0       ?GetJointList@idDeclModelDef@@QBEXPBDAAV?$idList@W4jointHandle_t@@@@@Z 10122ca0 f   Anim_Blend.obj
 0001:00121f50       ?Touch@idDeclModelDef@@QBEXXZ 10122f50 f   Anim_Blend.obj
 0001:00121fd0       ?GetDefaultSkin@idDeclModelDef@@QBEPBVidDeclSkin@@XZ 10122fd0 f   Anim_Blend.obj
 0001:00122010       ?GetDefaultPose@idDeclModelDef@@QBEPBVidJointQuat@@XZ 10123010 f   Anim_Blend.obj
 0001:00122070       ?SetupJoints@idDeclModelDef@@QBEXPAHPAPAVidJointMat@@AAVidBounds@@_N@Z 10123070 f   Anim_Blend.obj
 0001:00122270       ?ParseAnim@idDeclModelDef@@AAE_NAAVidLexer@@H@Z 10123270 f   Anim_Blend.obj
 0001:00122ce0       ?Parse@idDeclModelDef@@UAE_NPBDH@Z 10123ce0 f   Anim_Blend.obj
 0001:00124410       ??_GidAnim@@QAEPAXI@Z      10125410 f i Anim_Blend.obj
 0001:00124470       ?HasAnim@idDeclModelDef@@QBE_NPBD@Z 10125470 f   Anim_Blend.obj
 0001:00124500       ?NumAnims@idDeclModelDef@@QBEHXZ 10125500 f   Anim_Blend.obj
 0001:00124550       ?GetSpecificAnim@idDeclModelDef@@QBEHPBD@Z 10125550 f   Anim_Blend.obj
 0001:001245f0       ?GetAnim@idDeclModelDef@@QBEPBVidAnim@@H@Z 101255f0 f   Anim_Blend.obj
 0001:00124660       ?GetAnim@idDeclModelDef@@QBEHPBD@Z 10125660 f   Anim_Blend.obj
 0001:001247d0       ?GetSkin@idDeclModelDef@@QBEPBVidDeclSkin@@XZ 101257d0 f   Anim_Blend.obj
 0001:00124810       ?GetModelName@idDeclModelDef@@QBEPBDXZ 10125810 f   Anim_Blend.obj
 0001:00124880       ?Joints@idDeclModelDef@@QBEABV?$idList@UjointInfo_t@@@@XZ 10125880 f   Anim_Blend.obj
 0001:001248b0       ?JointParents@idDeclModelDef@@QBEPBHXZ 101258b0 f   Anim_Blend.obj
 0001:00124900       ?NumJoints@idDeclModelDef@@QBEHXZ 10125900 f   Anim_Blend.obj
 0001:00124950       ?GetJoint@idDeclModelDef@@QBEPBUjointInfo_t@@H@Z 10125950 f   Anim_Blend.obj
 0001:001249c0       ?GetJointName@idDeclModelDef@@QBEPBDH@Z 101259c0 f   Anim_Blend.obj
 0001:00124a70       ?NumJointsOnChannel@idDeclModelDef@@QBEHH@Z 10125a70 f   Anim_Blend.obj
 0001:00124ae0       ?GetChannelJoints@idDeclModelDef@@QBEPBHH@Z 10125ae0 f   Anim_Blend.obj
 0001:00124b50       ?GetVisualOffset@idDeclModelDef@@QBEABVidVec3@@XZ 10125b50 f   Anim_Blend.obj
 0001:00124b80       ??0idAnimator@@QAE@XZ      10125b80 f   Anim_Blend.obj
 0001:00124d60       ??1idAnimator@@QAE@XZ      10125d60 f   Anim_Blend.obj
 0001:00124e10       ?Allocated@idAnimator@@QBEIXZ 10125e10 f   Anim_Blend.obj
 0001:00124eb0       ?Save@idAnimator@@QBEXPAVidSaveGame@@@Z 10125eb0 f   Anim_Blend.obj
 0001:00125310       ?Restore@idAnimator@@QAEXPAVidRestoreGame@@@Z 10126310 f   Anim_Blend.obj
 0001:00125880       ??0jointMod_t@@QAE@XZ      10126880 f i Anim_Blend.obj
 0001:001258d0       ?FreeData@idAnimator@@AAEXXZ 101268d0 f   Anim_Blend.obj
 0001:001259c0       ?PushAnims@idAnimator@@AAEXHHH@Z 101269c0 f   Anim_Blend.obj
 0001:00125aa0       ?SetModel@idAnimator@@QAEPAVidRenderModel@@PBD@Z 10126aa0 f   Anim_Blend.obj
 0001:00125c20       ?Size@idAnimator@@QBEIXZ   10126c20 f   Anim_Blend.obj
 0001:00125c70       ?SetEntity@idAnimator@@QAEXPAVidEntity@@@Z 10126c70 f   Anim_Blend.obj
 0001:00125cb0       ?GetEntity@idAnimator@@QBEPAVidEntity@@XZ 10126cb0 f   Anim_Blend.obj
 0001:00125ce0       ?RemoveOriginOffset@idAnimator@@QAEX_N@Z 10126ce0 f   Anim_Blend.obj
 0001:00125d20       ?RemoveOrigin@idAnimator@@QBE_NXZ 10126d20 f   Anim_Blend.obj
 0001:00125d60       ?GetJointList@idAnimator@@QBEXPBDAAV?$idList@W4jointHandle_t@@@@@Z 10126d60 f   Anim_Blend.obj
 0001:00125dc0       ?NumAnims@idAnimator@@QBEHXZ 10126dc0 f   Anim_Blend.obj
 0001:00125e10       ?GetAnim@idAnimator@@QBEPBVidAnim@@H@Z 10126e10 f   Anim_Blend.obj
 0001:00125e70       ?GetAnim@idAnimator@@QBEHPBD@Z 10126e70 f   Anim_Blend.obj
 0001:00125ed0       ?HasAnim@idAnimator@@QBE_NPBD@Z 10126ed0 f   Anim_Blend.obj
 0001:00125f30       ?NumJoints@idAnimator@@QBEHXZ 10126f30 f   Anim_Blend.obj
 0001:00125f70       ?ModelHandle@idAnimator@@QBEPAVidRenderModel@@XZ 10126f70 f   Anim_Blend.obj
 0001:00125fc0       ?ModelDef@idAnimator@@QBEPBVidDeclModelDef@@XZ 10126fc0 f   Anim_Blend.obj
 0001:00125ff0       ?CurrentAnim@idAnimator@@QAEPAVidAnimBlend@@H@Z 10126ff0 f   Anim_Blend.obj
 0001:00126060       ?Clear@idAnimator@@QAEXHHH@Z 10127060 f   Anim_Blend.obj
 0001:00126110       ?SetFrame@idAnimator@@QAEXHHHHH@Z 10127110 f   Anim_Blend.obj
 0001:001261e0       ?CycleAnim@idAnimator@@QAEXHHHH@Z 101271e0 f   Anim_Blend.obj
 0001:001262b0       ?PlayAnim@idAnimator@@QAEXHHHH@Z 101272b0 f   Anim_Blend.obj
 0001:00126380       ?SyncAnimChannels@idAnimator@@QAEXHHHH@Z 10127380 f   Anim_Blend.obj
 0001:001264c0       ?SetJointPos@idAnimator@@QAEXW4jointHandle_t@@W4jointModTransform_t@@ABVidVec3@@@Z 101274c0 f   Anim_Blend.obj
 0001:001266c0       ?SetJointAxis@idAnimator@@QAEXW4jointHandle_t@@W4jointModTransform_t@@ABVidMat3@@@Z 101276c0 f   Anim_Blend.obj
 0001:001268c0       ?ClearJoint@idAnimator@@QAEXW4jointHandle_t@@@Z 101278c0 f   Anim_Blend.obj
 0001:001269e0       ?ClearAllJoints@idAnimator@@QAEXXZ 101279e0 f   Anim_Blend.obj
 0001:00126a50       ?ClearAllAnims@idAnimator@@QAEXHH@Z 10127a50 f   Anim_Blend.obj
 0001:00126ad0       ?GetDelta@idAnimator@@QBEXHHAAVidVec3@@@Z 10127ad0 f   Anim_Blend.obj
 0001:00126c40       ?GetDeltaRotation@idAnimator@@QBE_NHHAAVidMat3@@@Z 10127c40 f   Anim_Blend.obj
 0001:00126e00       ?GetOrigin@idAnimator@@QBEXHAAVidVec3@@@Z 10127e00 f   Anim_Blend.obj
 0001:00126f80       ?GetBounds@idAnimator@@QAE_NHAAVidBounds@@@Z 10127f80 f   Anim_Blend.obj
 0001:001272e0       ?InitAFPose@idAnimator@@QAEXXZ 101282e0 f   Anim_Blend.obj
 0001:001273a0       ?SetAFPoseJointMod@idAnimator@@QAEXW4jointHandle_t@@W4AFJointModType_t@@ABVidMat3@@ABVidVec3@@@Z 101283a0 f   Anim_Blend.obj
 0001:001274c0       ?FinishAFPose@idAnimator@@QAEXHABVidBounds@@H@Z 101284c0 f   Anim_Blend.obj
 0001:00127b80       ?SetAFPoseBlendWeight@idAnimator@@QAEXM@Z 10128b80 f   Anim_Blend.obj
 0001:00127bc0       ?BlendAFPose@idAnimator@@QBE_NPAVidJointQuat@@@Z 10128bc0 f   Anim_Blend.obj
 0001:00127c70       ?ClearAFPose@idAnimator@@QAEXXZ 10128c70 f   Anim_Blend.obj
 0001:00127d00       ?ServiceAnims@idAnimator@@QAEXHH@Z 10128d00 f   Anim_Blend.obj
 0001:00127e00       ?IsAnimating@idAnimator@@QBE_NH@Z 10128e00 f   Anim_Blend.obj
 0001:00127ee0       ?FrameHasChanged@idAnimator@@QBE_NH@Z 10128ee0 f   Anim_Blend.obj
 0001:00127ff0       ?CreateFrame@idAnimator@@QAE_NH_N@Z 10128ff0 f   Anim_Blend.obj
 0001:00128ce0       ?ForceUpdate@idAnimator@@QAEXXZ 10129ce0 f   Anim_Blend.obj
 0001:00128d30       ?ClearForceUpdate@idAnimator@@QAEXXZ 10129d30 f   Anim_Blend.obj
 0001:00128d70       ?GetJointTransform@idAnimator@@QAE_NW4jointHandle_t@@HAAVidVec3@@AAVidMat3@@@Z 10129d70 f   Anim_Blend.obj
 0001:00128e30       ?GetJointLocalTransform@idAnimator@@QAE_NW4jointHandle_t@@HAAVidVec3@@AAVidMat3@@@Z 10129e30 f   Anim_Blend.obj
 0001:00128fa0       ?GetJointHandle@idAnimator@@QBE?AW4jointHandle_t@@PBD@Z 10129fa0 f   Anim_Blend.obj
 0001:00129030       ?GetJointName@idAnimator@@QBEPBDW4jointHandle_t@@@Z 1012a030 f   Anim_Blend.obj
 0001:001290c0       ?GetChannelForJoint@idAnimator@@QBEHW4jointHandle_t@@@Z 1012a0c0 f   Anim_Blend.obj
 0001:00129150       ?GetFirstChild@idAnimator@@QBE?AW4jointHandle_t@@PBD@Z 1012a150 f   Anim_Blend.obj
 0001:001291a0       ?GetFirstChild@idAnimator@@QBE?AW4jointHandle_t@@W42@@Z 1012a1a0 f   Anim_Blend.obj
 0001:00129250       ?GetJoints@idAnimator@@QAEXPAHPAPAVidJointMat@@@Z 1012a250 f   Anim_Blend.obj
 0001:001292a0       ?GetAnimFlags@idAnimator@@QBE?BUanimFlags_t@@H@Z 1012a2a0 f   Anim_Blend.obj
 0001:00129350       ?NumFrames@idAnimator@@QBEHH@Z 1012a350 f   Anim_Blend.obj
 0001:001293b0       ?NumSyncedAnims@idAnimator@@QBEHH@Z 1012a3b0 f   Anim_Blend.obj
 0001:00129410       ?AnimName@idAnimator@@QBEPBDH@Z 1012a410 f   Anim_Blend.obj
 0001:00129470       ?AnimFullName@idAnimator@@QBEPBDH@Z 1012a470 f   Anim_Blend.obj
 0001:001294d0       ?AnimLength@idAnimator@@QBEHH@Z 1012a4d0 f   Anim_Blend.obj
 0001:00129530       ?TotalMovementDelta@idAnimator@@QBEABVidVec3@@H@Z 1012a530 f   Anim_Blend.obj
 0001:00129590       ?ANIM_GetModelDefFromEntityDef@@YAPBVidDeclModelDef@@PBVidDict@@@Z 1012a590 f   Anim_Blend.obj
 0001:001296b0       ?ANIM_GetModelFromEntityDef@idGameEdit@@UAEPAVidRenderModel@@PBVidDict@@@Z 1012a6b0 f   Anim_Blend.obj
 0001:00129820       ?ANIM_GetModelFromEntityDef@idGameEdit@@UAEPAVidRenderModel@@PBD@Z 1012a820 f   Anim_Blend.obj
 0001:00129890       ?ANIM_GetModelOffsetFromEntityDef@idGameEdit@@UAEABVidVec3@@PBD@Z 1012a890 f   Anim_Blend.obj
 0001:00129910       ?ANIM_GetModelFromName@idGameEdit@@UAEPAVidRenderModel@@PBD@Z 1012a910 f   Anim_Blend.obj
 0001:001299b0       ?ANIM_GetAnimFromEntityDef@idGameEdit@@UAEPBVidMD5Anim@@PBD0@Z 1012a9b0 f   Anim_Blend.obj
 0001:00129a90       ?ANIM_GetNumAnimsFromEntityDef@idGameEdit@@UAEHPBVidDict@@@Z 1012aa90 f   Anim_Blend.obj
 0001:00129b20       ?ANIM_GetAnimNameFromEntityDef@idGameEdit@@UAEPBDPBVidDict@@H@Z 1012ab20 f   Anim_Blend.obj
 0001:00129bc0       ?ANIM_GetAnim@idGameEdit@@UAEPBVidMD5Anim@@PBD@Z 1012abc0 f   Anim_Blend.obj
 0001:00129c10       ?ANIM_GetLength@idGameEdit@@UAEHPBVidMD5Anim@@@Z 1012ac10 f   Anim_Blend.obj
 0001:00129c60       ?ANIM_GetNumFrames@idGameEdit@@UAEHPBVidMD5Anim@@@Z 1012ac60 f   Anim_Blend.obj
 0001:00129cb0       ?ANIM_CreateAnimFrame@idGameEdit@@UAEXPBVidRenderModel@@PBVidMD5Anim@@HPAVidJointMat@@HABVidVec3@@_N@Z 1012acb0 f   Anim_Blend.obj
 0001:00129fc0       ?ANIM_CreateMeshForAnim@idGameEdit@@UAEPAVidRenderModel@@PAV2@PBD1H_N@Z 1012afc0 f   Anim_Blend.obj
 0001:0012a470       ?Allocated@?$idList@H@@QBEIXZ 1012b470 f i Anim_Blend.obj
 0001:0012a4b0       ??4?$idList@H@@QAEAAV0@ABV0@@Z 1012b4b0 f i Anim_Blend.obj
 0001:0012a580       ?Ptr@?$idList@H@@QBEPBHXZ  1012b580 f i Anim_Blend.obj
 0001:0012a5b0       ?Ptr@?$idList@H@@QAEPAHXZ  1012b5b0 f i Anim_Blend.obj
 0001:0012a5e0       ?Insert@?$idList@H@@QAEHABHH@Z 1012b5e0 f i Anim_Blend.obj
 0001:0012a6f0       ?Allocated@?$idList@VidJointQuat@@@@QBEIXZ 1012b6f0 f i Anim_Blend.obj
 0001:0012a730       ?Ptr@?$idList@VidJointQuat@@@@QAEPAVidJointQuat@@XZ 1012b730 f i Anim_Blend.obj
 0001:0012a760       ??0?$idList@UframeLookup_t@@@@QAE@H@Z 1012b760 f i Anim_Blend.obj
 0001:0012a7e0       ??1?$idList@UframeLookup_t@@@@QAE@XZ 1012b7e0 f i Anim_Blend.obj
 0001:0012a820       ?Clear@?$idList@UframeLookup_t@@@@QAEXXZ 1012b820 f i Anim_Blend.obj
 0001:0012a8a0       ?Num@?$idList@UframeLookup_t@@@@QBEHXZ 1012b8a0 f i Anim_Blend.obj
 0001:0012a8d0       ?SetGranularity@?$idList@UframeLookup_t@@@@QAEXH@Z 1012b8d0 f i Anim_Blend.obj
 0001:0012a980       ?MemoryUsed@?$idList@UframeLookup_t@@@@QBEIXZ 1012b980 f i Anim_Blend.obj
 0001:0012a9c0       ??A?$idList@UframeLookup_t@@@@QAEAAUframeLookup_t@@H@Z 1012b9c0 f i Anim_Blend.obj
 0001:0012aa50       ??A?$idList@UframeLookup_t@@@@QBEABUframeLookup_t@@H@Z 1012ba50 f i Anim_Blend.obj
 0001:0012aae0       ?SetNum@?$idList@UframeLookup_t@@@@QAEXH_N@Z 1012bae0 f i Anim_Blend.obj
 0001:0012ab60       ?Ptr@?$idList@UframeLookup_t@@@@QBEPBUframeLookup_t@@XZ 1012bb60 f i Anim_Blend.obj
 0001:0012ab90       ?Ptr@?$idList@UframeLookup_t@@@@QAEPAUframeLookup_t@@XZ 1012bb90 f i Anim_Blend.obj
 0001:0012abc0       ??0?$idList@UframeCommand_t@@@@QAE@H@Z 1012bbc0 f i Anim_Blend.obj
 0001:0012ac40       ??1?$idList@UframeCommand_t@@@@QAE@XZ 1012bc40 f i Anim_Blend.obj
 0001:0012ac80       ?Clear@?$idList@UframeCommand_t@@@@QAEXXZ 1012bc80 f i Anim_Blend.obj
 0001:0012ad00       ?Num@?$idList@UframeCommand_t@@@@QBEHXZ 1012bd00 f i Anim_Blend.obj
 0001:0012ad30       ??A?$idList@UframeCommand_t@@@@QAEAAUframeCommand_t@@H@Z 1012bd30 f i Anim_Blend.obj
 0001:0012adc0       ??A?$idList@UframeCommand_t@@@@QBEABUframeCommand_t@@H@Z 1012bdc0 f i Anim_Blend.obj
 0001:0012ae50       ?SetNum@?$idList@UframeCommand_t@@@@QAEXH_N@Z 1012be50 f i Anim_Blend.obj
 0001:0012aed0       ?Alloc@?$idList@UframeCommand_t@@@@QAEAAUframeCommand_t@@XZ 1012bed0 f i Anim_Blend.obj
 0001:0012af70       ??0?$idList@UjointInfo_t@@@@QAE@H@Z 1012bf70 f i Anim_Blend.obj
 0001:0012aff0       ??1?$idList@UjointInfo_t@@@@QAE@XZ 1012bff0 f i Anim_Blend.obj
 0001:0012b030       ?Clear@?$idList@UjointInfo_t@@@@QAEXXZ 1012c030 f i Anim_Blend.obj
 0001:0012b0b0       ?Num@?$idList@UjointInfo_t@@@@QBEHXZ 1012c0b0 f i Anim_Blend.obj
 0001:0012b0e0       ?SetGranularity@?$idList@UjointInfo_t@@@@QAEXH@Z 1012c0e0 f i Anim_Blend.obj
 0001:0012b190       ??A?$idList@UjointInfo_t@@@@QAEAAUjointInfo_t@@H@Z 1012c190 f i Anim_Blend.obj
 0001:0012b220       ??A?$idList@UjointInfo_t@@@@QBEABUjointInfo_t@@H@Z 1012c220 f i Anim_Blend.obj
 0001:0012b2b0       ?SetNum@?$idList@UjointInfo_t@@@@QAEXH_N@Z 1012c2b0 f i Anim_Blend.obj
 0001:0012b330       ?Ptr@?$idList@UjointInfo_t@@@@QBEPBUjointInfo_t@@XZ 1012c330 f i Anim_Blend.obj
 0001:0012b360       ?Ptr@?$idList@UjointInfo_t@@@@QAEPAUjointInfo_t@@XZ 1012c360 f i Anim_Blend.obj
 0001:0012b390       ??0?$idList@PAVidAnim@@@@QAE@H@Z 1012c390 f i Anim_Blend.obj
 0001:0012b410       ??1?$idList@PAVidAnim@@@@QAE@XZ 1012c410 f i Anim_Blend.obj
 0001:0012b450       ?Num@?$idList@PAVidAnim@@@@QBEHXZ 1012c450 f i Anim_Blend.obj
 0001:0012b480       ?SetGranularity@?$idList@PAVidAnim@@@@QAEXH@Z 1012c480 f i Anim_Blend.obj
 0001:0012b530       ??A?$idList@PAVidAnim@@@@QAEAAPAVidAnim@@H@Z 1012c530 f i Anim_Blend.obj
 0001:0012b5c0       ??A?$idList@PAVidAnim@@@@QBEABQAVidAnim@@H@Z 1012c5c0 f i Anim_Blend.obj
 0001:0012b650       ?SetNum@?$idList@PAVidAnim@@@@QAEXH_N@Z 1012c650 f i Anim_Blend.obj
 0001:0012b6d0       ?Append@?$idList@PAVidAnim@@@@QAEHABQAVidAnim@@@Z 1012c6d0 f i Anim_Blend.obj
 0001:0012b790       ?RemoveIndex@?$idList@PAVidAnim@@@@QAE_NH@Z 1012c790 f i Anim_Blend.obj
 0001:0012b890       ?DeleteContents@?$idList@PAVidAnim@@@@QAEX_N@Z 1012c890 f i Anim_Blend.obj
 0001:0012b970       ??0?$idList@PAUjointMod_t@@@@QAE@H@Z 1012c970 f i Anim_Blend.obj
 0001:0012b9f0       ??1?$idList@PAUjointMod_t@@@@QAE@XZ 1012c9f0 f i Anim_Blend.obj
 0001:0012ba30       ?Num@?$idList@PAUjointMod_t@@@@QBEHXZ 1012ca30 f i Anim_Blend.obj
 0001:0012ba60       ?Allocated@?$idList@PAUjointMod_t@@@@QBEIXZ 1012ca60 f i Anim_Blend.obj
 0001:0012baa0       ??A?$idList@PAUjointMod_t@@@@QAEAAPAUjointMod_t@@H@Z 1012caa0 f i Anim_Blend.obj
 0001:0012bb30       ??A?$idList@PAUjointMod_t@@@@QBEABQAUjointMod_t@@H@Z 1012cb30 f i Anim_Blend.obj
 0001:0012bbc0       ?SetNum@?$idList@PAUjointMod_t@@@@QAEXH_N@Z 1012cbc0 f i Anim_Blend.obj
 0001:0012bc40       ?Insert@?$idList@PAUjointMod_t@@@@QAEHABQAUjointMod_t@@H@Z 1012cc40 f i Anim_Blend.obj
 0001:0012bd50       ?RemoveIndex@?$idList@PAUjointMod_t@@@@QAE_NH@Z 1012cd50 f i Anim_Blend.obj
 0001:0012be50       ?DeleteContents@?$idList@PAUjointMod_t@@@@QAEX_N@Z 1012ce50 f i Anim_Blend.obj
 0001:0012bf10       ??0?$idList@VidAFPoseJointMod@@@@QAE@H@Z 1012cf10 f i Anim_Blend.obj
 0001:0012bf90       ??1?$idList@VidAFPoseJointMod@@@@QAE@XZ 1012cf90 f i Anim_Blend.obj
 0001:0012bfd0       ?Num@?$idList@VidAFPoseJointMod@@@@QBEHXZ 1012cfd0 f i Anim_Blend.obj
 0001:0012c000       ?SetGranularity@?$idList@VidAFPoseJointMod@@@@QAEXH@Z 1012d000 f i Anim_Blend.obj
 0001:0012c0b0       ?Allocated@?$idList@VidAFPoseJointMod@@@@QBEIXZ 1012d0b0 f i Anim_Blend.obj
 0001:0012c0f0       ??A?$idList@VidAFPoseJointMod@@@@QAEAAVidAFPoseJointMod@@H@Z 1012d0f0 f i Anim_Blend.obj
 0001:0012c180       ??A?$idList@VidAFPoseJointMod@@@@QBEABVidAFPoseJointMod@@H@Z 1012d180 f i Anim_Blend.obj
 0001:0012c210       ?SetNum@?$idList@VidAFPoseJointMod@@@@QAEXH_N@Z 1012d210 f i Anim_Blend.obj
 0001:0012c290       ?AddUnique@?$idList@W4jointHandle_t@@@@QAEHABW4jointHandle_t@@@Z 1012d290 f i Anim_Blend.obj
 0001:0012c2f0       ?Remove@?$idList@W4jointHandle_t@@@@QAE_NABW4jointHandle_t@@@Z 1012d2f0 f i Anim_Blend.obj
 0001:0012c350       ??$idBinSearch_GreaterEqual@H@@YAHPBHHABH@Z 1012d350 f i Anim_Blend.obj
 0001:0012c3e0       ??$ArgCompletion_Integer@$0A@$01@idCmdSystem@@SAXABVidCmdArgs@@P6AXPBD@Z@Z 1012d3e0 f i Anim_Blend.obj
 0001:0012c460       ??DidQuat@@QBE?AV0@ABV0@@Z 1012d460 f i Anim_Blend.obj
 0001:0012c590       ?Resize@?$idList@UframeLookup_t@@@@QAEXH@Z 1012d590 f i Anim_Blend.obj
 0001:0012c6c0       ?Resize@?$idList@UframeCommand_t@@@@QAEXH@Z 1012d6c0 f i Anim_Blend.obj
 0001:0012c7f0       ?Set@idQuat@@QAEXMMMM@Z    1012d7f0 f i Anim_Blend.obj
 0001:0012c840       ?Resize@?$idList@UjointInfo_t@@@@QAEXH@Z 1012d840 f i Anim_Blend.obj
 0001:0012c970       ?Inverse@idQuat@@QBE?AV1@XZ 1012d970 f i Anim_Blend.obj
 0001:0012c9e0       ?Clear@?$idList@PAVidAnim@@@@QAEXXZ 1012d9e0 f i Anim_Blend.obj
 0001:0012ca60       ?Resize@?$idList@PAVidAnim@@@@QAEXH@Z 1012da60 f i Anim_Blend.obj
 0001:0012cb80       ?Clear@?$idList@PAUjointMod_t@@@@QAEXXZ 1012db80 f i Anim_Blend.obj
 0001:0012cc00       ?Resize@?$idList@PAUjointMod_t@@@@QAEXH@Z 1012dc00 f i Anim_Blend.obj
 0001:0012cd20       ?Clear@?$idList@VidAFPoseJointMod@@@@QAEXXZ 1012dd20 f i Anim_Blend.obj
 0001:0012cda0       ?Resize@?$idList@VidAFPoseJointMod@@@@QAEXH@Z 1012dda0 f i Anim_Blend.obj
 0001:0012cf40       ??0idAFPoseJointMod@@QAE@XZ 1012df40 f i Anim_Blend.obj
 0001:0012cfb0       ?FindIndex@?$idList@W4jointHandle_t@@@@QBEHABW4jointHandle_t@@@Z 1012dfb0 f i Anim_Blend.obj
 0001:0012d020       ?RemoveIndex@?$idList@W4jointHandle_t@@@@QAE_NH@Z 1012e020 f i Anim_Blend.obj
 0001:0012d120       ??4idAFPoseJointMod@@QAEAAV0@ABV0@@Z 1012e120 f i Anim_Blend.obj
 0001:0012d190       ??XidJointMat@@QAEAAV0@ABV0@@Z 1012e190 f i Anim_Blend.obj
 0001:0012d490       ??_0idJointMat@@QAEAAV0@ABV0@@Z 1012e490 f i Anim_Blend.obj
 0001:0012d790       ?ToFloatPtr@idJointMat@@QAEPAMXZ 1012e790 f i Anim_Blend.obj
 0001:0012d7c0       ??YidStr@@QAEAAV0@D@Z      1012e7c0 f i Anim_Blend.obj
 0001:0012d810       ?Cmpn@idStr@@QBEHPBDH@Z    1012e810 f i Anim_Blend.obj
 0001:0012d890       ?Append@idStr@@QAEXD@Z     1012e890 f i Anim_Blend.obj
 0001:0012d910       ?CapLength@idStr@@QAEXH@Z  1012e910 f i Anim_Blend.obj
 0001:0012d960       ?CharIsNumeric@idStr@@SA_NH@Z 1012e960 f i Anim_Blend.obj
 0001:0012d9b0       ?GetIntValue@idToken@@QAEHXZ 1012e9b0 f i Anim_Blend.obj
 0001:0012d9f0       ?GetUnsignedLongValue@idToken@@QAEKXZ 1012e9f0 f i Anim_Blend.obj
 0001:0012da50       ?SetFlags@idLexer@@QAEXH@Z 1012ea50 f i Anim_Blend.obj
 0001:0012da90       ?GetLineNum@idDecl@@QBEHXZ 1012ea90 f i Anim_Blend.obj
 0001:0012daf0       ?GetFileName@idDecl@@QBEPBDXZ 1012eaf0 f i Anim_Blend.obj
 0001:0012db50       ?MakeDefault@idDecl@@QAEXXZ 1012eb50 f i Anim_Blend.obj
 0001:0012dbb0       ??0idModelExport@@QAE@XZ   1012ebb0 f   Anim_Import.obj
 0001:0012dc50       ?Shutdown@idModelExport@@SAXXZ 1012ec50 f   Anim_Import.obj
 0001:0012dd00       ?CheckMayaInstall@idModelExport@@CA_NXZ 1012ed00 f   Anim_Import.obj
 0001:0012dda0       ?LoadMayaDll@idModelExport@@CAXXZ 1012eda0 f   Anim_Import.obj
 0001:0012dfd0       ?ConvertMayaToMD5@idModelExport@@AAE_NXZ 1012efd0 f   Anim_Import.obj
 0001:0012e540       ?Reset@idModelExport@@AAEXXZ 1012f540 f   Anim_Import.obj
 0001:0012e5b0       ?ExportModel@idModelExport@@QAE_NPBD@Z 1012f5b0 f   Anim_Import.obj
 0001:0012e6d0       ?ExportAnim@idModelExport@@QAE_NPBD@Z 1012f6d0 f   Anim_Import.obj
 0001:0012e7f0       ?ParseOptions@idModelExport@@AAE_NAAVidLexer@@@Z 1012f7f0 f   Anim_Import.obj
 0001:0012eca0       ?ParseExportSection@idModelExport@@AAEHAAVidParser@@@Z 1012fca0 f   Anim_Import.obj
 0001:0012f410       ?ExportDefFile@idModelExport@@QAEHPBD@Z 10130410 f   Anim_Import.obj
 0001:0012f5e0       ?ExportModels@idModelExport@@QAEHPBD0@Z 101305e0 f   Anim_Import.obj
 0001:0012f740       ?GetFileName@idParser@@QBEPBDXZ 10130740 f i Anim_Import.obj
 0001:0012f7a0       ?GetFileName@idLexer@@QAEPBDXZ 101307a0 f i Anim_Import.obj
 0001:0012f7f0       ?GetNumFiles@idFileList@@QBEHXZ 101307f0 f i Anim_Import.obj
 0001:0012f840       ?GetFile@idFileList@@QBEPBDH@Z 10130840 f i Anim_Import.obj
 0001:0012f890       ?CreateInstance@idTestModel@@SAPAVidClass@@XZ 10130890 f   Anim_Testmodel.obj
 0001:0012f980       ?GetType@idTestModel@@UBEPAVidTypeInfo@@XZ 10130980 f   Anim_Testmodel.obj
 0001:0012f9b0       ??0idTestModel@@QAE@XZ     101309b0 f   Anim_Testmodel.obj
 0001:0012faf0       ??_EidTestModel@@UAEPAXI@Z 10130af0 f i Anim_Testmodel.obj
 0001:0012faf0       ??_GidTestModel@@UAEPAXI@Z 10130af0 f i Anim_Testmodel.obj
 0001:0012fb50       ?Save@idTestModel@@QAEXPAVidSaveGame@@@Z 10130b50 f   Anim_Testmodel.obj
 0001:0012fb80       ?Restore@idTestModel@@QAEXPAVidRestoreGame@@@Z 10130b80 f   Anim_Testmodel.obj
 0001:0012fc10       ?Spawn@idTestModel@@QAEXXZ 10130c10 f   Anim_Testmodel.obj
 0001:00130580       ??1idTestModel@@UAE@XZ     10131580 f   Anim_Testmodel.obj
 0001:00130700       ?Event_Footstep@idTestModel@@AAEXXZ 10131700 f   Anim_Testmodel.obj
 0001:00130750       ?ShouldConstructScriptObjectAtSpawn@idTestModel@@UBE_NXZ 10131750 f   Anim_Testmodel.obj
 0001:00130780       ?Think@idTestModel@@EAEXXZ 10131780 f   Anim_Testmodel.obj
 0001:00131460       ?NextAnim@idTestModel@@QAEXABVidCmdArgs@@@Z 10132460 f   Anim_Testmodel.obj
 0001:00131740       ?PrevAnim@idTestModel@@QAEXABVidCmdArgs@@@Z 10132740 f   Anim_Testmodel.obj
 0001:00131a30       ?NextFrame@idTestModel@@QAEXABVidCmdArgs@@@Z 10132a30 f   Anim_Testmodel.obj
 0001:00131b40       ?PrevFrame@idTestModel@@QAEXABVidCmdArgs@@@Z 10132b40 f   Anim_Testmodel.obj
 0001:00131c50       ?TestAnim@idTestModel@@QAEXABVidCmdArgs@@@Z 10132c50 f   Anim_Testmodel.obj
 0001:00131f60       ?BlendAnim@idTestModel@@QAEXABVidCmdArgs@@@Z 10132f60 f   Anim_Testmodel.obj
 0001:001320d0       ?KeepTestModel_f@idTestModel@@SAXABVidCmdArgs@@@Z 101330d0 f   Anim_Testmodel.obj
 0001:00132150       ?TestSkin_f@idTestModel@@SAXABVidCmdArgs@@@Z 10133150 f   Anim_Testmodel.obj
 0001:00132370       ?TestShaderParm_f@idTestModel@@SAXABVidCmdArgs@@@Z 10133370 f   Anim_Testmodel.obj
 0001:00132620       ?TestModel_f@idTestModel@@SAXABVidCmdArgs@@@Z 10133620 f   Anim_Testmodel.obj
 0001:00132a80       ??1idModelExport@@QAE@XZ   10133a80 f i Anim_Testmodel.obj
 0001:00132b10       ?ArgCompletion_TestModel@idTestModel@@SAXABVidCmdArgs@@P6AXPBD@Z@Z 10133b10 f   Anim_Testmodel.obj
 0001:00132e30       ?TestParticleStopTime_f@idTestModel@@SAXABVidCmdArgs@@@Z 10133e30 f   Anim_Testmodel.obj
 0001:00132eb0       ?TestAnim_f@idTestModel@@SAXABVidCmdArgs@@@Z 10133eb0 f   Anim_Testmodel.obj
 0001:00132f10       ?ArgCompletion_TestAnim@idTestModel@@SAXABVidCmdArgs@@P6AXPBD@Z@Z 10133f10 f   Anim_Testmodel.obj
 0001:00132fc0       ?TestBlend_f@idTestModel@@SAXABVidCmdArgs@@@Z 10133fc0 f   Anim_Testmodel.obj
 0001:00133020       ?TestModelNextAnim_f@idTestModel@@SAXABVidCmdArgs@@@Z 10134020 f   Anim_Testmodel.obj
 0001:00133080       ?TestModelPrevAnim_f@idTestModel@@SAXABVidCmdArgs@@@Z 10134080 f   Anim_Testmodel.obj
 0001:001330e0       ?TestModelNextFrame_f@idTestModel@@SAXABVidCmdArgs@@@Z 101340e0 f   Anim_Testmodel.obj
 0001:00133140       ?TestModelPrevFrame_f@idTestModel@@SAXABVidCmdArgs@@@Z 10134140 f   Anim_Testmodel.obj
 0001:001331a0       ??0idTypeInfo@@QAE@PBD0PAU?$idEventFunc@VidClass@@@@P6APAVidClass@@XZP82@AEXXZP82@BEXPAVidSaveGame@@@ZP82@AEXPAVidRestoreGame@@@Z@Z 101341a0 f   Class.obj
 0001:00133380       ??1idTypeInfo@@QAE@XZ      10134380 f   Class.obj
 0001:00133400       ?Init@idTypeInfo@@QAEXXZ   10134400 f   Class.obj
 0001:00133630       ?Shutdown@idTypeInfo@@QAEXXZ 10134630 f   Class.obj
 0001:001336c0       ?CreateInstance@idClass@@SAPAV1@XZ 101346c0 f   Class.obj
 0001:00133710       ?GetType@idClass@@UBEPAVidTypeInfo@@XZ 10134710 f   Class.obj
 0001:00133740       ?CallSpawn@idClass@@QAEXXZ 10134740 f   Class.obj
 0001:001337a0       ?CallSpawnFunc@idClass@@AAEP81@AEXXZPAVidTypeInfo@@@Z 101347a0 f   Class.obj
 0001:00133820       ?FindUninitializedMemory@idClass@@QAEXXZ 10134820 f   Class.obj
 0001:00133850       ?Spawn@idClass@@QAEXXZ     10134850 f   Class.obj
 0001:00133880       ??1idClass@@UAE@XZ         10134880 f   Class.obj
 0001:001338d0       ?DisplayInfo_f@idClass@@SAXABVidCmdArgs@@@Z 101348d0 f   Class.obj
 0001:00133930       ?ListClasses_f@idClass@@SAXABVidCmdArgs@@@Z 10134930 f   Class.obj
 0001:00133a20       ?CreateInstance@idClass@@SAPAV1@PBD@Z 10134a20 f   Class.obj
 0001:00133a80       ?Init@idClass@@SAXXZ       10134a80 f   Class.obj
 0001:00133c20       ?Shutdown@idClass@@SAXXZ   10134c20 f   Class.obj
 0001:00133c90       ??2idClass@@SAPAXI@Z       10134c90 f   Class.obj
 0001:00133d10       ??2idClass@@SAPAXIHHPADH@Z 10134d10 f   Class.obj
 0001:00133d90       ??3idClass@@SAXPAX@Z       10134d90 f   Class.obj
 0001:00133e00       ??3idClass@@SAXPAXHHPADH@Z 10134e00 f   Class.obj
 0001:00133e70       ?GetClass@idClass@@SAPAVidTypeInfo@@PBD@Z 10134e70 f   Class.obj
 0001:00133f70       ?GetType@idClass@@SAPAVidTypeInfo@@H@Z 10134f70 f   Class.obj
 0001:00134010       ?GetClassname@idClass@@QBEPBDXZ 10135010 f   Class.obj
 0001:00134070       ?GetSuperclass@idClass@@QBEPBDXZ 10135070 f   Class.obj
 0001:001340d0       ?CancelEvents@idClass@@QAEXPBVidEventDef@@@Z 101350d0 f   Class.obj
 0001:00134120       ?PostEventArgs@idClass@@AAA_NPBVidEventDef@@HHZZ 10135120 f   Class.obj
 0001:00134230       ?PostEventMS@idClass@@QAE_NPBVidEventDef@@H@Z 10135230 f   Class.obj
 0001:00134280       ?PostEventMS@idClass@@QAE_NPBVidEventDef@@HVidEventArg@@@Z 10135280 f   Class.obj
 0001:001342e0       ?PostEventMS@idClass@@QAE_NPBVidEventDef@@HVidEventArg@@1@Z 101352e0 f   Class.obj
 0001:00134340       ?PostEventMS@idClass@@QAE_NPBVidEventDef@@HVidEventArg@@11@Z 10135340 f   Class.obj
 0001:001343a0       ?PostEventMS@idClass@@QAE_NPBVidEventDef@@HVidEventArg@@111@Z 101353a0 f   Class.obj
 0001:00134400       ?PostEventMS@idClass@@QAE_NPBVidEventDef@@HVidEventArg@@1111@Z 10135400 f   Class.obj
 0001:00134470       ?PostEventMS@idClass@@QAE_NPBVidEventDef@@HVidEventArg@@11111@Z 10135470 f   Class.obj
 0001:001344e0       ?PostEventMS@idClass@@QAE_NPBVidEventDef@@HVidEventArg@@111111@Z 101354e0 f   Class.obj
 0001:00134550       ?PostEventMS@idClass@@QAE_NPBVidEventDef@@HVidEventArg@@1111111@Z 10135550 f   Class.obj
 0001:001345c0       ?PostEventSec@idClass@@QAE_NPBVidEventDef@@M@Z 101355c0 f   Class.obj
 0001:00134630       ?PostEventSec@idClass@@QAE_NPBVidEventDef@@MVidEventArg@@@Z 10135630 f   Class.obj
 0001:001346a0       ?PostEventSec@idClass@@QAE_NPBVidEventDef@@MVidEventArg@@1@Z 101356a0 f   Class.obj
 0001:00134710       ?PostEventSec@idClass@@QAE_NPBVidEventDef@@MVidEventArg@@11@Z 10135710 f   Class.obj
 0001:00134780       ?PostEventSec@idClass@@QAE_NPBVidEventDef@@MVidEventArg@@111@Z 10135780 f   Class.obj
 0001:00134800       ?PostEventSec@idClass@@QAE_NPBVidEventDef@@MVidEventArg@@1111@Z 10135800 f   Class.obj
 0001:00134880       ?PostEventSec@idClass@@QAE_NPBVidEventDef@@MVidEventArg@@11111@Z 10135880 f   Class.obj
 0001:00134900       ?PostEventSec@idClass@@QAE_NPBVidEventDef@@MVidEventArg@@111111@Z 10135900 f   Class.obj
 0001:00134980       ?PostEventSec@idClass@@QAE_NPBVidEventDef@@MVidEventArg@@1111111@Z 10135980 f   Class.obj
 0001:00134a10       ?ProcessEventArgs@idClass@@AAA_NPBVidEventDef@@HZZ 10135a10 f   Class.obj
 0001:00134b30       ?ProcessEvent@idClass@@QAE_NPBVidEventDef@@@Z 10135b30 f   Class.obj
 0001:00134b80       ?ProcessEvent@idClass@@QAE_NPBVidEventDef@@VidEventArg@@@Z 10135b80 f   Class.obj
 0001:00134bd0       ?ProcessEvent@idClass@@QAE_NPBVidEventDef@@VidEventArg@@1@Z 10135bd0 f   Class.obj
 0001:00134c30       ?ProcessEvent@idClass@@QAE_NPBVidEventDef@@VidEventArg@@11@Z 10135c30 f   Class.obj
 0001:00134c90       ?ProcessEvent@idClass@@QAE_NPBVidEventDef@@VidEventArg@@111@Z 10135c90 f   Class.obj
 0001:00134cf0       ?ProcessEvent@idClass@@QAE_NPBVidEventDef@@VidEventArg@@1111@Z 10135cf0 f   Class.obj
 0001:00134d50       ?ProcessEvent@idClass@@QAE_NPBVidEventDef@@VidEventArg@@11111@Z 10135d50 f   Class.obj
 0001:00134dc0       ?ProcessEvent@idClass@@QAE_NPBVidEventDef@@VidEventArg@@111111@Z 10135dc0 f   Class.obj
 0001:00134e30       ?ProcessEvent@idClass@@QAE_NPBVidEventDef@@VidEventArg@@1111111@Z 10135e30 f   Class.obj
 0001:00134ea0       ?ProcessEventArgPtr@idClass@@QAE_NPBVidEventDef@@PAH@Z 10135ea0 f   Class.obj
 0001:00135220       ?GetName@idEventDef@@QBEPBDXZ 10136220 f i Class.obj
 0001:00135250       ?Event_Remove@idClass@@QAEXXZ 10136250 f   Class.obj
 0001:001352e0       ?Event_SafeRemove@idClass@@AAEXXZ 101362e0 f   Class.obj
 0001:00135330       ?Clear@?$idList@PAVidTypeInfo@@@@QAEXXZ 10136330 f i Class.obj
 0001:001353b0       ?Num@?$idList@PAVidTypeInfo@@@@QBEHXZ 101363b0 f i Class.obj
 0001:001353e0       ?SetGranularity@?$idList@PAVidTypeInfo@@@@QAEXH@Z 101363e0 f i Class.obj
 0001:00135490       ??A?$idList@PAVidTypeInfo@@@@QAEAAPAVidTypeInfo@@H@Z 10136490 f i Class.obj
 0001:00135520       ?SetNum@?$idList@PAVidTypeInfo@@@@QAEXH_N@Z 10136520 f i Class.obj
 0001:001355a0       ??0?$idHierarchy@VidTypeInfo@@@@QAE@XZ 101365a0 f i Class.obj
 0001:00135600       ??1?$idHierarchy@VidTypeInfo@@@@QAE@XZ 10136600 f i Class.obj
 0001:00135640       ?SetOwner@?$idHierarchy@VidTypeInfo@@@@QAEXPAVidTypeInfo@@@Z 10136640 f i Class.obj
 0001:00135680       ?ParentTo@?$idHierarchy@VidTypeInfo@@@@QAEXAAV1@@Z 10136680 f i Class.obj
 0001:001356e0       ?GetNext@?$idHierarchy@VidTypeInfo@@@@QBEPAVidTypeInfo@@XZ 101366e0 f i Class.obj
 0001:00135750       ?Resize@?$idList@PAVidTypeInfo@@@@QAEXH@Z 10136750 f i Class.obj
 0001:00135870       ?RemoveFromParent@?$idHierarchy@VidTypeInfo@@@@QAEXXZ 10136870 f i Class.obj
 0001:001358f0       ?RemoveFromHierarchy@?$idHierarchy@VidTypeInfo@@@@QAEXXZ 101368f0 f i Class.obj
 0001:00135980       ?GetPriorSiblingNode@?$idHierarchy@VidTypeInfo@@@@ABEPAV1@XZ 10136980 f i Class.obj
 0001:00135a30       ?Save@idClass@@QBEXPAVidSaveGame@@@Z 10136a30 f i Class.obj
 0001:00135a60       ?Restore@idClass@@QAEXPAVidRestoreGame@@@Z 10136a60 f i Class.obj
 0001:00135a90       ??0?$idList@PAVidTypeInfo@@@@QAE@H@Z 10136a90 f i Class.obj
 0001:00135b10       ??1?$idList@PAVidTypeInfo@@@@QAE@XZ 10136b10 f i Class.obj
 0001:00135b50       ??0idDebugGraph@@QAE@XZ    10136b50 f   DebugGraph.obj
 0001:00135ba0       ?SetNumSamples@idDebugGraph@@QAEXH@Z 10136ba0 f   DebugGraph.obj
 0001:00135c20       ?AddValue@idDebugGraph@@QAEXM@Z 10136c20 f   DebugGraph.obj
 0001:00135ca0       ?Draw@idDebugGraph@@QBEXABVidVec4@@M@Z 10136ca0 f   DebugGraph.obj
 0001:00135fc0       ?MemoryUsed@?$idList@M@@QBEIXZ 10136fc0 f i DebugGraph.obj
 0001:00136000       ??0idEventDef@@QAE@PBD0D@Z 10137000 f   Event.obj
 0001:00136400       ?NumEventCommands@idEventDef@@SAHXZ 10137400 f   Event.obj
 0001:00136430       ?GetEventCommand@idEventDef@@SAPBV1@H@Z 10137430 f   Event.obj
 0001:00136460       ?FindEvent@idEventDef@@SAPBV1@PBD@Z 10137460 f   Event.obj
 0001:00136510       ??1idEvent@@QAE@XZ         10137510 f   Event.obj
 0001:00136590       ?Alloc@idEvent@@SAPAV1@PBVidEventDef@@HPAD@Z 10137590 f   Event.obj
 0001:001368a0       ?GetArgFormat@idEventDef@@QBEPBDXZ 101378a0 f i Event.obj
 0001:001368d0       ?GetArgSize@idEventDef@@QBEIXZ 101378d0 f i Event.obj
 0001:00136900       ?GetArgOffset@idEventDef@@QBEHH@Z 10137900 f i Event.obj
 0001:00136970       ??4trace_s@@QAEAAU0@ABU0@@Z 10137970 f i Event.obj
 0001:001369f0       ??4contactInfo_t@@QAEAAU0@ABU0@@Z 101379f0 f i Event.obj
 0001:00136ab0       ?CopyArgs@idEvent@@SAXPBVidEventDef@@HPADQAH@Z 10137ab0 f   Event.obj
 0001:00136bc0       ?Free@idEvent@@QAEXXZ      10137bc0 f   Event.obj
 0001:00136c70       ?Schedule@idEvent@@QAEXPAVidClass@@PBVidTypeInfo@@H@Z 10137c70 f   Event.obj
 0001:00136d70       ?CancelEvents@idEvent@@SAXPBVidClass@@PBVidEventDef@@@Z 10137d70 f   Event.obj
 0001:00136e00       ?ClearEventList@idEvent@@SAXXZ 10137e00 f   Event.obj
 0001:00136e80       ?ServiceEvents@idEvent@@SAXXZ 10137e80 f   Event.obj
 0001:001371b0       ?Init@idEvent@@SAXXZ       101381b0 f   Event.obj
 0001:00137270       ?Shutdown@idEvent@@SAXXZ   10138270 f   Event.obj
 0001:001372f0       ?Save@idEvent@@SAXPAVidSaveGame@@@Z 101382f0 f   Event.obj
 0001:00137580       ?Restore@idEvent@@SAXPAVidRestoreGame@@@Z 10138580 f   Event.obj
 0001:00137a30       ?RestoreTrace@idEvent@@SAXPAVidRestoreGame@@AAUtrace_s@@@Z 10138a30 f   Event.obj
 0001:00137b30       ?SaveTrace@idEvent@@SAXPAVidSaveGame@@ABUtrace_s@@@Z 10138b30 f   Event.obj
 0001:00137c30       ??1?$idLinkList@VidEvent@@@@QAE@XZ 10138c30 f i Event.obj
 0001:00137c70       ?IsListEmpty@?$idLinkList@VidEvent@@@@QBE_NXZ 10138c70 f i Event.obj
 0001:00137cb0       ?Num@?$idLinkList@VidEvent@@@@QBEHXZ 10138cb0 f i Event.obj
 0001:00137d10       ?Clear@?$idLinkList@VidEvent@@@@QAEXXZ 10138d10 f i Event.obj
 0001:00137d80       ?InsertBefore@?$idLinkList@VidEvent@@@@QAEXAAV1@@Z 10138d80 f i Event.obj
 0001:00137e00       ?AddToEnd@?$idLinkList@VidEvent@@@@QAEXAAV1@@Z 10138e00 f i Event.obj
 0001:00137e50       ?Remove@?$idLinkList@VidEvent@@@@QAEXXZ 10138e50 f i Event.obj
 0001:00137ec0       ?Next@?$idLinkList@VidEvent@@@@QBEPAVidEvent@@XZ 10138ec0 f i Event.obj
 0001:00137f10       ?SetOwner@?$idLinkList@VidEvent@@@@QAEXPAVidEvent@@@Z 10138f10 f i Event.obj
 0001:00137f50       ?Init@?$idDynamicBlockAlloc@E$0EAAA@$0BAA@@@QAEXXZ 10138f50 f i Event.obj
 0001:00137fa0       ?Shutdown@?$idDynamicBlockAlloc@E$0EAAA@$0BAA@@@QAEXXZ 10138fa0 f i Event.obj
 0001:001380b0       ?Alloc@?$idDynamicBlockAlloc@E$0EAAA@$0BAA@@@QAEPAEH@Z 101390b0 f i Event.obj
 0001:00138170       ?Free@?$idDynamicBlockAlloc@E$0EAAA@$0BAA@@@QAEXPAE@Z 10139170 f i Event.obj
 0001:00138200       ?GetMemory@?$idDynamicBlock@E@@QBEPAEXZ 10139200 f i Event.obj
 0001:00138230       ?GetSize@?$idDynamicBlock@E@@QBEHXZ 10139230 f i Event.obj
 0001:00138280       ?IsBaseBlock@?$idDynamicBlock@E@@QBE_NXZ 10139280 f i Event.obj
 0001:001382c0       ?Clear@?$idDynamicBlockAlloc@E$0EAAA@$0BAA@@@AAEXXZ 101392c0 f i Event.obj
 0001:00138370       ?AllocInternal@?$idDynamicBlockAlloc@E$0EAAA@$0BAA@@@AAEPAV?$idDynamicBlock@E@@H@Z 10139370 f i Event.obj
 0001:001384c0       ?ResizeInternal@?$idDynamicBlockAlloc@E$0EAAA@$0BAA@@@AAEPAV?$idDynamicBlock@E@@PAV2@H@Z 101394c0 f i Event.obj
 0001:001386d0       ?FreeInternal@?$idDynamicBlockAlloc@E$0EAAA@$0BAA@@@AAEXPAV?$idDynamicBlock@E@@@Z 101396d0 f i Event.obj
 0001:00138860       ?Init@?$idBTree@V?$idDynamicBlock@E@@H$03@@QAEXXZ 10139860 f i Event.obj
 0001:001388b0       ?Shutdown@?$idBTree@V?$idDynamicBlock@E@@H$03@@QAEXXZ 101398b0 f i Event.obj
 0001:00138900       ?SetSize@?$idDynamicBlock@E@@QAEXH_N@Z 10139900 f i Event.obj
 0001:00138960       ?LinkFreeInternal@?$idDynamicBlockAlloc@E$0EAAA@$0BAA@@@AAEXPAV?$idDynamicBlock@E@@@Z 10139960 f i Event.obj
 0001:001389e0       ?UnlinkFreeInternal@?$idDynamicBlockAlloc@E$0EAAA@$0BAA@@@AAEXPAV?$idDynamicBlock@E@@@Z 101399e0 f i Event.obj
 0001:00138a60       ?FindSmallestLargerEqual@?$idBTree@V?$idDynamicBlock@E@@H$03@@QBEPAV?$idDynamicBlock@E@@H@Z 10139a60 f i Event.obj
 0001:00138af0       ?AllocNode@?$idBTree@V?$idDynamicBlock@E@@H$03@@AAEPAV?$idBTreeNode@V?$idDynamicBlock@E@@H@@XZ 10139af0 f i Event.obj
 0001:00138b90       ?Shutdown@?$idBlockAlloc@V?$idBTreeNode@V?$idDynamicBlock@E@@H@@$0IA@@@QAEXXZ 10139b90 f i Event.obj
 0001:00138c30       ?Add@?$idBTree@V?$idDynamicBlock@E@@H$03@@QAEPAV?$idBTreeNode@V?$idDynamicBlock@E@@H@@PAV?$idDynamicBlock@E@@H@Z 10139c30 f i Event.obj
 0001:00138e70       ?Remove@?$idBTree@V?$idDynamicBlock@E@@H$03@@QAEXPAV?$idBTreeNode@V?$idDynamicBlock@E@@H@@@Z 10139e70 f i Event.obj
 0001:00139070       ?Alloc@?$idBlockAlloc@V?$idBTreeNode@V?$idDynamicBlock@E@@H@@$0IA@@@QAEPAV?$idBTreeNode@V?$idDynamicBlock@E@@H@@XZ 1013a070 f i Event.obj
 0001:00139170       ?FreeNode@?$idBTree@V?$idDynamicBlock@E@@H$03@@AAEXPAV?$idBTreeNode@V?$idDynamicBlock@E@@H@@@Z 1013a170 f i Event.obj
 0001:001391c0       ?SplitNode@?$idBTree@V?$idDynamicBlock@E@@H$03@@AAEXPAV?$idBTreeNode@V?$idDynamicBlock@E@@H@@@Z 1013a1c0 f i Event.obj
 0001:00139340       ?MergeNodes@?$idBTree@V?$idDynamicBlock@E@@H$03@@AAEPAV?$idBTreeNode@V?$idDynamicBlock@E@@H@@PAV2@0@Z 1013a340 f i Event.obj
 0001:001394e0       ?Free@?$idBlockAlloc@V?$idBTreeNode@V?$idDynamicBlock@E@@H@@$0IA@@@QAEXPAV?$idBTreeNode@V?$idDynamicBlock@E@@H@@@Z 1013a4e0 f i Event.obj
 0001:00139540       ??0?$idLinkList@VidEvent@@@@QAE@XZ 1013a540 f i Event.obj
 0001:001395a0       ??0idEvent@@QAE@XZ         1013a5a0 f i Event.obj
 0001:001395f0       ??0?$idDynamicBlockAlloc@E$0EAAA@$0BAA@@@QAE@XZ 1013a5f0 f i Event.obj
 0001:00139670       ??0?$idBTree@V?$idDynamicBlock@E@@H$03@@QAE@XZ 1013a670 f i Event.obj
 0001:00139710       ??1?$idBTree@V?$idDynamicBlock@E@@H$03@@QAE@XZ 1013a710 f i Event.obj
 0001:00139790       ??0?$idBlockAlloc@V?$idBTreeNode@V?$idDynamicBlock@E@@H@@$0IA@@@QAE@XZ 1013a790 f i Event.obj
 0001:001397f0       ??1?$idBlockAlloc@V?$idBTreeNode@V?$idDynamicBlock@E@@H@@$0IA@@@QAE@XZ 1013a7f0 f i Event.obj
 0001:00139830       ??1?$idDynamicBlockAlloc@E$0EAAA@$0BAA@@@QAE@XZ 1013a830 f i Event.obj
 0001:001398b0       ??0idSaveGame@@QAE@PAVidFile@@@Z 1013a8b0 f   SaveGame.obj
 0001:00139960       ??1idSaveGame@@QAE@XZ      1013a960 f   SaveGame.obj
 0001:001399f0       ?Close@idSaveGame@@QAEXXZ  1013a9f0 f   SaveGame.obj
 0001:00139ac0       ?WriteObjectList@idSaveGame@@QAEXXZ 1013aac0 f   SaveGame.obj
 0001:00139b60       ?CallSave_r@idSaveGame@@AAEXPBVidTypeInfo@@PBVidClass@@@Z 1013ab60 f   SaveGame.obj
 0001:00139be0       ?AddObject@idSaveGame@@QAEXPBVidClass@@@Z 1013abe0 f   SaveGame.obj
 0001:00139c30       ?Write@idSaveGame@@QAEXPBXH@Z 1013ac30 f   SaveGame.obj
 0001:00139c90       ?WriteInt@idSaveGame@@QAEXH@Z 1013ac90 f   SaveGame.obj
 0001:00139cf0       ?WriteJoint@idSaveGame@@QAEXW4jointHandle_t@@@Z 1013acf0 f   SaveGame.obj
 0001:00139d50       ?WriteShort@idSaveGame@@QAEXF@Z 1013ad50 f   SaveGame.obj
 0001:00139db0       ?WriteByte@idSaveGame@@QAEXE@Z 1013adb0 f   SaveGame.obj
 0001:00139e10       ?WriteSignedChar@idSaveGame@@QAEXC@Z 1013ae10 f   SaveGame.obj
 0001:00139e70       ?WriteFloat@idSaveGame@@QAEXM@Z 1013ae70 f   SaveGame.obj
 0001:00139ed0       ?WriteBool@idSaveGame@@QAEX_N@Z 1013aed0 f   SaveGame.obj
 0001:00139f30       ?WriteString@idSaveGame@@QAEXPBD@Z 1013af30 f   SaveGame.obj
 0001:00139fb0       ?WriteVec2@idSaveGame@@QAEXABVidVec2@@@Z 1013afb0 f   SaveGame.obj
 0001:0013a010       ?WriteVec3@idSaveGame@@QAEXABVidVec3@@@Z 1013b010 f   SaveGame.obj
 0001:0013a070       ?WriteVec4@idSaveGame@@QAEXABVidVec4@@@Z 1013b070 f   SaveGame.obj
 0001:0013a0d0       ?WriteVec6@idSaveGame@@QAEXABVidVec6@@@Z 1013b0d0 f   SaveGame.obj
 0001:0013a130       ?WriteBounds@idSaveGame@@QAEXABVidBounds@@@Z 1013b130 f   SaveGame.obj
 0001:0013a1f0       ?WriteWinding@idSaveGame@@QAEXABVidWinding@@@Z 1013b1f0 f   SaveGame.obj
 0001:0013a2f0       ?WriteMat3@idSaveGame@@QAEXABVidMat3@@@Z 1013b2f0 f   SaveGame.obj
 0001:0013a350       ?WriteAngles@idSaveGame@@QAEXABVidAngles@@@Z 1013b350 f   SaveGame.obj
 0001:0013a400       ?WriteObject@idSaveGame@@QAEXPBVidClass@@@Z 1013b400 f   SaveGame.obj
 0001:0013a480       ?WriteStaticObject@idSaveGame@@QAEXABVidClass@@@Z 1013b480 f   SaveGame.obj
 0001:0013a4e0       ?WriteDict@idSaveGame@@QAEXPBVidDict@@@Z 1013b4e0 f   SaveGame.obj
 0001:0013a5a0       ?WriteMaterial@idSaveGame@@QAEXPBVidMaterial@@@Z 1013b5a0 f   SaveGame.obj
 0001:0013a600       ?WriteSkin@idSaveGame@@QAEXPBVidDeclSkin@@@Z 1013b600 f   SaveGame.obj
 0001:0013a660       ?WriteParticle@idSaveGame@@QAEXPBVidDeclParticle@@@Z 1013b660 f   SaveGame.obj
 0001:0013a6c0       ?WriteFX@idSaveGame@@QAEXPBVidDeclFX@@@Z 1013b6c0 f   SaveGame.obj
 0001:0013a720       ?WriteModelDef@idSaveGame@@QAEXPBVidDeclModelDef@@@Z 1013b720 f   SaveGame.obj
 0001:0013a780       ?WriteSoundShader@idSaveGame@@QAEXPBVidSoundShader@@@Z 1013b780 f   SaveGame.obj
 0001:0013a7f0       ?WriteModel@idSaveGame@@QAEXPBVidRenderModel@@@Z 1013b7f0 f   SaveGame.obj
 0001:0013a870       ?WriteUserInterface@idSaveGame@@QAEXPBVidUserInterface@@_N@Z 1013b870 f   SaveGame.obj
 0001:0013a920       ?WriteRenderEntity@idSaveGame@@QAEXABUrenderEntity_s@@@Z 1013b920 f   SaveGame.obj
 0001:0013ab70       ?WriteRenderLight@idSaveGame@@QAEXABUrenderLight_s@@@Z 1013bb70 f   SaveGame.obj
 0001:0013ad20       ?WriteRefSound@idSaveGame@@QAEXABUrefSound_t@@@Z 1013bd20 f   SaveGame.obj
 0001:0013ae40       ?WriteRenderView@idSaveGame@@QAEXABUrenderView_s@@@Z 1013be40 f   SaveGame.obj
 0001:0013af50       ?WriteUsercmd@idSaveGame@@QAEXABVusercmd_t@@@Z 1013bf50 f   SaveGame.obj
 0001:0013b070       ?WriteContactInfo@idSaveGame@@QAEXABUcontactInfo_t@@@Z 1013c070 f   SaveGame.obj
 0001:0013b140       ?WriteTrace@idSaveGame@@QAEXABUtrace_s@@@Z 1013c140 f   SaveGame.obj
 0001:0013b1c0       ?WriteTraceModel@idSaveGame@@QAEXABVidTraceModel@@@Z 1013c1c0 f   SaveGame.obj
 0001:0013b420       ?WriteClipModel@idSaveGame@@QAEXPBVidClipModel@@@Z 1013c420 f   SaveGame.obj
 0001:0013b490       ?WriteSoundCommands@idSaveGame@@QAEXXZ 1013c490 f   SaveGame.obj
 0001:0013b4f0       ?WriteBuildNumber@idSaveGame@@QAEXH@Z 1013c4f0 f   SaveGame.obj
 0001:0013b550       ??0idRestoreGame@@QAE@PAVidFile@@@Z 1013c550 f   SaveGame.obj
 0001:0013b5b0       ??1idRestoreGame@@QAE@XZ   1013c5b0 f   SaveGame.obj
 0001:0013b600       ?CreateObjects@idRestoreGame@@QAEXXZ 1013c600 f   SaveGame.obj
 0001:0013b780       ?RestoreObjects@idRestoreGame@@QAEXXZ 1013c780 f   SaveGame.obj
 0001:0013b8b0       ?DeleteObjects@idRestoreGame@@QAEXXZ 1013c8b0 f   SaveGame.obj
 0001:0013b910       ?Error@idRestoreGame@@QAAXPBDZZ 1013c910 f   SaveGame.obj
 0001:0013b9c0       ?CallRestore_r@idRestoreGame@@AAEXPBVidTypeInfo@@PAVidClass@@@Z 1013c9c0 f   SaveGame.obj
 0001:0013ba40       ?Read@idRestoreGame@@QAEXPAXH@Z 1013ca40 f   SaveGame.obj
 0001:0013baa0       ?ReadInt@idRestoreGame@@QAEXAAH@Z 1013caa0 f   SaveGame.obj
 0001:0013bb00       ?ReadJoint@idRestoreGame@@QAEXAAW4jointHandle_t@@@Z 1013cb00 f   SaveGame.obj
 0001:0013bb60       ?ReadShort@idRestoreGame@@QAEXAAF@Z 1013cb60 f   SaveGame.obj
 0001:0013bbc0       ?ReadByte@idRestoreGame@@QAEXAAE@Z 1013cbc0 f   SaveGame.obj
 0001:0013bc20       ?ReadSignedChar@idRestoreGame@@QAEXAAC@Z 1013cc20 f   SaveGame.obj
 0001:0013bc80       ?ReadFloat@idRestoreGame@@QAEXAAM@Z 1013cc80 f   SaveGame.obj
 0001:0013bce0       ?ReadBool@idRestoreGame@@QAEXAA_N@Z 1013cce0 f   SaveGame.obj
 0001:0013bd40       ?ReadString@idRestoreGame@@QAEXAAVidStr@@@Z 1013cd40 f   SaveGame.obj
 0001:0013be00       ?ReadVec2@idRestoreGame@@QAEXAAVidVec2@@@Z 1013ce00 f   SaveGame.obj
 0001:0013be60       ?ReadVec3@idRestoreGame@@QAEXAAVidVec3@@@Z 1013ce60 f   SaveGame.obj
 0001:0013bec0       ?ReadVec4@idRestoreGame@@QAEXAAVidVec4@@@Z 1013cec0 f   SaveGame.obj
 0001:0013bf20       ?ReadVec6@idRestoreGame@@QAEXAAVidVec6@@@Z 1013cf20 f   SaveGame.obj
 0001:0013bf80       ?ReadBounds@idRestoreGame@@QAEXAAVidBounds@@@Z 1013cf80 f   SaveGame.obj
 0001:0013bff0       ?ReadWinding@idRestoreGame@@QAEXAAVidWinding@@@Z 1013cff0 f   SaveGame.obj
 0001:0013c0e0       ?ReadMat3@idRestoreGame@@QAEXAAVidMat3@@@Z 1013d0e0 f   SaveGame.obj
 0001:0013c140       ?ReadAngles@idRestoreGame@@QAEXAAVidAngles@@@Z 1013d140 f   SaveGame.obj
 0001:0013c1b0       ?ReadObject@idRestoreGame@@QAEXAAPAVidClass@@@Z 1013d1b0 f   SaveGame.obj
 0001:0013c260       ?ReadStaticObject@idRestoreGame@@QAEXAAVidClass@@@Z 1013d260 f   SaveGame.obj
 0001:0013c2c0       ?ReadDict@idRestoreGame@@QAEXPAVidDict@@@Z 1013d2c0 f   SaveGame.obj
 0001:0013c410       ?ReadMaterial@idRestoreGame@@QAEXAAPBVidMaterial@@@Z 1013d410 f   SaveGame.obj
 0001:0013c500       ?ReadSkin@idRestoreGame@@QAEXAAPBVidDeclSkin@@@Z 1013d500 f   SaveGame.obj
 0001:0013c5f0       ?ReadParticle@idRestoreGame@@QAEXAAPBVidDeclParticle@@@Z 1013d5f0 f   SaveGame.obj
 0001:0013c6e0       ?ReadFX@idRestoreGame@@QAEXAAPBVidDeclFX@@@Z 1013d6e0 f   SaveGame.obj
 0001:0013c7d0       ?ReadSoundShader@idRestoreGame@@QAEXAAPBVidSoundShader@@@Z 1013d7d0 f   SaveGame.obj
 0001:0013c8c0       ?ReadModelDef@idRestoreGame@@QAEXAAPBVidDeclModelDef@@@Z 1013d8c0 f   SaveGame.obj
 0001:0013c9b0       ?ReadModel@idRestoreGame@@QAEXAAPAVidRenderModel@@@Z 1013d9b0 f   SaveGame.obj
 0001:0013caa0       ?ReadUserInterface@idRestoreGame@@QAEXAAPAVidUserInterface@@@Z 1013daa0 f   SaveGame.obj
 0001:0013cc20       ?ReadRenderEntity@idRestoreGame@@QAEXAAUrenderEntity_s@@@Z 1013dc20 f   SaveGame.obj
 0001:0013ce80       ?ReadRenderLight@idRestoreGame@@QAEXAAUrenderLight_s@@@Z 1013de80 f   SaveGame.obj
 0001:0013d060       ?ReadRefSound@idRestoreGame@@QAEXAAUrefSound_t@@@Z 1013e060 f   SaveGame.obj
 0001:0013d1a0       ?ReadRenderView@idRestoreGame@@QAEXAAUrenderView_s@@@Z 1013e1a0 f   SaveGame.obj
 0001:0013d2b0       ?ReadUsercmd@idRestoreGame@@QAEXAAVusercmd_t@@@Z 1013e2b0 f   SaveGame.obj
 0001:0013d3d0       ?ReadContactInfo@idRestoreGame@@QAEXAAUcontactInfo_t@@@Z 1013e3d0 f   SaveGame.obj
 0001:0013d4a0       ?ReadTrace@idRestoreGame@@QAEXAAUtrace_s@@@Z 1013e4a0 f   SaveGame.obj
 0001:0013d520       ?ReadTraceModel@idRestoreGame@@QAEXAAVidTraceModel@@@Z 1013e520 f   SaveGame.obj
 0001:0013d770       ?ReadClipModel@idRestoreGame@@QAEXAAPAVidClipModel@@@Z 1013e770 f   SaveGame.obj
 0001:0013d890       ?ReadSoundCommands@idRestoreGame@@QAEXXZ 1013e890 f   SaveGame.obj
 0001:0013d910       ?ReadBuildNumber@idRestoreGame@@QAEXXZ 1013e910 f   SaveGame.obj
 0001:0013d970       ?GetBuildNumber@idRestoreGame@@QAEHXZ 1013e970 f   SaveGame.obj
 0001:0013d9a0       ??0?$idList@PBVidClass@@@@QAE@H@Z 1013e9a0 f i SaveGame.obj
 0001:0013da20       ??1?$idList@PBVidClass@@@@QAE@XZ 1013ea20 f i SaveGame.obj
 0001:0013da60       ?Clear@?$idList@PBVidClass@@@@QAEXXZ 1013ea60 f i SaveGame.obj
 0001:0013dae0       ?Num@?$idList@PBVidClass@@@@QBEHXZ 1013eae0 f i SaveGame.obj
 0001:0013db10       ??A?$idList@PBVidClass@@@@QAEAAPBVidClass@@H@Z 1013eb10 f i SaveGame.obj
 0001:0013dba0       ?Append@?$idList@PBVidClass@@@@QAEHABQBVidClass@@@Z 1013eba0 f i SaveGame.obj
 0001:0013dc60       ?AddUnique@?$idList@PBVidClass@@@@QAEHABQBVidClass@@@Z 1013ec60 f i SaveGame.obj
 0001:0013dcc0       ?FindIndex@?$idList@PBVidClass@@@@QBEHABQBVidClass@@@Z 1013ecc0 f i SaveGame.obj
 0001:0013dd30       ??0?$idList@PAVidClass@@@@QAE@H@Z 1013ed30 f i SaveGame.obj
 0001:0013ddb0       ??1?$idList@PAVidClass@@@@QAE@XZ 1013edb0 f i SaveGame.obj
 0001:0013ddf0       ?Num@?$idList@PAVidClass@@@@QBEHXZ 1013edf0 f i SaveGame.obj
 0001:0013de20       ??A?$idList@PAVidClass@@@@QAEAAPAVidClass@@H@Z 1013ee20 f i SaveGame.obj
 0001:0013deb0       ?SetNum@?$idList@PAVidClass@@@@QAEXH_N@Z 1013eeb0 f i SaveGame.obj
 0001:0013df30       ?Ptr@?$idList@PAVidClass@@@@QAEPAPAVidClass@@XZ 1013ef30 f i SaveGame.obj
 0001:0013df60       ?RemoveIndex@?$idList@PAVidClass@@@@QAE_NH@Z 1013ef60 f i SaveGame.obj
 0001:0013e060       ?DeleteContents@?$idList@PAVidClass@@@@QAEX_N@Z 1013f060 f i SaveGame.obj
 0001:0013e150       ?Resize@?$idList@PBVidClass@@@@QAEXH@Z 1013f150 f i SaveGame.obj
 0001:0013e270       ?Clear@?$idList@PAVidClass@@@@QAEXXZ 1013f270 f i SaveGame.obj
 0001:0013e2f0       ?Resize@?$idList@PAVidClass@@@@QAEXH@Z 1013f2f0 f i SaveGame.obj
 0001:0013e410       ?Fill@idStr@@QAEXDH@Z      1013f410 f i SaveGame.obj
 0001:0013e490       ?Cmd_GetFloatArg@@YAMABVidCmdArgs@@AAH@Z 1013f490 f   SysCmds.obj
 0001:0013e500       ?Cmd_EntityList_f@@YAXABVidCmdArgs@@@Z 1013f500 f   SysCmds.obj
 0001:0013e6f0       ?Cmd_ActiveEntityList_f@@YAXABVidCmdArgs@@@Z 1013f6f0 f   SysCmds.obj
 0001:0013e800       ?Cmd_ListSpawnArgs_f@@YAXABVidCmdArgs@@@Z 1013f800 f   SysCmds.obj
 0001:0013e8d0       ?Cmd_ReloadScript_f@@YAXABVidCmdArgs@@@Z 1013f8d0 f   SysCmds.obj
 0001:0013e930       ?Cmd_Script_f@@YAXABVidCmdArgs@@@Z 1013f930 f   SysCmds.obj
 0001:0013eb90       ?KillEntities@@YAXABVidCmdArgs@@ABVidTypeInfo@@@Z 1013fb90 f   SysCmds.obj
 0001:0013ed60       ?Cmd_KillMonsters_f@@YAXABVidCmdArgs@@@Z 1013fd60 f   SysCmds.obj
 0001:0013edc0       ?Cmd_KillMovables_f@@YAXABVidCmdArgs@@@Z 1013fdc0 f   SysCmds.obj
 0001:0013ee30       ?Cmd_KillRagdolls_f@@YAXABVidCmdArgs@@@Z 1013fe30 f   SysCmds.obj
 0001:0013eeb0       ?Cmd_Give_f@@YAXABVidCmdArgs@@@Z 1013feb0 f   SysCmds.obj
 0001:0013f290       ?Cmd_CenterView_f@@YAXABVidCmdArgs@@@Z 10140290 f   SysCmds.obj
 0001:0013f330       ?Cmd_God_f@@YAXABVidCmdArgs@@@Z 10140330 f   SysCmds.obj
 0001:0013f3e0       ?Cmd_Notarget_f@@YAXABVidCmdArgs@@@Z 101403e0 f   SysCmds.obj
 0001:0013f4a0       ?Cmd_Noclip_f@@YAXABVidCmdArgs@@@Z 101404a0 f   SysCmds.obj
 0001:0013f550       ?Cmd_Kill_f@@YAXABVidCmdArgs@@@Z 10140550 f   SysCmds.obj
 0001:0013f720       ?Cmd_PlayerModel_f@@YAXABVidCmdArgs@@@Z 10140720 f   SysCmds.obj
 0001:0013f860       ?Cmd_GetViewpos_f@@YAXABVidCmdArgs@@@Z 10140860 f   SysCmds.obj
 0001:0013f9b0       ?Cmd_SetViewpos_f@@YAXABVidCmdArgs@@@Z 101409b0 f   SysCmds.obj
 0001:0013fb50       ?Cmd_Teleport_f@@YAXABVidCmdArgs@@@Z 10140b50 f   SysCmds.obj
 0001:0013fd00       ?Cmd_Trigger_f@@YAXABVidCmdArgs@@@Z 10140d00 f   SysCmds.obj
 0001:0013fe30       ?Cmd_Spawn_f@@YAXABVidCmdArgs@@@Z 10140e30 f   SysCmds.obj
 0001:001400e0       ?Cmd_Damage_f@@YAXABVidCmdArgs@@@Z 101410e0 f   SysCmds.obj
 0001:00140200       ?Cmd_Remove_f@@YAXABVidCmdArgs@@@Z 10141200 f   SysCmds.obj
 0001:00140300       ?Cmd_TestLight_f@@YAXABVidCmdArgs@@@Z 10141300 f   SysCmds.obj
 0001:00140700       ?Cmd_TestPointLight_f@@YAXABVidCmdArgs@@@Z 10141700 f   SysCmds.obj
 0001:00140960       ?Cmd_PopLight_f@@YAXABVidCmdArgs@@@Z 10141960 f   SysCmds.obj
 0001:00140b00       ?GetLightDefHandle@idLight@@QBEHXZ 10141b00 f i SysCmds.obj
 0001:00140b40       ?Cmd_ClearLights_f@@YAXABVidCmdArgs@@@Z 10141b40 f   SysCmds.obj
 0001:00140c70       ?Cmd_TestFx_f@@YAXABVidCmdArgs@@@Z 10141c70 f   SysCmds.obj
 0001:00140eb0       ?D_DrawDebugLines@@YAXXZ   10141eb0 f   SysCmds.obj
 0001:00141300       ?FindEntityGUIs@@YA_NPAVidEntity@@PAPBUmodelSurface_s@@HAAH@Z 10142300 f   SysCmds.obj
 0001:00141460       ?Cmd_NextGUI_f@@YAXABVidCmdArgs@@@Z 10142460 f   SysCmds.obj
 0001:00141930       ?Cmd_TestId_f@@YAXABVidCmdArgs@@@Z 10142930 f   SysCmds.obj
 0001:00141af0       ?InitConsoleCommands@idGameLocal@@AAEXXZ 10142af0 f   SysCmds.obj
 0001:00144680       ?GetSelected@idDragEntity@@QBEPAVidEntity@@XZ 10145680 f i SysCmds.obj
 0001:00145fd0       ?ShutdownConsoleCommands@idGameLocal@@AAEXXZ 10146fd0 f   SysCmds.obj
 0001:00146030       ?ToFloatPtr@idMat3@@QAEPAMXZ 10147030 f i SysCmds.obj
 0001:00146070       ??0idMat4@@QAE@XZ          10147070 f i SysCmds.obj
 0001:001460c0       ??$ArgCompletion_Decl@$03@idCmdSystem@@SAXABVidCmdArgs@@P6AXPBD@Z@Z 101470c0 f i SysCmds.obj
 0001:00146120       ??$ArgCompletion_Decl@$05@idCmdSystem@@SAXABVidCmdArgs@@P6AXPBD@Z@Z 10147120 f i SysCmds.obj
 0001:00146180       ??$ArgCompletion_Decl@$01@idCmdSystem@@SAXABVidCmdArgs@@P6AXPBD@Z@Z 10147180 f i SysCmds.obj
 0001:001461e0       ??0idMat4@@QAE@ABVidMat3@@ABVidVec3@@@Z 101471e0 f i SysCmds.obj
 0001:00146480       ??D@YA?AVidVec3@@ABV0@ABVidMat4@@@Z 10147480 f i SysCmds.obj
 0001:001464d0       ??DidMat4@@QBE?AVidVec3@@ABV1@@Z 101474d0 f i SysCmds.obj
 0001:001466d0       ?Filter@idStr@@QBE_NPBD_N@Z 101476d0 f i SysCmds.obj
 0001:00146720       ?IsLoaded@idLexer@@QAEHXZ  10147720 f i SysCmds.obj
 0001:00146750       ?SetMatrix@idDict@@QAEXPBDABVidMat3@@@Z 10147750 f i SysCmds.obj
 0001:001467a0       ?GetEntityGui@idMaterial@@QBEHXZ 101477a0 f i SysCmds.obj
 0001:001467d0       ??0gameDebugLine_t@@QAE@XZ 101477d0 f i SysCmds.obj
 0001:00146820       ??0gameVersion_s@@QAE@XZ   10147820 f i SysCvar.obj
 0001:00146890       ??$ArgCompletion_String@$1?si_gameTypeArgs@@3PAPBDA@idCmdSystem@@SAXABVidCmdArgs@@P6AXPBD@Z@Z 10147890 f i SysCvar.obj
 0001:00146920       ??0idCVar@@QAE@PBD0H0PAPBDP6AXABVidCmdArgs@@P6AX0@Z@Z@Z 10147920 f i SysCvar.obj
 0001:00146990       ?ArgCompletion_MapName@idCmdSystem@@SAXABVidCmdArgs@@P6AXPBD@Z@Z 10147990 f i SysCvar.obj
 0001:00146a00       ??$ArgCompletion_String@$1?ui_skinArgs@@3PAPBDA@idCmdSystem@@SAXABVidCmdArgs@@P6AXPBD@Z@Z 10147a00 f i SysCvar.obj
 0001:00146a90       ??$ArgCompletion_String@$1?ui_teamArgs@@3PAPBDA@idCmdSystem@@SAXABVidCmdArgs@@P6AXPBD@Z@Z 10147a90 f i SysCvar.obj
 0001:00146b20       ??$ArgCompletion_String@$1?si_readyArgs@@3PAPBDA@idCmdSystem@@SAXABVidCmdArgs@@P6AXPBD@Z@Z 10147b20 f i SysCvar.obj
 0001:00146bb0       ??$ArgCompletion_String@$1?si_spectateArgs@@3PAPBDA@idCmdSystem@@SAXABVidCmdArgs@@P6AXPBD@Z@Z 10147bb0 f i SysCvar.obj
 0001:00146c40       ??$ArgCompletion_Integer@$0A@$06@idCmdSystem@@SAXABVidCmdArgs@@P6AXPBD@Z@Z 10147c40 f i SysCvar.obj
 0001:00146cc0       ??$ArgCompletion_Integer@$0A@$03@idCmdSystem@@SAXABVidCmdArgs@@P6AXPBD@Z@Z 10147cc0 f i SysCvar.obj
 0001:00146d40       ?GetTypeVariableName@@YAPBDPBDH@Z 10147d40 f   TypeInfo.obj
 0001:00146eb0       ?FindClassInfo@idTypeInfoTools@@SAPBUclassTypeInfo_t@@PBD@Z 10147eb0 f   TypeInfo.obj
 0001:00146f40       ?FindEnumInfo@idTypeInfoTools@@SAPBUenumTypeInfo_t@@PBD@Z 10147f40 f   TypeInfo.obj
 0001:00146fc0       ?IsSubclassOf@idTypeInfoTools@@SA_NPBD0@Z 10147fc0 f   TypeInfo.obj
 0001:001470b0       ?OutputString@idTypeInfoTools@@SAPBDPBD@Z 101480b0 f   TypeInfo.obj
 0001:001472a0       ?ParseTemplateArguments@idTypeInfoTools@@SA_NAAVidLexer@@AAVidStr@@@Z 101482a0 f   TypeInfo.obj
 0001:00147420       ?EnsureAlloced@idStr@@QAEXH_N@Z 10148420 f i TypeInfo.obj
 0001:00147480       ?Init@idStr@@QAEXXZ        10148480 f i TypeInfo.obj
 0001:001474e0       ?PrintType@idTypeInfoTools@@SAXPBXPBD@Z 101484e0 f   TypeInfo.obj
 0001:00147560       ?WriteTypeToFile@idTypeInfoTools@@SAXPAVidFile@@PBXPBD@Z 10148560 f   TypeInfo.obj
 0001:001475d0       ?InitTypeVariables@idTypeInfoTools@@SAXPBXPBDH@Z 101485d0 f   TypeInfo.obj
 0001:00147640       ?IsAllowedToChangedFromSaveGames@@YA_NPBD00000@Z 10148640 f   TypeInfo.obj
 0001:00147850       ?IsRenderHandleVariable@@YA_NPBD00000@Z 10148850 f   TypeInfo.obj
 0001:00147b90       ?PrintVariable@idTypeInfoTools@@SAXPBD00000PBXH@Z 10148b90 f   TypeInfo.obj
 0001:00147c00       ?WriteVariable@idTypeInfoTools@@SAXPBD00000PBXH@Z 10148c00 f   TypeInfo.obj
 0001:00147d80       ?WriteGameStateVariable@idTypeInfoTools@@SAXPBD00000PBXH@Z 10148d80 f   TypeInfo.obj
 0001:00147f50       ?InitVariable@idTypeInfoTools@@SAXPBD00000PBXH@Z 10148f50 f   TypeInfo.obj
 0001:00147fd0       ?VerifyVariable@idTypeInfoTools@@SAXPBD00000PBXH@Z 10148fd0 f   TypeInfo.obj
 0001:00148170       ?WriteVariable_r@idTypeInfoTools@@SAHPBXPBD111H@Z 10149170 f   TypeInfo.obj
 0001:0014c660       ?GetSize@idVecX@@QBEHXZ    1014d660 f i TypeInfo.obj
 0001:0014c690       ?ToFloatPtr@idVecX@@QBEPBMXZ 1014d690 f i TypeInfo.obj
 0001:0014c6c0       ?GetNumRows@idMatX@@QBEHXZ 1014d6c0 f i TypeInfo.obj
 0001:0014c6f0       ?GetNumColumns@idMatX@@QBEHXZ 1014d6f0 f i TypeInfo.obj
 0001:0014c720       ?ToFloatPtr@idMatX@@QBEPBMXZ 1014d720 f i TypeInfo.obj
 0001:0014c750       ?WriteClass_r@idTypeInfoTools@@SAXPBXPBD111H@Z 1014d750 f   TypeInfo.obj
 0001:0014c840       ?WriteGameState@idTypeInfoTools@@SAXPBD@Z 1014d840 f   TypeInfo.obj
 0001:0014ca10       ?CompareGameState@idTypeInfoTools@@SAXPBD@Z 1014da10 f   TypeInfo.obj
 0001:0014cde0       ??_GidLexer@@QAEPAXI@Z     1014dde0 f i TypeInfo.obj
 0001:0014ce40       ?WriteGameState_f@@YAXABVidCmdArgs@@@Z 1014de40 f   TypeInfo.obj
 0001:0014cf30       ?CompareGameState_f@@YAXABVidCmdArgs@@@Z 1014df30 f   TypeInfo.obj
 0001:0014d020       ?TestSaveGame_f@@YAXABVidCmdArgs@@@Z 1014e020 f   TypeInfo.obj
 0001:0014d240       ?WriteTypeToFile@@YAXPAVidFile@@PBXPBD@Z 1014e240 f   TypeInfo.obj
 0001:0014d290       ?PrintType@@YAXPBXPBD@Z    1014e290 f   TypeInfo.obj
 0001:0014d2e0       ?InitTypeVariables@@YAXPBXPBDH@Z 1014e2e0 f   TypeInfo.obj
 0001:0014d330       ?SortTypeInfoByName@@YAHPBH0@Z 1014e330 f   TypeInfo.obj
 0001:0014d390       ?SortTypeInfoBySize@@YAHPBH0@Z 1014e390 f   TypeInfo.obj
 0001:0014d400       ?ListTypeInfo_f@@YAXABVidCmdArgs@@@Z 1014e400 f   TypeInfo.obj
 0001:0014d5d0       ?GetStartValue@?$idExtrapolate@VidVec3@@@@QBEABVidVec3@@XZ 1014e5d0 f i TypeInfo.obj
 0001:0014d600       ?GetBaseSpeed@?$idExtrapolate@VidVec3@@@@QBEABVidVec3@@XZ 1014e600 f i TypeInfo.obj
 0001:0014d630       ?GetSpeed@?$idExtrapolate@VidVec3@@@@QBEABVidVec3@@XZ 1014e630 f i TypeInfo.obj
 0001:0014d660       ?GetStartValue@?$idExtrapolate@VidAngles@@@@QBEABVidAngles@@XZ 1014e660 f i TypeInfo.obj
 0001:0014d690       ?GetBaseSpeed@?$idExtrapolate@VidAngles@@@@QBEABVidAngles@@XZ 1014e690 f i TypeInfo.obj
 0001:0014d6c0       ?GetSpeed@?$idExtrapolate@VidAngles@@@@QBEABVidAngles@@XZ 1014e6c0 f i TypeInfo.obj
 0001:0014d6f0       ?GetStartTime@?$idInterpolateAccelDecelLinear@M@@QBEMXZ 1014e6f0 f i TypeInfo.obj
 0001:0014d720       ?GetAcceleration@?$idInterpolateAccelDecelLinear@M@@QBEMXZ 1014e720 f i TypeInfo.obj
 0001:0014d750       ?GetDeceleration@?$idInterpolateAccelDecelLinear@M@@QBEMXZ 1014e750 f i TypeInfo.obj
 0001:0014d780       ?GetStartValue@?$idInterpolateAccelDecelLinear@M@@QBEABMXZ 1014e780 f i TypeInfo.obj
 0001:0014d7b0       ?GetEndValue@?$idInterpolateAccelDecelLinear@M@@QBEABMXZ 1014e7b0 f i TypeInfo.obj
 0001:0014d7e0       ?GetStartTime@?$idExtrapolate@M@@QBEMXZ 1014e7e0 f i TypeInfo.obj
 0001:0014d810       ?GetDuration@?$idExtrapolate@M@@QBEMXZ 1014e810 f i TypeInfo.obj
 0001:0014d840       ?GetStartValue@?$idExtrapolate@M@@QBEABMXZ 1014e840 f i TypeInfo.obj
 0001:0014d870       ?GetBaseSpeed@?$idExtrapolate@M@@QBEABMXZ 1014e870 f i TypeInfo.obj
 0001:0014d8a0       ?GetSpeed@?$idExtrapolate@M@@QBEABMXZ 1014e8a0 f i TypeInfo.obj
 0001:0014d8d0       ?GetExtrapolationType@?$idExtrapolate@M@@QBE?AW4extrapolation_t@@XZ 1014e8d0 f i TypeInfo.obj
 0001:0014d900       ?GetStartValue@?$idExtrapolate@H@@QBEABHXZ 1014e900 f i TypeInfo.obj
 0001:0014d930       ?GetBaseSpeed@?$idExtrapolate@H@@QBEABHXZ 1014e930 f i TypeInfo.obj
 0001:0014d960       ?GetSpeed@?$idExtrapolate@H@@QBEABHXZ 1014e960 f i TypeInfo.obj
 0001:0014d990       ?GetStartValue@?$idInterpolateAccelDecelLinear@H@@QBEABHXZ 1014e990 f i TypeInfo.obj
 0001:0014d9c0       ?GetEndValue@?$idInterpolateAccelDecelLinear@H@@QBEABHXZ 1014e9c0 f i TypeInfo.obj
 0001:0014d9f0       ?GetStartTime@?$idInterpolateAccelDecelSine@M@@QBEMXZ 1014e9f0 f i TypeInfo.obj
 0001:0014da20       ?GetAcceleration@?$idInterpolateAccelDecelSine@M@@QBEMXZ 1014ea20 f i TypeInfo.obj
 0001:0014da50       ?GetDeceleration@?$idInterpolateAccelDecelSine@M@@QBEMXZ 1014ea50 f i TypeInfo.obj
 0001:0014da80       ?GetStartValue@?$idInterpolateAccelDecelSine@M@@QBEABMXZ 1014ea80 f i TypeInfo.obj
 0001:0014dab0       ?GetEndValue@?$idInterpolateAccelDecelSine@M@@QBEABMXZ 1014eab0 f i TypeInfo.obj
 0001:0014dae0       ?GetStartValue@?$idInterpolateAccelDecelSine@H@@QBEABHXZ 1014eae0 f i TypeInfo.obj
 0001:0014db10       ?GetEndValue@?$idInterpolateAccelDecelSine@H@@QBEABHXZ 1014eb10 f i TypeInfo.obj
 0001:0014db40       ?GetGranularity@?$idList@H@@QBEHXZ 1014eb40 f i TypeInfo.obj
 0001:0014db70       ?Sort@?$idList@H@@QAEXP6AHPBH0@Z@Z 1014eb70 f i TypeInfo.obj
 0001:0014dbe0       ?Num@?$idStaticList@H$00@@QBEHXZ 1014ebe0 f i TypeInfo.obj
 0001:0014dc10       ?Ptr@?$idStaticList@H$00@@QAEPAHXZ 1014ec10 f i TypeInfo.obj
 0001:0014dc40       ?ClearTraceModelCache@idClipModel@@SAXXZ 1014ec40 f   Clip.obj
 0001:0014dc90       ?TraceModelCacheSize@idClipModel@@SAHXZ 1014ec90 f   Clip.obj
 0001:0014dce0       ?AllocTraceModel@idClipModel@@CAHABVidTraceModel@@@Z 1014ece0 f   Clip.obj
 0001:0014dec0       ??0trmCache_s@@QAE@XZ      1014eec0 f i Clip.obj
 0001:0014df20       ?FreeTraceModel@idClipModel@@CAXH@Z 1014ef20 f   Clip.obj
 0001:0014dfd0       ?GetCachedTraceModel@idClipModel@@CAPAVidTraceModel@@H@Z 1014efd0 f   Clip.obj
 0001:0014e020       ?GetTraceModelHashKey@idClipModel@@CAHABVidTraceModel@@@Z 1014f020 f   Clip.obj
 0001:0014e0b0       ?FloatHash@idMath@@SAHPBMH@Z 1014f0b0 f i Clip.obj
 0001:0014e110       ?SaveTraceModels@idClipModel@@SAXPAVidSaveGame@@@Z 1014f110 f   Clip.obj
 0001:0014e1d0       ?RestoreTraceModels@idClipModel@@SAXPAVidRestoreGame@@@Z 1014f1d0 f   Clip.obj
 0001:0014e370       ?LoadModel@idClipModel@@QAE_NPBD@Z 1014f370 f   Clip.obj
 0001:0014e470       ?LoadModel@idClipModel@@QAEXABVidTraceModel@@@Z 1014f470 f   Clip.obj
 0001:0014e500       ?LoadModel@idClipModel@@QAEXH@Z 1014f500 f   Clip.obj
 0001:0014e5b0       ?Init@idClipModel@@AAEXXZ  1014f5b0 f   Clip.obj
 0001:0014e690       ??0idClipModel@@QAE@XZ     1014f690 f   Clip.obj
 0001:0014e700       ??0idClipModel@@QAE@PBD@Z  1014f700 f   Clip.obj
 0001:0014e780       ??0idClipModel@@QAE@ABVidTraceModel@@@Z 1014f780 f   Clip.obj
 0001:0014e800       ??0idClipModel@@QAE@H@Z    1014f800 f   Clip.obj
 0001:0014e890       ??0idClipModel@@QAE@PBV0@@Z 1014f890 f   Clip.obj
 0001:0014e9f0       ??1idClipModel@@QAE@XZ     1014f9f0 f   Clip.obj
 0001:0014ea50       ?Save@idClipModel@@QBEXPAVidSaveGame@@@Z 1014fa50 f   Clip.obj
 0001:0014ebb0       ?Restore@idClipModel@@QAEXPAVidRestoreGame@@@Z 1014fbb0 f   Clip.obj
 0001:0014ee30       ?SetPosition@idClipModel@@QAEXABVidVec3@@ABVidMat3@@@Z 1014fe30 f   Clip.obj
 0001:0014eea0       ?Handle@idClipModel@@QBEHXZ 1014fea0 f   Clip.obj
 0001:0014ef90       ?GetMassProperties@idClipModel@@QBEXMAAMAAVidVec3@@AAVidMat3@@@Z 1014ff90 f   Clip.obj
 0001:0014f060       ?Unlink@idClipModel@@QAEXXZ 10150060 f   Clip.obj
 0001:0014f120       ?Link_r@idClipModel@@AAEXPAUclipSector_s@@@Z 10150120 f   Clip.obj
 0001:0014f260       ?Link@idClipModel@@QAEXAAVidClip@@@Z 10150260 f   Clip.obj
 0001:0014f3e0       ?Link@idClipModel@@QAEXAAVidClip@@PAVidEntity@@HABVidVec3@@ABVidMat3@@H@Z 101503e0 f   Clip.obj
 0001:0014f4a0       ?CheckModel@idClipModel@@SAHPBD@Z 101504a0 f   Clip.obj
 0001:0014f500       ??0idClip@@QAE@XZ          10150500 f   Clip.obj
 0001:0014f600       ?CreateClipSectors_r@idClip@@AAEPAUclipSector_s@@HABVidBounds@@AAVidVec3@@@Z 10150600 f   Clip.obj
 0001:0014f970       ?Init@idClip@@QAEXXZ       10150970 f   Clip.obj
 0001:0014fc10       ?Shutdown@idClip@@QAEXXZ   10150c10 f   Clip.obj
 0001:0014fcd0       ?ClipModelsTouchingBounds_r@idClip@@ABEXPBUclipSector_s@@AAUlistParms_s@@@Z 10150cd0 f   Clip.obj
 0001:0014ffa0       ?ClipModelsTouchingBounds@idClip@@QBEHABVidBounds@@HPAPAVidClipModel@@H@Z 10150fa0 f   Clip.obj
 0001:00150190       ??0listParms_s@@QAE@XZ     10151190 f i Clip.obj
 0001:001501e0       ?EntitiesTouchingBounds@idClip@@QBEHABVidBounds@@HPAPAVidEntity@@H@Z 101511e0 f   Clip.obj
 0001:00150360       ?GetTraceClipModels@idClip@@ABEHABVidBounds@@HPBVidEntity@@PAPAVidClipModel@@@Z 10151360 f   Clip.obj
 0001:001504d0       ?TraceRenderModel@idClip@@ABEXAAUtrace_s@@ABVidVec3@@1MABVidMat3@@PAVidClipModel@@@Z 101514d0 f   Clip.obj
 0001:00150650       ?TraceModelForClipModel@idClip@@ABEPBVidTraceModel@@PBVidClipModel@@@Z 10151650 f   Clip.obj
 0001:00150710       ?TranslationEntities@idClip@@QAEXAAUtrace_s@@ABVidVec3@@1PBVidClipModel@@ABVidMat3@@HPBVidEntity@@@Z 10151710 f   Clip.obj
 0001:00150a00       ?TestHugeTranslation@@YA_NAAUtrace_s@@PBVidClipModel@@ABVidVec3@@2ABVidMat3@@@Z 10151a00 f i Clip.obj
 0001:00150b50       ?Translation@idClip@@QAE_NAAUtrace_s@@ABVidVec3@@1PBVidClipModel@@ABVidMat3@@HPBVidEntity@@@Z 10151b50 f   Clip.obj
 0001:00150f40       ?Rotation@idClip@@QAE_NAAUtrace_s@@ABVidVec3@@ABVidRotation@@PBVidClipModel@@ABVidMat3@@HPBVidEntity@@@Z 10151f40 f   Clip.obj
 0001:001512a0       ?GetDimension@idVec3@@QBEHXZ 101522a0 f i Clip.obj
 0001:001512d0       ?ToFloatPtr@idVec3@@QBEPBMXZ 101522d0 f i Clip.obj
 0001:00151300       ?Motion@idClip@@QAE_NAAUtrace_s@@ABVidVec3@@1ABVidRotation@@PBVidClipModel@@ABVidMat3@@HPBVidEntity@@@Z 10152300 f   Clip.obj
 0001:00151c70       ??4idRotation@@QAEAAV0@ABV0@@Z 10152c70 f i Clip.obj
 0001:00151d00       ?Contacts@idClip@@QAEHPAUcontactInfo_t@@HABVidVec3@@ABVidVec6@@MPBVidClipModel@@ABVidMat3@@HPBVidEntity@@@Z 10152d00 f   Clip.obj
 0001:00152010       ?Contents@idClip@@QAEHABVidVec3@@PBVidClipModel@@ABVidMat3@@HPBVidEntity@@@Z 10153010 f   Clip.obj
 0001:00152300       ?TranslationModel@idClip@@QAEXAAUtrace_s@@ABVidVec3@@1PBVidClipModel@@ABVidMat3@@HH13@Z 10153300 f   Clip.obj
 0001:001523a0       ?RotationModel@idClip@@QAEXAAUtrace_s@@ABVidVec3@@ABVidRotation@@PBVidClipModel@@ABVidMat3@@HH14@Z 101533a0 f   Clip.obj
 0001:00152440       ?ContactsModel@idClip@@QAEHPAUcontactInfo_t@@HABVidVec3@@ABVidVec6@@MPBVidClipModel@@ABVidMat3@@HH14@Z 10153440 f   Clip.obj
 0001:001524f0       ?ContentsModel@idClip@@QAEHABVidVec3@@PBVidClipModel@@ABVidMat3@@HH02@Z 101534f0 f   Clip.obj
 0001:00152590       ?GetModelContactFeature@idClip@@QBE_NABUcontactInfo_t@@PBVidClipModel@@AAVidFixedWinding@@@Z 10153590 f   Clip.obj
 0001:00152800       ?PrintStatistics@idClip@@QAEXXZ 10153800 f   Clip.obj
 0001:001528e0       ?DrawClipModels@idClip@@QAEXABVidVec3@@MPBVidEntity@@@Z 101538e0 f   Clip.obj
 0001:00152a90       ?DrawModelContactFeature@idClip@@QBE_NABUcontactInfo_t@@PBVidClipModel@@H@Z 10153a90 f   Clip.obj
 0001:00152f90       ?Shutdown@?$idBlockAlloc@UclipLink_s@@$0EAA@@@QAEXXZ 10153f90 f i Clip.obj
 0001:00153030       ?Alloc@?$idBlockAlloc@UclipLink_s@@$0EAA@@@QAEPAUclipLink_s@@XZ 10154030 f i Clip.obj
 0001:00153130       ?Free@?$idBlockAlloc@UclipLink_s@@$0EAA@@@QAEXPAUclipLink_s@@@Z 10154130 f i Clip.obj
 0001:00153190       ?Num@?$idList@PAUtrmCache_s@@@@QBEHXZ 10154190 f i Clip.obj
 0001:001531c0       ??A?$idList@PAUtrmCache_s@@@@QAEAAPAUtrmCache_s@@H@Z 101541c0 f i Clip.obj
 0001:00153250       ?SetNum@?$idList@PAUtrmCache_s@@@@QAEXH_N@Z 10154250 f i Clip.obj
 0001:001532d0       ?Append@?$idList@PAUtrmCache_s@@@@QAEHABQAUtrmCache_s@@@Z 101542d0 f i Clip.obj
 0001:00153390       ??D@YA?AVidMat3@@MABV0@@Z  10154390 f i Clip.obj
 0001:001533e0       ??DidMat3@@QBE?AV0@M@Z     101543e0 f i Clip.obj
 0001:001534a0       ?DeleteContents@?$idList@PAUtrmCache_s@@@@QAEX_N@Z 101544a0 f i Clip.obj
 0001:00153560       ??$Max@M@@YAMMM@Z          10154560 f i Clip.obj
 0001:001535b0       ?IsRotated@idMat3@@QBE_NXZ 101545b0 f i Clip.obj
 0001:00153600       ?Clear@?$idList@PAUtrmCache_s@@@@QAEXXZ 10154600 f i Clip.obj
 0001:00153680       ?Resize@?$idList@PAUtrmCache_s@@@@QAEXH@Z 10154680 f i Clip.obj
 0001:001537a0       ?SetOrigin@idRotation@@QAEXABVidVec3@@@Z 101547a0 f i Clip.obj
 0001:001537f0       ?GetOrigin@idRotation@@QBEABVidVec3@@XZ 101547f0 f i Clip.obj
 0001:00153820       ?GetVec@idRotation@@QBEABVidVec3@@XZ 10154820 f i Clip.obj
 0001:00153850       ?GetAngle@idRotation@@QBEMXZ 10154850 f i Clip.obj
 0001:00153880       ??0?$idBlockAlloc@UclipLink_s@@$0EAA@@@QAE@XZ 10154880 f i Clip.obj
 0001:001538e0       ??0?$idList@PAUtrmCache_s@@@@QAE@H@Z 101548e0 f i Clip.obj
 0001:00153960       ??1?$idBlockAlloc@UclipLink_s@@$0EAA@@@QAE@XZ 10154960 f i Clip.obj
 0001:001539a0       ??1?$idList@PAUtrmCache_s@@@@QAE@XZ 101549a0 f i Clip.obj
 0001:001539e0       ?CreateInstance@idForce@@SAPAVidClass@@XZ 101549e0 f   Force.obj
 0001:00153ad0       ?GetType@idForce@@UBEPAVidTypeInfo@@XZ 10154ad0 f   Force.obj
 0001:00153b00       ??0idForce@@QAE@XZ         10154b00 f   Force.obj
 0001:00153ba0       ??_GidForce@@UAEPAXI@Z     10154ba0 f i Force.obj
 0001:00153ba0       ??_EidForce@@UAEPAXI@Z     10154ba0 f i Force.obj
 0001:00153c00       ??1idForce@@UAE@XZ         10154c00 f   Force.obj
 0001:00153c90       ?DeletePhysics@idForce@@SAXPBVidPhysics@@@Z 10154c90 f   Force.obj
 0001:00153d20       ?ClearForceList@idForce@@SAXXZ 10154d20 f   Force.obj
 0001:00153d60       ?Evaluate@idForce@@UAEXH@Z 10154d60 f   Force.obj
 0001:00153d90       ?RemovePhysics@idForce@@UAEXPBVidPhysics@@@Z 10154d90 f   Force.obj
 0001:00153dc0       ?Clear@?$idList@PAVidForce@@@@QAEXXZ 10154dc0 f i Force.obj
 0001:00153e40       ?Num@?$idList@PAVidForce@@@@QBEHXZ 10154e40 f i Force.obj
 0001:00153e70       ??A?$idList@PAVidForce@@@@QAEAAPAVidForce@@H@Z 10154e70 f i Force.obj
 0001:00153f00       ?Append@?$idList@PAVidForce@@@@QAEHABQAVidForce@@@Z 10154f00 f i Force.obj
 0001:00153fc0       ?Remove@?$idList@PAVidForce@@@@QAE_NABQAVidForce@@@Z 10154fc0 f i Force.obj
 0001:00154020       ?Resize@?$idList@PAVidForce@@@@QAEXH@Z 10155020 f i Force.obj
 0001:00154140       ?FindIndex@?$idList@PAVidForce@@@@QBEHABQAVidForce@@@Z 10155140 f i Force.obj
 0001:001541b0       ?RemoveIndex@?$idList@PAVidForce@@@@QAE_NH@Z 101551b0 f i Force.obj
 0001:001542b0       ??0?$idList@PAVidForce@@@@QAE@H@Z 101552b0 f i Force.obj
 0001:00154330       ??1?$idList@PAVidForce@@@@QAE@XZ 10155330 f i Force.obj
 0001:00154370       ?CreateInstance@idForce_Constant@@SAPAVidClass@@XZ 10155370 f   Force_Constant.obj
 0001:00154460       ?GetType@idForce_Constant@@UBEPAVidTypeInfo@@XZ 10155460 f   Force_Constant.obj
 0001:00154490       ??0idForce_Constant@@QAE@XZ 10155490 f   Force_Constant.obj
 0001:00154560       ??_GidForce_Constant@@UAEPAXI@Z 10155560 f i Force_Constant.obj
 0001:00154560       ??_EidForce_Constant@@UAEPAXI@Z 10155560 f i Force_Constant.obj
 0001:001545c0       ??1idForce_Constant@@UAE@XZ 101555c0 f   Force_Constant.obj
 0001:00154610       ?Save@idForce_Constant@@QBEXPAVidSaveGame@@@Z 10155610 f   Force_Constant.obj
 0001:00154680       ?Restore@idForce_Constant@@QAEXPAVidRestoreGame@@@Z 10155680 f   Force_Constant.obj
 0001:001546f0       ?SetPosition@idForce_Constant@@QAEXPAVidPhysics@@HABVidVec3@@@Z 101556f0 f   Force_Constant.obj
 0001:00154750       ?SetForce@idForce_Constant@@QAEXABVidVec3@@@Z 10155750 f   Force_Constant.obj
 0001:001547a0       ?SetPhysics@idForce_Constant@@QAEXPAVidPhysics@@@Z 101557a0 f   Force_Constant.obj
 0001:001547e0       ?Evaluate@idForce_Constant@@UAEXH@Z 101557e0 f   Force_Constant.obj
 0001:00154900       ?RemovePhysics@idForce_Constant@@UAEXPBVidPhysics@@@Z 10155900 f   Force_Constant.obj
 0001:00154950       ?CreateInstance@idForce_Drag@@SAPAVidClass@@XZ 10155950 f   Force_Drag.obj
 0001:00154a40       ?GetType@idForce_Drag@@UBEPAVidTypeInfo@@XZ 10155a40 f   Force_Drag.obj
 0001:00154a70       ??0idForce_Drag@@QAE@XZ    10155a70 f   Force_Drag.obj
 0001:00154b50       ??_GidForce_Drag@@UAEPAXI@Z 10155b50 f i Force_Drag.obj
 0001:00154b50       ??_EidForce_Drag@@UAEPAXI@Z 10155b50 f i Force_Drag.obj
 0001:00154bb0       ??1idForce_Drag@@UAE@XZ    10155bb0 f   Force_Drag.obj
 0001:00154c00       ?Init@idForce_Drag@@QAEXM@Z 10155c00 f   Force_Drag.obj
 0001:00154c60       ?SetPhysics@idForce_Drag@@QAEXPAVidPhysics@@HABVidVec3@@@Z 10155c60 f   Force_Drag.obj
 0001:00154cc0       ?SetDragPosition@idForce_Drag@@QAEXABVidVec3@@@Z 10155cc0 f   Force_Drag.obj
 0001:00154d10       ?GetDragPosition@idForce_Drag@@QBEABVidVec3@@XZ 10155d10 f   Force_Drag.obj
 0001:00154d40       ?GetDraggedPosition@idForce_Drag@@QBE?BVidVec3@@XZ 10155d40 f   Force_Drag.obj
 0001:00154df0       ?Evaluate@idForce_Drag@@UAEXH@Z 10155df0 f   Force_Drag.obj
 0001:00155240       ?RemovePhysics@idForce_Drag@@UAEXPBVidPhysics@@@Z 10156240 f   Force_Drag.obj
 0001:00155290       ?Set@idRotation@@QAEXABVidVec3@@0M@Z 10156290 f i Force_Drag.obj
 0001:00155300       ?CreateInstance@idForce_Field@@SAPAVidClass@@XZ 10156300 f   Force_Field.obj
 0001:001553f0       ?GetType@idForce_Field@@UBEPAVidTypeInfo@@XZ 101563f0 f   Force_Field.obj
 0001:00155420       ??0idForce_Field@@QAE@XZ   10156420 f   Force_Field.obj
 0001:00155500       ??_EidForce_Field@@UAEPAXI@Z 10156500 f i Force_Field.obj
 0001:00155500       ??_GidForce_Field@@UAEPAXI@Z 10156500 f i Force_Field.obj
 0001:00155560       ??1idForce_Field@@UAE@XZ   10156560 f   Force_Field.obj
 0001:00155620       ?Save@idForce_Field@@QBEXPAVidSaveGame@@@Z 10156620 f   Force_Field.obj
 0001:001556e0       ?Restore@idForce_Field@@QAEXPAVidRestoreGame@@@Z 101566e0 f   Force_Field.obj
 0001:001557a0       ?SetClipModel@idForce_Field@@QAEXPAVidClipModel@@@Z 101567a0 f   Force_Field.obj
 0001:00155840       ?Uniform@idForce_Field@@QAEXABVidVec3@@@Z 10156840 f   Force_Field.obj
 0001:001558b0       ?Explosion@idForce_Field@@QAEXM@Z 101568b0 f   Force_Field.obj
 0001:001558f0       ?Implosion@idForce_Field@@QAEXM@Z 101568f0 f   Force_Field.obj
 0001:00155930       ?RandomTorque@idForce_Field@@QAEXM@Z 10156930 f   Force_Field.obj
 0001:00155970       ?Evaluate@idForce_Field@@UAEXH@Z 10156970 f   Force_Field.obj
 0001:001560a0       ?CreateInstance@idForce_Spring@@SAPAVidClass@@XZ 101570a0 f   Force_Spring.obj
 0001:00156190       ?GetType@idForce_Spring@@UBEPAVidTypeInfo@@XZ 10157190 f   Force_Spring.obj
 0001:001561c0       ??0idForce_Spring@@QAE@XZ  101571c0 f   Force_Spring.obj
 0001:001562c0       ??_GidForce_Spring@@UAEPAXI@Z 101572c0 f i Force_Spring.obj
 0001:001562c0       ??_EidForce_Spring@@UAEPAXI@Z 101572c0 f i Force_Spring.obj
 0001:00156320       ??1idForce_Spring@@UAE@XZ  10157320 f   Force_Spring.obj
 0001:00156370       ?InitSpring@idForce_Spring@@QAEXMMMM@Z 10157370 f   Force_Spring.obj
 0001:001563c0       ?SetPosition@idForce_Spring@@QAEXPAVidPhysics@@HABVidVec3@@0H1@Z 101573c0 f   Force_Spring.obj
 0001:00156440       ?Evaluate@idForce_Spring@@UAEXH@Z 10157440 f   Force_Spring.obj
 0001:00156a30       ??0impactInfo_s@@QAE@XZ    10157a30 f i Force_Spring.obj
 0001:00156a90       ?RemovePhysics@idForce_Spring@@UAEXPBVidPhysics@@@Z 10157a90 f   Force_Spring.obj
 0001:00156af0       ?CreateInstance@idPhysics@@SAPAVidClass@@XZ 10157af0 f   Physics.obj
 0001:00156b40       ?GetType@idPhysics@@UBEPAVidTypeInfo@@XZ 10157b40 f   Physics.obj
 0001:00156b70       ??1idPhysics@@UAE@XZ       10157b70 f   Physics.obj
 0001:00156bc0       ??_GidPhysics@@UAEPAXI@Z   10157bc0 f i Physics.obj
 0001:00156bc0       ??_EidPhysics@@UAEPAXI@Z   10157bc0 f i Physics.obj
 0001:00156c20       ?Save@idPhysics@@QBEXPAVidSaveGame@@@Z 10157c20 f   Physics.obj
 0001:00156c50       ?Restore@idPhysics@@QAEXPAVidRestoreGame@@@Z 10157c50 f   Physics.obj
 0001:00156c80       ?SetClipBox@idPhysics@@UAEXABVidBounds@@M@Z 10157c80 f   Physics.obj
 0001:00156d60       ?SnapTimeToPhysicsFrame@idPhysics@@SAHH@Z 10157d60 f   Physics.obj
 0001:00156db0       ?CreateInstance@idPhysics_Actor@@SAPAVidClass@@XZ 10157db0 f   Physics_Actor.obj
 0001:00156ea0       ?GetType@idPhysics_Actor@@UBEPAVidTypeInfo@@XZ 10157ea0 f   Physics_Actor.obj
 0001:00156ed0       ??0idPhysics_Actor@@QAE@XZ 10157ed0 f   Physics_Actor.obj
 0001:00156fc0       ??_GidPhysics_Actor@@UAEPAXI@Z 10157fc0 f i Physics_Actor.obj
 0001:00156fc0       ??_EidPhysics_Actor@@UAEPAXI@Z 10157fc0 f i Physics_Actor.obj
 0001:00157020       ??1idPhysics_Actor@@UAE@XZ 10158020 f   Physics_Actor.obj
 0001:001570f0       ?Save@idPhysics_Actor@@QBEXPAVidSaveGame@@@Z 101580f0 f   Physics_Actor.obj
 0001:001571b0       ?Restore@idPhysics_Actor@@QAEXPAVidRestoreGame@@@Z 101581b0 f   Physics_Actor.obj
 0001:00157270       ?SetClipModelAxis@idPhysics_Actor@@QAEXXZ 10158270 f   Physics_Actor.obj
 0001:001573b0       ?GetGravityAxis@idPhysics_Actor@@QBEABVidMat3@@XZ 101583b0 f   Physics_Actor.obj
 0001:001573e0       ?GetMasterDeltaYaw@idPhysics_Actor@@QBEMXZ 101583e0 f   Physics_Actor.obj
 0001:00157410       ?GetGroundEntity@idPhysics_Actor@@QBEPAVidEntity@@XZ 10158410 f   Physics_Actor.obj
 0001:00157460       ?SetClipModel@idPhysics_Actor@@UAEXPAVidClipModel@@MH_N@Z 10158460 f   Physics_Actor.obj
 0001:001575d0       ?GetClipModel@idPhysics_Actor@@UBEPAVidClipModel@@H@Z 101585d0 f   Physics_Actor.obj
 0001:00157610       ?GetNumClipModels@idPhysics_Actor@@UBEHXZ 10158610 f   Physics_Actor.obj
 0001:00157640       ?SetMass@idPhysics_Actor@@UAEXMH@Z 10158640 f   Physics_Actor.obj
 0001:001576c0       ?GetMass@idPhysics_Actor@@UBEMH@Z 101586c0 f   Physics_Actor.obj
 0001:00157700       ?SetContents@idPhysics_Actor@@UAEXHH@Z 10158700 f   Physics_Actor.obj
 0001:00157750       ?GetContents@idPhysics_Actor@@UBEHH@Z 10158750 f   Physics_Actor.obj
 0001:001577a0       ?GetBounds@idPhysics_Actor@@UBEABVidBounds@@H@Z 101587a0 f   Physics_Actor.obj
 0001:001577f0       ?GetAbsBounds@idPhysics_Actor@@UBEABVidBounds@@H@Z 101587f0 f   Physics_Actor.obj
 0001:00157840       ?IsPushable@idPhysics_Actor@@UBE_NXZ 10158840 f   Physics_Actor.obj
 0001:00157880       ?GetOrigin@idPhysics_Actor@@UBEABVidVec3@@H@Z 10158880 f   Physics_Actor.obj
 0001:001578d0       ?GetAxis@idPhysics_Actor@@UBEABVidMat3@@H@Z 101588d0 f   Physics_Actor.obj
 0001:00157920       ?SetGravity@idPhysics_Actor@@UAEXABVidVec3@@@Z 10158920 f   Physics_Actor.obj
 0001:00157990       ?ClipTranslation@idPhysics_Actor@@UBEXAAUtrace_s@@ABVidVec3@@PBVidClipModel@@@Z 10158990 f   Physics_Actor.obj
 0001:00157aa0       ?ClipRotation@idPhysics_Actor@@UBEXAAUtrace_s@@ABVidRotation@@PBVidClipModel@@@Z 10158aa0 f   Physics_Actor.obj
 0001:00157b80       ?ClipContents@idPhysics_Actor@@UBEHPBVidClipModel@@@Z 10158b80 f   Physics_Actor.obj
 0001:00157c40       ?DisableClip@idPhysics_Actor@@UAEXXZ 10158c40 f   Physics_Actor.obj
 0001:00157c90       ?EnableClip@idPhysics_Actor@@UAEXXZ 10158c90 f   Physics_Actor.obj
 0001:00157ce0       ?UnlinkClip@idPhysics_Actor@@UAEXXZ 10158ce0 f   Physics_Actor.obj
 0001:00157d30       ?LinkClip@idPhysics_Actor@@UAEXXZ 10158d30 f   Physics_Actor.obj
 0001:00157da0       ?EvaluateContacts@idPhysics_Actor@@UAE_NXZ 10158da0 f   Physics_Actor.obj
 0001:00157e20       ?Num@?$idList@UcontactInfo_t@@@@QBEHXZ 10158e20 f i Physics_Actor.obj
 0001:00157e50       ?CreateInstance@idPhysics_AF@@SAPAVidClass@@XZ 10158e50 f   Physics_AF.obj
 0001:00157f40       ?GetType@idPhysics_AF@@UBEPAVidTypeInfo@@XZ 10158f40 f   Physics_AF.obj
 0001:00157f70       ??0idAFConstraint@@QAE@XZ  10158f70 f   Physics_AF.obj
 0001:00158250       ??_GidAFConstraint@@UAEPAXI@Z 10159250 f i Physics_AF.obj
 0001:00158250       ??_EidAFConstraint@@UAEPAXI@Z 10159250 f i Physics_AF.obj
 0001:001582b0       ??1idAFConstraint@@UAE@XZ  101592b0 f   Physics_AF.obj
 0001:001583e0       ?SetBody1@idAFConstraint@@UAEXPAVidAFBody@@@Z 101593e0 f   Physics_AF.obj
 0001:00158450       ?SetBody2@idAFConstraint@@UAEXPAVidAFBody@@@Z 10159450 f   Physics_AF.obj
 0001:001584c0       ?GetMultiplier@idAFConstraint@@QAEABVidVecX@@XZ 101594c0 f   Physics_AF.obj
 0001:00158500       ?Evaluate@idAFConstraint@@MAEXM@Z 10159500 f   Physics_AF.obj
 0001:00158560       ?ApplyFriction@idAFConstraint@@MAEXM@Z 10159560 f   Physics_AF.obj
 0001:00158590       ?GetForce@idAFConstraint@@UAEXPAVidAFBody@@AAVidVec6@@@Z 10159590 f   Physics_AF.obj
 0001:00158740       ?Translate@idAFConstraint@@UAEXABVidVec3@@@Z 10159740 f   Physics_AF.obj
 0001:001587a0       ?Rotate@idAFConstraint@@UAEXABVidRotation@@@Z 101597a0 f   Physics_AF.obj
 0001:00158800       ?GetCenter@idAFConstraint@@UAEXAAVidVec3@@@Z 10159800 f   Physics_AF.obj
 0001:00158850       ?DebugDraw@idAFConstraint@@UAEXXZ 10159850 f   Physics_AF.obj
 0001:00158880       ?InitSize@idAFConstraint@@IAEXH@Z 10159880 f   Physics_AF.obj
 0001:00158920       ?Save@idAFConstraint@@UBEXPAVidSaveGame@@@Z 10159920 f   Physics_AF.obj
 0001:00158970       ?Restore@idAFConstraint@@UAEXPAVidRestoreGame@@@Z 10159970 f   Physics_AF.obj
 0001:00158a10       ??0idAFConstraint_Fixed@@QAE@ABVidStr@@PAVidAFBody@@1@Z 10159a10 f   Physics_AF.obj
 0001:00158b30       ??_GidAFConstraint_Fixed@@UAEPAXI@Z 10159b30 f i Physics_AF.obj
 0001:00158b30       ??_EidAFConstraint_Fixed@@UAEPAXI@Z 10159b30 f i Physics_AF.obj
 0001:00158b90       ??1idAFConstraint_Fixed@@UAE@XZ 10159b90 f i Physics_AF.obj
 0001:00158bd0       ?InitOffset@idAFConstraint_Fixed@@IAEXXZ 10159bd0 f   Physics_AF.obj
 0001:00158cf0       ?SetBody1@idAFConstraint_Fixed@@UAEXPAVidAFBody@@@Z 10159cf0 f   Physics_AF.obj
 0001:00158d60       ?SetBody2@idAFConstraint_Fixed@@UAEXPAVidAFBody@@@Z 10159d60 f   Physics_AF.obj
 0001:00158dd0       ?Evaluate@idAFConstraint_Fixed@@MAEXM@Z 10159dd0 f   Physics_AF.obj
 0001:00159130       ?GetMasterBody@idPhysics_AF@@QBEPAVidAFBody@@XZ 1015a130 f i Physics_AF.obj
 0001:00159170       ?ApplyFriction@idAFConstraint_Fixed@@MAEXM@Z 1015a170 f   Physics_AF.obj
 0001:001591a0       ?Translate@idAFConstraint_Fixed@@UAEXABVidVec3@@@Z 1015a1a0 f   Physics_AF.obj
 0001:00159200       ?Rotate@idAFConstraint_Fixed@@UAEXABVidRotation@@@Z 1015a200 f   Physics_AF.obj
 0001:00159270       ?GetCenter@idAFConstraint_Fixed@@UAEXAAVidVec3@@@Z 1015a270 f   Physics_AF.obj
 0001:001592c0       ?DebugDraw@idAFConstraint_Fixed@@UAEXXZ 1015a2c0 f   Physics_AF.obj
 0001:001593b0       ?Save@idAFConstraint_Fixed@@UBEXPAVidSaveGame@@@Z 1015a3b0 f   Physics_AF.obj
 0001:00159420       ?Restore@idAFConstraint_Fixed@@UAEXPAVidRestoreGame@@@Z 1015a420 f   Physics_AF.obj
 0001:00159490       ??0idAFConstraint_BallAndSocketJoint@@QAE@ABVidStr@@PAVidAFBody@@1@Z 1015a490 f   Physics_AF.obj
 0001:001595e0       ??_EidAFConstraint_BallAndSocketJoint@@UAEPAXI@Z 1015a5e0 f i Physics_AF.obj
 0001:001595e0       ??_GidAFConstraint_BallAndSocketJoint@@UAEPAXI@Z 1015a5e0 f i Physics_AF.obj
 0001:00159640       ??1idAFConstraint_BallAndSocketJoint@@UAE@XZ 1015a640 f   Physics_AF.obj
 0001:00159770       ?SetAnchor@idAFConstraint_BallAndSocketJoint@@QAEXABVidVec3@@@Z 1015a770 f   Physics_AF.obj
 0001:001598c0       ?GetAnchor@idAFConstraint_BallAndSocketJoint@@QBE?AVidVec3@@XZ 1015a8c0 f   Physics_AF.obj
 0001:00159960       ?SetNoLimit@idAFConstraint_BallAndSocketJoint@@QAEXXZ 1015a960 f   Physics_AF.obj
 0001:00159a70       ?SetConeLimit@idAFConstraint_BallAndSocketJoint@@QAEXABVidVec3@@M0@Z 1015aa70 f   Physics_AF.obj
 0001:00159cb0       ?SetPhysics@idAFConstraint@@QAEXPAVidPhysics_AF@@@Z 1015acb0 f i Physics_AF.obj
 0001:00159cf0       ?SetPyramidLimit@idAFConstraint_BallAndSocketJoint@@QAEXABVidVec3@@0MM0@Z 1015acf0 f   Physics_AF.obj
 0001:00159f60       ?SetLimitEpsilon@idAFConstraint_BallAndSocketJoint@@QAEXM@Z 1015af60 f   Physics_AF.obj
 0001:00159fe0       ?SetEpsilon@idAFConstraint_ConeLimit@@QAEXM@Z 1015afe0 f i Physics_AF.obj
 0001:0015a020       ?SetEpsilon@idAFConstraint_PyramidLimit@@QAEXM@Z 1015b020 f i Physics_AF.obj
 0001:0015a060       ?GetFriction@idAFConstraint_BallAndSocketJoint@@QBEMXZ 1015b060 f   Physics_AF.obj
 0001:0015a0d0       ?Evaluate@idAFConstraint_BallAndSocketJoint@@MAEXM@Z 1015b0d0 f   Physics_AF.obj
 0001:0015a3d0       ?ApplyFriction@idAFConstraint_BallAndSocketJoint@@MAEXM@Z 1015b3d0 f   Physics_AF.obj
 0001:0015a640       ?GetAngularVelocity@idAFBody@@QBEABVidVec3@@XZ 1015b640 f i Physics_AF.obj
 0001:0015a690       ?SetAngularVelocity@idAFBody@@QBEXABVidVec3@@@Z 1015b690 f i Physics_AF.obj
 0001:0015a6f0       ?GetInverseMass@idAFBody@@QBEMXZ 1015b6f0 f i Physics_AF.obj
 0001:0015a730       ?GetForce@idAFConstraint_BallAndSocketJoint@@UAEXPAVidAFBody@@AAVidVec6@@@Z 1015b730 f   Physics_AF.obj
 0001:0015a780       ?Translate@idAFConstraint_BallAndSocketJoint@@UAEXABVidVec3@@@Z 1015b780 f   Physics_AF.obj
 0001:0015a840       ?Rotate@idAFConstraint_BallAndSocketJoint@@UAEXABVidRotation@@@Z 1015b840 f   Physics_AF.obj
 0001:0015a900       ?GetCenter@idAFConstraint_BallAndSocketJoint@@UAEXAAVidVec3@@@Z 1015b900 f   Physics_AF.obj
 0001:0015a990       ?DebugDraw@idAFConstraint_BallAndSocketJoint@@UAEXXZ 1015b990 f   Physics_AF.obj
 0001:0015abf0       ?Save@idAFConstraint_BallAndSocketJoint@@UBEXPAVidSaveGame@@@Z 1015bbf0 f   Physics_AF.obj
 0001:0015acd0       ?Restore@idAFConstraint_BallAndSocketJoint@@UAEXPAVidRestoreGame@@@Z 1015bcd0 f   Physics_AF.obj
 0001:0015adb0       ??0idAFConstraint_BallAndSocketJointFriction@@QAE@XZ 1015bdb0 f   Physics_AF.obj
 0001:0015ae90       ??_EidAFConstraint_BallAndSocketJointFriction@@UAEPAXI@Z 1015be90 f i Physics_AF.obj
 0001:0015ae90       ??_GidAFConstraint_BallAndSocketJointFriction@@UAEPAXI@Z 1015be90 f i Physics_AF.obj
 0001:0015aef0       ??1idAFConstraint_BallAndSocketJointFriction@@UAE@XZ 1015bef0 f i Physics_AF.obj
 0001:0015af30       ?Setup@idAFConstraint_BallAndSocketJointFriction@@QAEXPAVidAFConstraint_BallAndSocketJoint@@@Z 1015bf30 f   Physics_AF.obj
 0001:0015afa0       ?GetBody1@idAFConstraint@@QBEPAVidAFBody@@XZ 1015bfa0 f i Physics_AF.obj
 0001:0015afd0       ?Evaluate@idAFConstraint_BallAndSocketJointFriction@@MAEXM@Z 1015bfd0 f   Physics_AF.obj
 0001:0015b000       ?ApplyFriction@idAFConstraint_BallAndSocketJointFriction@@MAEXM@Z 1015c000 f   Physics_AF.obj
 0001:0015b030       ?Add@idAFConstraint_BallAndSocketJointFriction@@QAE_NPAVidPhysics_AF@@M@Z 1015c030 f   Physics_AF.obj
 0001:0015b200       ?Translate@idAFConstraint_BallAndSocketJointFriction@@UAEXABVidVec3@@@Z 1015c200 f   Physics_AF.obj
 0001:0015b230       ?Rotate@idAFConstraint_BallAndSocketJointFriction@@UAEXABVidRotation@@@Z 1015c230 f   Physics_AF.obj
 0001:0015b260       ??0idAFConstraint_UniversalJoint@@QAE@ABVidStr@@PAVidAFBody@@1@Z 1015c260 f   Physics_AF.obj
 0001:0015b3f0       ??_EidAFConstraint_UniversalJoint@@UAEPAXI@Z 1015c3f0 f i Physics_AF.obj
 0001:0015b3f0       ??_GidAFConstraint_UniversalJoint@@UAEPAXI@Z 1015c3f0 f i Physics_AF.obj
 0001:0015b450       ??1idAFConstraint_UniversalJoint@@UAE@XZ 1015c450 f   Physics_AF.obj
 0001:0015b5e0       ?SetAnchor@idAFConstraint_UniversalJoint@@QAEXABVidVec3@@@Z 1015c5e0 f   Physics_AF.obj
 0001:0015b730       ?GetAnchor@idAFConstraint_UniversalJoint@@QBE?AVidVec3@@XZ 1015c730 f   Physics_AF.obj
 0001:0015b7d0       ?SetShafts@idAFConstraint_UniversalJoint@@QAEXABVidVec3@@0@Z 1015c7d0 f   Physics_AF.obj
 0001:0015ba90       ?SetNoLimit@idAFConstraint_UniversalJoint@@QAEXXZ 1015ca90 f   Physics_AF.obj
 0001:0015bba0       ?SetConeLimit@idAFConstraint_UniversalJoint@@QAEXABVidVec3@@M@Z 1015cba0 f   Physics_AF.obj
 0001:0015bd90       ?SetPyramidLimit@idAFConstraint_UniversalJoint@@QAEXABVidVec3@@0MM@Z 1015cd90 f   Physics_AF.obj
 0001:0015bfc0       ?SetLimitEpsilon@idAFConstraint_UniversalJoint@@QAEXM@Z 1015cfc0 f   Physics_AF.obj
 0001:0015c040       ?GetFriction@idAFConstraint_UniversalJoint@@QBEMXZ 1015d040 f   Physics_AF.obj
 0001:0015c0b0       ?Evaluate@idAFConstraint_UniversalJoint@@MAEXM@Z 1015d0b0 f   Physics_AF.obj
 0001:0015c790       ?ApplyFriction@idAFConstraint_UniversalJoint@@MAEXM@Z 1015d790 f   Physics_AF.obj
 0001:0015ca00       ?GetForce@idAFConstraint_UniversalJoint@@UAEXPAVidAFBody@@AAVidVec6@@@Z 1015da00 f   Physics_AF.obj
 0001:0015ca50       ?Translate@idAFConstraint_UniversalJoint@@UAEXABVidVec3@@@Z 1015da50 f   Physics_AF.obj
 0001:0015cb10       ?Rotate@idAFConstraint_UniversalJoint@@UAEXABVidRotation@@@Z 1015db10 f   Physics_AF.obj
 0001:0015cc00       ?GetCenter@idAFConstraint_UniversalJoint@@UAEXAAVidVec3@@@Z 1015dc00 f   Physics_AF.obj
 0001:0015cc90       ?DebugDraw@idAFConstraint_UniversalJoint@@UAEXXZ 1015dc90 f   Physics_AF.obj
 0001:0015d270       ?Save@idAFConstraint_UniversalJoint@@UBEXPAVidSaveGame@@@Z 1015e270 f   Physics_AF.obj
 0001:0015d390       ?Restore@idAFConstraint_UniversalJoint@@UAEXPAVidRestoreGame@@@Z 1015e390 f   Physics_AF.obj
 0001:0015d4b0       ??GidVec6@@QBE?AV0@XZ      1015e4b0 f i Physics_AF.obj
 0001:0015d540       ??0idVec6@@QAE@MMMMMM@Z    1015e540 f i Physics_AF.obj
 0001:0015d5b0       ??0idAFConstraint_UniversalJointFriction@@QAE@XZ 1015e5b0 f   Physics_AF.obj
 0001:0015d690       ??AidVec6@@QAEAAMH@Z       1015e690 f i Physics_AF.obj
 0001:0015d6d0       ??_GidAFConstraint_UniversalJointFriction@@UAEPAXI@Z 1015e6d0 f i Physics_AF.obj
 0001:0015d6d0       ??_EidAFConstraint_UniversalJointFriction@@UAEPAXI@Z 1015e6d0 f i Physics_AF.obj
 0001:0015d730       ??1idAFConstraint_UniversalJointFriction@@UAE@XZ 1015e730 f i Physics_AF.obj
 0001:0015d770       ?Setup@idAFConstraint_UniversalJointFriction@@QAEXPAVidAFConstraint_UniversalJoint@@@Z 1015e770 f   Physics_AF.obj
 0001:0015d7e0       ?Evaluate@idAFConstraint_UniversalJointFriction@@MAEXM@Z 1015e7e0 f   Physics_AF.obj
 0001:0015d810       ?ApplyFriction@idAFConstraint_UniversalJointFriction@@MAEXM@Z 1015e810 f   Physics_AF.obj
 0001:0015d840       ?Add@idAFConstraint_UniversalJointFriction@@QAE_NPAVidPhysics_AF@@M@Z 1015e840 f   Physics_AF.obj
 0001:0015db30       ?GetShafts@idAFConstraint_UniversalJoint@@QAEXAAVidVec3@@0@Z 1015eb30 f i Physics_AF.obj
 0001:0015db90       ?Translate@idAFConstraint_UniversalJointFriction@@UAEXABVidVec3@@@Z 1015eb90 f   Physics_AF.obj
 0001:0015dbc0       ?Rotate@idAFConstraint_UniversalJointFriction@@UAEXABVidRotation@@@Z 1015ebc0 f   Physics_AF.obj
 0001:0015dbf0       ??0idAFConstraint_CylindricalJoint@@QAE@ABVidStr@@PAVidAFBody@@1@Z 1015ebf0 f   Physics_AF.obj
 0001:0015dc90       ??_GidAFConstraint_CylindricalJoint@@UAEPAXI@Z 1015ec90 f i Physics_AF.obj
 0001:0015dc90       ??_EidAFConstraint_CylindricalJoint@@UAEPAXI@Z 1015ec90 f i Physics_AF.obj
 0001:0015dcf0       ??1idAFConstraint_CylindricalJoint@@UAE@XZ 1015ecf0 f i Physics_AF.obj
 0001:0015dd30       ?Evaluate@idAFConstraint_CylindricalJoint@@MAEXM@Z 1015ed30 f   Physics_AF.obj
 0001:0015dd90       ?ApplyFriction@idAFConstraint_CylindricalJoint@@MAEXM@Z 1015ed90 f   Physics_AF.obj
 0001:0015ddf0       ?Translate@idAFConstraint_CylindricalJoint@@UAEXABVidVec3@@@Z 1015edf0 f   Physics_AF.obj
 0001:0015de50       ?Rotate@idAFConstraint_CylindricalJoint@@UAEXABVidRotation@@@Z 1015ee50 f   Physics_AF.obj
 0001:0015deb0       ?DebugDraw@idAFConstraint_CylindricalJoint@@UAEXXZ 1015eeb0 f   Physics_AF.obj
 0001:0015df10       ??0idAFConstraint_Hinge@@QAE@ABVidStr@@PAVidAFBody@@1@Z 1015ef10 f   Physics_AF.obj
 0001:0015e0d0       ??_GidAFConstraint_Hinge@@UAEPAXI@Z 1015f0d0 f i Physics_AF.obj
 0001:0015e0d0       ??_EidAFConstraint_Hinge@@UAEPAXI@Z 1015f0d0 f i Physics_AF.obj
 0001:0015e130       ??1idAFConstraint_Hinge@@UAE@XZ 1015f130 f   Physics_AF.obj
 0001:0015e2c0       ?SetAnchor@idAFConstraint_Hinge@@QAEXABVidVec3@@@Z 1015f2c0 f   Physics_AF.obj
 0001:0015e3f0       ?GetAnchor@idAFConstraint_Hinge@@QBE?AVidVec3@@XZ 1015f3f0 f   Physics_AF.obj
 0001:0015e490       ?SetAxis@idAFConstraint_Hinge@@QAEXABVidVec3@@@Z 1015f490 f   Physics_AF.obj
 0001:0015e5b0       ?GetAxis@idAFConstraint_Hinge@@QBE?AVidVec3@@XZ 1015f5b0 f   Physics_AF.obj
 0001:0015e640       ?SetNoLimit@idAFConstraint_Hinge@@QAEXXZ 1015f640 f   Physics_AF.obj
 0001:0015e6f0       ?SetLimit@idAFConstraint_Hinge@@QAEXABVidVec3@@M0@Z 1015f6f0 f   Physics_AF.obj
 0001:0015e8c0       ??0idVecX@@QAE@XZ          1015f8c0 f i Physics_AF.obj
 0001:0015e910       ?SetLimitEpsilon@idAFConstraint_Hinge@@QAEXM@Z 1015f910 f   Physics_AF.obj
 0001:0015e970       ?GetFriction@idAFConstraint_Hinge@@QBEMXZ 1015f970 f   Physics_AF.obj
 0001:0015e9e0       ??1idVecX@@QAE@XZ          1015f9e0 f i Physics_AF.obj
 0001:0015ea60       ?GetAngle@idAFConstraint_Hinge@@QBEMXZ 1015fa60 f   Physics_AF.obj
 0001:0015ebb0       ??AidVecX@@QAEAAMH@Z       1015fbb0 f i Physics_AF.obj
 0001:0015ec30       ?SetSteerAngle@idAFConstraint_Hinge@@QAEXM@Z 1015fc30 f   Physics_AF.obj
 0001:0015ed90       ?SetSteerAngle@idAFConstraint_HingeSteering@@QAEXM@Z 1015fd90 f i Physics_AF.obj
 0001:0015edd0       ?SetSteerSpeed@idAFConstraint_Hinge@@QAEXM@Z 1015fdd0 f   Physics_AF.obj
 0001:0015ee30       ?SetSteerSpeed@idAFConstraint_HingeSteering@@QAEXM@Z 1015fe30 f i Physics_AF.obj
 0001:0015ee70       ?Evaluate@idAFConstraint_Hinge@@MAEXM@Z 1015fe70 f   Physics_AF.obj
 0001:0015f440       ?ApplyFriction@idAFConstraint_Hinge@@MAEXM@Z 10160440 f   Physics_AF.obj
 0001:0015f6b0       ?GetForce@idAFConstraint_Hinge@@UAEXPAVidAFBody@@AAVidVec6@@@Z 101606b0 f   Physics_AF.obj
 0001:0015f700       ?Translate@idAFConstraint_Hinge@@UAEXABVidVec3@@@Z 10160700 f   Physics_AF.obj
 0001:0015f790       ?Rotate@idAFConstraint_Hinge@@UAEXABVidRotation@@@Z 10160790 f   Physics_AF.obj
 0001:0015f840       ?SetSize@idVecX@@QAEXH@Z   10160840 f i Physics_AF.obj
 0001:0015f910       ?GetCenter@idAFConstraint_Hinge@@UAEXAAVidVec3@@@Z 10160910 f   Physics_AF.obj
 0001:0015f9a0       ?DebugDraw@idAFConstraint_Hinge@@UAEXXZ 101609a0 f   Physics_AF.obj
 0001:0015fcd0       ?Save@idAFConstraint_Hinge@@UBEXPAVidSaveGame@@@Z 10160cd0 f   Physics_AF.obj
 0001:0015fe50       ?SetData@idVecX@@QAEXHPAM@Z 10160e50 f i Physics_AF.obj
 0001:0015ff40       ?Zero@idVecX@@QAEXXZ       10160f40 f i Physics_AF.obj
 0001:0015ffa0       ?Zero@idVecX@@QAEXH@Z      10160fa0 f i Physics_AF.obj
 0001:00160010       ?Restore@idAFConstraint_Hinge@@UAEXPAVidRestoreGame@@@Z 10161010 f   Physics_AF.obj
 0001:00160340       ?Clamp@idVecX@@QAEXMM@Z    10161340 f i Physics_AF.obj
 0001:001603e0       ??0idAFConstraint_HingeFriction@@QAE@XZ 101613e0 f   Physics_AF.obj
 0001:001604c0       ?Length@idVecX@@QBEMXZ     101614c0 f i Physics_AF.obj
 0001:00160550       ??_EidAFConstraint_HingeFriction@@UAEPAXI@Z 10161550 f i Physics_AF.obj
 0001:00160550       ??_GidAFConstraint_HingeFriction@@UAEPAXI@Z 10161550 f i Physics_AF.obj
 0001:001605b0       ??1idAFConstraint_HingeFriction@@UAE@XZ 101615b0 f i Physics_AF.obj
 0001:001605f0       ?Setup@idAFConstraint_HingeFriction@@QAEXPAVidAFConstraint_Hinge@@@Z 101615f0 f   Physics_AF.obj
 0001:00160660       ?Evaluate@idAFConstraint_HingeFriction@@MAEXM@Z 10161660 f   Physics_AF.obj
 0001:00160690       ?ApplyFriction@idAFConstraint_HingeFriction@@MAEXM@Z 10161690 f   Physics_AF.obj
 0001:001606c0       ?Add@idAFConstraint_HingeFriction@@QAE_NPAVidPhysics_AF@@M@Z 101616c0 f   Physics_AF.obj
 0001:001608d0       ?GetAxis@idAFConstraint_Hinge@@QBEXAAVidVec3@@0@Z 101618d0 f i Physics_AF.obj
 0001:00160930       ?SubVec3@idVecX@@QAEAAVidVec3@@H@Z 10161930 f i Physics_AF.obj
 0001:001609b0       ?Translate@idAFConstraint_HingeFriction@@UAEXABVidVec3@@@Z 101619b0 f   Physics_AF.obj
 0001:001609e0       ?Rotate@idAFConstraint_HingeFriction@@UAEXABVidRotation@@@Z 101619e0 f   Physics_AF.obj
 0001:00160a10       ??0idAFConstraint_HingeSteering@@QAE@XZ 10161a10 f   Physics_AF.obj
 0001:00160b00       ?SubVec6@idVecX@@QAEAAVidVec6@@H@Z 10161b00 f i Physics_AF.obj
 0001:00160b80       ??_EidAFConstraint_HingeSteering@@UAEPAXI@Z 10161b80 f i Physics_AF.obj
 0001:00160b80       ??_GidAFConstraint_HingeSteering@@UAEPAXI@Z 10161b80 f i Physics_AF.obj
 0001:00160be0       ??1idAFConstraint_HingeSteering@@UAE@XZ 10161be0 f i Physics_AF.obj
 0001:00160c20       ?Save@idAFConstraint_HingeSteering@@UBEXPAVidSaveGame@@@Z 10161c20 f   Physics_AF.obj
 0001:00160c90       ?Restore@idAFConstraint_HingeSteering@@UAEXPAVidRestoreGame@@@Z 10161c90 f   Physics_AF.obj
 0001:00160d00       ?Setup@idAFConstraint_HingeSteering@@QAEXPAVidAFConstraint_Hinge@@@Z 10161d00 f   Physics_AF.obj
 0001:00160d70       ?Evaluate@idAFConstraint_HingeSteering@@MAEXM@Z 10161d70 f   Physics_AF.obj
 0001:00160da0       ?ApplyFriction@idAFConstraint_HingeSteering@@MAEXM@Z 10161da0 f   Physics_AF.obj
 0001:00160dd0       ?Add@idAFConstraint_HingeSteering@@QAE_NPAVidPhysics_AF@@M@Z 10161dd0 f   Physics_AF.obj
 0001:00161010       ?Translate@idAFConstraint_HingeSteering@@UAEXABVidVec3@@@Z 10162010 f   Physics_AF.obj
 0001:00161040       ?Rotate@idAFConstraint_HingeSteering@@UAEXABVidRotation@@@Z 10162040 f   Physics_AF.obj
 0001:00161070       ??0idAFConstraint_Slider@@QAE@ABVidStr@@PAVidAFBody@@1@Z 10162070 f   Physics_AF.obj
 0001:00161270       ??_GidAFConstraint_Slider@@UAEPAXI@Z 10162270 f i Physics_AF.obj
 0001:00161270       ??_EidAFConstraint_Slider@@UAEPAXI@Z 10162270 f i Physics_AF.obj
 0001:001612d0       ??1idAFConstraint_Slider@@UAE@XZ 101622d0 f i Physics_AF.obj
 0001:00161310       ?SetAxis@idAFConstraint_Slider@@QAEXABVidVec3@@@Z 10162310 f   Physics_AF.obj
 0001:001613f0       ?Evaluate@idAFConstraint_Slider@@MAEXM@Z 101623f0 f   Physics_AF.obj
 0001:00161850       ?ApplyFriction@idAFConstraint_Slider@@MAEXM@Z 10162850 f   Physics_AF.obj
 0001:00161880       ?Translate@idAFConstraint_Slider@@UAEXABVidVec3@@@Z 10162880 f   Physics_AF.obj
 0001:001618e0       ?Rotate@idAFConstraint_Slider@@UAEXABVidRotation@@@Z 101628e0 f   Physics_AF.obj
 0001:00161940       ?GetCenter@idAFConstraint_Slider@@UAEXAAVidVec3@@@Z 10162940 f   Physics_AF.obj
 0001:00161a40       ?DebugDraw@idAFConstraint_Slider@@UAEXXZ 10162a40 f   Physics_AF.obj
 0001:00161bd0       ?Save@idAFConstraint_Slider@@UBEXPAVidSaveGame@@@Z 10162bd0 f   Physics_AF.obj
 0001:00161c50       ?Restore@idAFConstraint_Slider@@UAEXPAVidRestoreGame@@@Z 10162c50 f   Physics_AF.obj
 0001:00161cd0       ??0idAFConstraint_Line@@QAE@ABVidStr@@PAVidAFBody@@1@Z 10162cd0 f   Physics_AF.obj
 0001:00161d70       ??_EidAFConstraint_Line@@UAEPAXI@Z 10162d70 f i Physics_AF.obj
 0001:00161d70       ??_GidAFConstraint_Line@@UAEPAXI@Z 10162d70 f i Physics_AF.obj
 0001:00161dd0       ??1idAFConstraint_Line@@UAE@XZ 10162dd0 f i Physics_AF.obj
 0001:00161e10       ?Evaluate@idAFConstraint_Line@@MAEXM@Z 10162e10 f   Physics_AF.obj
 0001:00161e70       ?ApplyFriction@idAFConstraint_Line@@MAEXM@Z 10162e70 f   Physics_AF.obj
 0001:00161ed0       ?Translate@idAFConstraint_Line@@UAEXABVidVec3@@@Z 10162ed0 f   Physics_AF.obj
 0001:00161f30       ?Rotate@idAFConstraint_Line@@UAEXABVidRotation@@@Z 10162f30 f   Physics_AF.obj
 0001:00161f90       ?DebugDraw@idAFConstraint_Line@@UAEXXZ 10162f90 f   Physics_AF.obj
 0001:00161ff0       ??0idAFConstraint_Plane@@QAE@ABVidStr@@PAVidAFBody@@1@Z 10162ff0 f   Physics_AF.obj
 0001:00162120       ??_EidAFConstraint_Plane@@UAEPAXI@Z 10163120 f i Physics_AF.obj
 0001:00162120       ??_GidAFConstraint_Plane@@UAEPAXI@Z 10163120 f i Physics_AF.obj
 0001:00162180       ??1idAFConstraint_Plane@@UAE@XZ 10163180 f i Physics_AF.obj
 0001:001621c0       ?SetPlane@idAFConstraint_Plane@@QAEXABVidVec3@@0@Z 101631c0 f   Physics_AF.obj
 0001:00162310       ??0idMat3@@QAE@ABVidVec3@@00@Z 10163310 f i Physics_AF.obj
 0001:001623d0       ?Evaluate@idAFConstraint_Plane@@MAEXM@Z 101633d0 f   Physics_AF.obj
 0001:00162740       ??0idVec6@@QAE@XZ          10163740 f i Physics_AF.obj
 0001:00162770       ?ToFloatPtr@idVec6@@QAEPAMXZ 10163770 f i Physics_AF.obj
 0001:001627a0       ?ApplyFriction@idAFConstraint_Plane@@MAEXM@Z 101637a0 f   Physics_AF.obj
 0001:001627d0       ?Translate@idAFConstraint_Plane@@UAEXABVidVec3@@@Z 101637d0 f   Physics_AF.obj
 0001:00162830       ?Rotate@idAFConstraint_Plane@@UAEXABVidRotation@@@Z 10163830 f   Physics_AF.obj
 0001:001628b0       ?DebugDraw@idAFConstraint_Plane@@UAEXXZ 101638b0 f   Physics_AF.obj
 0001:00162b30       ?Save@idAFConstraint_Plane@@UBEXPAVidSaveGame@@@Z 10163b30 f   Physics_AF.obj
 0001:00162bb0       ?Restore@idAFConstraint_Plane@@UAEXPAVidRestoreGame@@@Z 10163bb0 f   Physics_AF.obj
 0001:00162c30       ??0idAFConstraint_Spring@@QAE@ABVidStr@@PAVidAFBody@@1@Z 10163c30 f   Physics_AF.obj
 0001:00162d90       ??_EidAFConstraint_Spring@@UAEPAXI@Z 10163d90 f i Physics_AF.obj
 0001:00162d90       ??_GidAFConstraint_Spring@@UAEPAXI@Z 10163d90 f i Physics_AF.obj
 0001:00162df0       ??1idAFConstraint_Spring@@UAE@XZ 10163df0 f i Physics_AF.obj
 0001:00162e30       ?SetAnchor@idAFConstraint_Spring@@QAEXABVidVec3@@0@Z 10163e30 f   Physics_AF.obj
 0001:00162f30       ?SetSpring@idAFConstraint_Spring@@QAEXMMMM@Z 10163f30 f   Physics_AF.obj
 0001:00162ff0       ?SetLimit@idAFConstraint_Spring@@QAEXMM@Z 10163ff0 f   Physics_AF.obj
 0001:00163090       ?Evaluate@idAFConstraint_Spring@@MAEXM@Z 10164090 f   Physics_AF.obj
 0001:00163710       ?ApplyFriction@idAFConstraint_Spring@@MAEXM@Z 10164710 f   Physics_AF.obj
 0001:00163740       ?Translate@idAFConstraint_Spring@@UAEXABVidVec3@@@Z 10164740 f   Physics_AF.obj
 0001:001637a0       ?Rotate@idAFConstraint_Spring@@UAEXABVidRotation@@@Z 101647a0 f   Physics_AF.obj
 0001:00163800       ?GetCenter@idAFConstraint_Spring@@UAEXAAVidVec3@@@Z 10164800 f   Physics_AF.obj
 0001:00163990       ?DebugDraw@idAFConstraint_Spring@@UAEXXZ 10164990 f   Physics_AF.obj
 0001:00163f50       ?Save@idAFConstraint_Spring@@UBEXPAVidSaveGame@@@Z 10164f50 f   Physics_AF.obj
 0001:00164030       ?Restore@idAFConstraint_Spring@@UAEXPAVidRestoreGame@@@Z 10165030 f   Physics_AF.obj
 0001:00164100       ??0idAFConstraint_Contact@@QAE@XZ 10165100 f   Physics_AF.obj
 0001:001641f0       ??_GidAFConstraint_Contact@@UAEPAXI@Z 101651f0 f i Physics_AF.obj
 0001:001641f0       ??_EidAFConstraint_Contact@@UAEPAXI@Z 101651f0 f i Physics_AF.obj
 0001:00164250       ??1idAFConstraint_Contact@@UAE@XZ 10165250 f   Physics_AF.obj
 0001:00164330       ?Setup@idAFConstraint_Contact@@QAEXPAVidAFBody@@0AAUcontactInfo_t@@@Z 10165330 f   Physics_AF.obj
 0001:00164690       ?GetBouncyness@idAFBody@@QBEMXZ 10165690 f i Physics_AF.obj
 0001:001646c0       ?Evaluate@idAFConstraint_Contact@@MAEXM@Z 101656c0 f   Physics_AF.obj
 0001:001646f0       ?ApplyFriction@idAFConstraint_Contact@@MAEXM@Z 101656f0 f   Physics_AF.obj
 0001:00164c30       ?GetContactFriction@idAFBody@@QBEMXZ 10165c30 f i Physics_AF.obj
 0001:00164c60       ?GetInverseWorldInertia@idAFBody@@QBE?AVidMat3@@XZ 10165c60 f i Physics_AF.obj
 0001:00164cf0       ?ToFloatPtr@idVecX@@QAEPAMXZ 10165cf0 f i Physics_AF.obj
 0001:00164d20       ?SkewSymmetric@@YA?AVidMat3@@ABVidVec3@@@Z 10165d20 f i Physics_AF.obj
 0001:00164da0       ?Translate@idAFConstraint_Contact@@UAEXABVidVec3@@@Z 10165da0 f   Physics_AF.obj
 0001:00164e00       ?Rotate@idAFConstraint_Contact@@UAEXABVidRotation@@@Z 10165e00 f   Physics_AF.obj
 0001:00164e60       ?GetCenter@idAFConstraint_Contact@@UAEXAAVidVec3@@@Z 10165e60 f   Physics_AF.obj
 0001:00164eb0       ?DebugDraw@idAFConstraint_Contact@@UAEXXZ 10165eb0 f   Physics_AF.obj
 0001:00165110       ??0idAFConstraint_ContactFriction@@QAE@XZ 10166110 f   Physics_AF.obj
 0001:001651f0       ??_GidAFConstraint_ContactFriction@@UAEPAXI@Z 101661f0 f i Physics_AF.obj
 0001:001651f0       ??_EidAFConstraint_ContactFriction@@UAEPAXI@Z 101661f0 f i Physics_AF.obj
 0001:00165250       ??1idAFConstraint_ContactFriction@@UAE@XZ 10166250 f i Physics_AF.obj
 0001:00165290       ?Setup@idAFConstraint_ContactFriction@@QAEXPAVidAFConstraint_Contact@@@Z 10166290 f   Physics_AF.obj
 0001:00165300       ?Evaluate@idAFConstraint_ContactFriction@@MAEXM@Z 10166300 f   Physics_AF.obj
 0001:00165330       ?ApplyFriction@idAFConstraint_ContactFriction@@MAEXM@Z 10166330 f   Physics_AF.obj
 0001:00165360       ?Add@idAFConstraint_ContactFriction@@QAE_NPAVidPhysics_AF@@M@Z 10166360 f   Physics_AF.obj
 0001:00165cd0       ?GetContactMotorVelocity@idAFBody@@QBEMXZ 10166cd0 f i Physics_AF.obj
 0001:00165d00       ?GetContactMotorForce@idAFBody@@QBEMXZ 10166d00 f i Physics_AF.obj
 0001:00165d40       ?ChangeSize@idVecX@@QAEXH_N@Z 10166d40 f i Physics_AF.obj
 0001:00165e80       ?Translate@idAFConstraint_ContactFriction@@UAEXABVidVec3@@@Z 10166e80 f   Physics_AF.obj
 0001:00165eb0       ?Rotate@idAFConstraint_ContactFriction@@UAEXABVidRotation@@@Z 10166eb0 f   Physics_AF.obj
 0001:00165ee0       ?DebugDraw@idAFConstraint_ContactFriction@@UAEXXZ 10166ee0 f   Physics_AF.obj
 0001:00165f10       ??0idAFConstraint_ConeLimit@@QAE@XZ 10166f10 f   Physics_AF.obj
 0001:00166000       ??_GidAFConstraint_ConeLimit@@UAEPAXI@Z 10167000 f i Physics_AF.obj
 0001:00166000       ??_EidAFConstraint_ConeLimit@@UAEPAXI@Z 10167000 f i Physics_AF.obj
 0001:00166060       ??1idAFConstraint_ConeLimit@@UAE@XZ 10167060 f i Physics_AF.obj
 0001:001660a0       ?Setup@idAFConstraint_ConeLimit@@QAEXPAVidAFBody@@0ABVidVec3@@1M1@Z 101670a0 f   Physics_AF.obj
 0001:001661b0       ?SetAnchor@idAFConstraint_ConeLimit@@QAEXABVidVec3@@@Z 101671b0 f   Physics_AF.obj
 0001:00166200       ?SetBody1Axis@idAFConstraint_ConeLimit@@QAEXABVidVec3@@@Z 10167200 f   Physics_AF.obj
 0001:00166250       ?Evaluate@idAFConstraint_ConeLimit@@MAEXM@Z 10167250 f   Physics_AF.obj
 0001:00166280       ?ApplyFriction@idAFConstraint_ConeLimit@@MAEXM@Z 10167280 f   Physics_AF.obj
 0001:001662b0       ?Add@idAFConstraint_ConeLimit@@QAE_NPAVidPhysics_AF@@M@Z 101672b0 f   Physics_AF.obj
 0001:001668f0       ?Translate@idAFConstraint_ConeLimit@@UAEXABVidVec3@@@Z 101678f0 f   Physics_AF.obj
 0001:00166950       ?Rotate@idAFConstraint_ConeLimit@@UAEXABVidRotation@@@Z 10167950 f   Physics_AF.obj
 0001:001669d0       ?DebugDraw@idAFConstraint_ConeLimit@@UAEXXZ 101679d0 f   Physics_AF.obj
 0001:00166e30       ?Save@idAFConstraint_ConeLimit@@UBEXPAVidSaveGame@@@Z 10167e30 f   Physics_AF.obj
 0001:00166ef0       ?Restore@idAFConstraint_ConeLimit@@UAEXPAVidRestoreGame@@@Z 10167ef0 f   Physics_AF.obj
 0001:00166fb0       ??0idAFConstraint_PyramidLimit@@QAE@XZ 10167fb0 f   Physics_AF.obj
 0001:001670a0       ??_GidAFConstraint_PyramidLimit@@UAEPAXI@Z 101680a0 f i Physics_AF.obj
 0001:001670a0       ??_EidAFConstraint_PyramidLimit@@UAEPAXI@Z 101680a0 f i Physics_AF.obj
 0001:00167100       ??1idAFConstraint_PyramidLimit@@UAE@XZ 10168100 f i Physics_AF.obj
 0001:00167140       ?Setup@idAFConstraint_PyramidLimit@@QAEXPAVidAFBody@@0ABVidVec3@@11MM1@Z 10168140 f   Physics_AF.obj
 0001:001673b0       ?SetAnchor@idAFConstraint_PyramidLimit@@QAEXABVidVec3@@@Z 101683b0 f   Physics_AF.obj
 0001:00167400       ?SetBody1Axis@idAFConstraint_PyramidLimit@@QAEXABVidVec3@@@Z 10168400 f   Physics_AF.obj
 0001:00167450       ?Evaluate@idAFConstraint_PyramidLimit@@MAEXM@Z 10168450 f   Physics_AF.obj
 0001:00167480       ?ApplyFriction@idAFConstraint_PyramidLimit@@MAEXM@Z 10168480 f   Physics_AF.obj
 0001:001674b0       ?Add@idAFConstraint_PyramidLimit@@QAE_NPAVidPhysics_AF@@M@Z 101684b0 f   Physics_AF.obj
 0001:00167d70       ?Translate@idAFConstraint_PyramidLimit@@UAEXABVidVec3@@@Z 10168d70 f   Physics_AF.obj
 0001:00167dd0       ?Rotate@idAFConstraint_PyramidLimit@@UAEXABVidRotation@@@Z 10168dd0 f   Physics_AF.obj
 0001:00167e90       ?DebugDraw@idAFConstraint_PyramidLimit@@UAEXXZ 10168e90 f   Physics_AF.obj
 0001:00168460       ?Save@idAFConstraint_PyramidLimit@@UBEXPAVidSaveGame@@@Z 10169460 f   Physics_AF.obj
 0001:00168560       ?Restore@idAFConstraint_PyramidLimit@@UAEXPAVidRestoreGame@@@Z 10169560 f   Physics_AF.obj
 0001:00168650       ??0idAFConstraint_Suspension@@QAE@XZ 10169650 f   Physics_AF.obj
 0001:00168810       ??_EidAFConstraint_Suspension@@UAEPAXI@Z 10169810 f i Physics_AF.obj
 0001:00168810       ??_GidAFConstraint_Suspension@@UAEPAXI@Z 10169810 f i Physics_AF.obj
 0001:00168870       ??1idAFConstraint_Suspension@@UAE@XZ 10169870 f i Physics_AF.obj
 0001:001688b0       ?Setup@idAFConstraint_Suspension@@QAEXPBDPAVidAFBody@@ABVidVec3@@ABVidMat3@@PAVidClipModel@@@Z 101698b0 f   Physics_AF.obj
 0001:001689a0       ?SetSuspension@idAFConstraint_Suspension@@QAEXMMMMM@Z 101699a0 f   Physics_AF.obj
 0001:00168a10       ?GetWheelOrigin@idAFConstraint_Suspension@@QBE?BVidVec3@@XZ 10169a10 f   Physics_AF.obj
 0001:00168a90       ?Evaluate@idAFConstraint_Suspension@@MAEXM@Z 10169a90 f   Physics_AF.obj
 0001:00169760       ?ApplyFriction@idAFConstraint_Suspension@@MAEXM@Z 1016a760 f   Physics_AF.obj
 0001:00169790       ?Translate@idAFConstraint_Suspension@@UAEXABVidVec3@@@Z 1016a790 f   Physics_AF.obj
 0001:001697c0       ?Rotate@idAFConstraint_Suspension@@UAEXABVidRotation@@@Z 1016a7c0 f   Physics_AF.obj
 0001:001697f0       ?DebugDraw@idAFConstraint_Suspension@@UAEXXZ 1016a7f0 f   Physics_AF.obj
 0001:00169af0       ??0idAFBody@@QAE@XZ        1016aaf0 f   Physics_AF.obj
 0001:00169ca0       ??0AFBodyPState_s@@QAE@XZ  1016aca0 f i Physics_AF.obj
 0001:00169d10       ??0idAFBody@@QAE@ABVidStr@@PAVidClipModel@@M@Z 1016ad10 f   Physics_AF.obj
 0001:00169f90       ??4AFBodyPState_s@@QAEAAU0@ABU0@@Z 1016af90 f i Physics_AF.obj
 0001:0016a050       ??1idAFBody@@QAE@XZ        1016b050 f   Physics_AF.obj
 0001:0016a1b0       ?Init@idAFBody@@QAEXXZ     1016b1b0 f   Physics_AF.obj
 0001:0016a4c0       ?SetClipModel@idAFBody@@QAEXPAVidClipModel@@@Z 1016b4c0 f   Physics_AF.obj
 0001:0016a560       ?SetFriction@idAFBody@@QAEXMMM@Z 1016b560 f   Physics_AF.obj
 0001:0016a640       ?SetBouncyness@idAFBody@@QAEXM@Z 1016b640 f   Physics_AF.obj
 0001:0016a6c0       ?SetDensity@idAFBody@@QAEXMABVidMat3@@@Z 1016b6c0 f   Physics_AF.obj
 0001:0016aa10       ?IsDiagonal@idMat3@@QBE_NM@Z 1016ba10 f i Physics_AF.obj
 0001:0016ab30       ?Inverse@idMat3@@QBE?AV1@XZ 1016bb30 f i Physics_AF.obj
 0001:0016abf0       ?SetFrictionDirection@idAFBody@@QAEXABVidVec3@@@Z 1016bbf0 f   Physics_AF.obj
 0001:0016ac80       ?GetFrictionDirection@idAFBody@@QBE_NAAVidVec3@@@Z 1016bc80 f   Physics_AF.obj
 0001:0016ad10       ?SetContactMotorDirection@idAFBody@@QAEXABVidVec3@@@Z 1016bd10 f   Physics_AF.obj
 0001:0016ada0       ?GetContactMotorDirection@idAFBody@@QBE_NAAVidVec3@@@Z 1016bda0 f   Physics_AF.obj
 0001:0016ae30       ?GetPointVelocity@idAFBody@@QBE?AVidVec3@@ABV2@@Z 1016be30 f   Physics_AF.obj
 0001:0016aef0       ?AddForce@idAFBody@@QAEXABVidVec3@@0@Z 1016bef0 f   Physics_AF.obj
 0001:0016af90       ?InverseWorldSpatialInertiaMultiply@idAFBody@@QBEXAAVidVecX@@PBM@Z 1016bf90 f i Physics_AF.obj
 0001:0016b0f0       ?Save@idAFBody@@QAEXPAVidSaveGame@@@Z 1016c0f0 f   Physics_AF.obj
 0001:0016b280       ?Restore@idAFBody@@QAEXPAVidRestoreGame@@@Z 1016c280 f   Physics_AF.obj
 0001:0016b410       ?Factor@idAFTree@@QBEXXZ   1016c410 f   Physics_AF.obj
 0001:0016ba00       ?Solve@idAFTree@@QBEXH@Z   1016ca00 f   Physics_AF.obj
 0001:0016bdd0       ??4idVecX@@QAEAAV0@ABV0@@Z 1016cdd0 f i Physics_AF.obj
 0001:0016be60       ?Response@idAFTree@@QBEXPBVidAFConstraint@@HH@Z 1016ce60 f   Physics_AF.obj
 0001:0016c4b0       ?GetResponseForce@idAFBody@@QAEAAVidVec6@@H@Z 1016d4b0 f i Physics_AF.obj
 0001:0016c4f0       ?Zero@idVec6@@QAEXXZ       1016d4f0 f i Physics_AF.obj
 0001:0016c560       ?CalculateForces@idAFTree@@QBEXM@Z 1016d560 f   Physics_AF.obj
 0001:0016c9c0       ??DidVec6@@QBE?AV0@M@Z     1016d9c0 f i Physics_AF.obj
 0001:0016ca60       ??HidVec6@@QBE?AV0@ABV0@@Z 1016da60 f i Physics_AF.obj
 0001:0016cb20       ??AidVec6@@QBEMH@Z         1016db20 f i Physics_AF.obj
 0001:0016cb60       ??YidVec6@@QAEAAV0@ABV0@@Z 1016db60 f i Physics_AF.obj
 0001:0016cc20       ??HidVecX@@QBE?AV0@ABV0@@Z 1016dc20 f i Physics_AF.obj
 0001:0016cd60       ??D@YA?AVidVecX@@MV0@@Z    1016dd60 f i Physics_AF.obj
 0001:0016cdf0       ??DidVecX@@QBE?AV0@M@Z     1016ddf0 f i Physics_AF.obj
 0001:0016cf00       ?SetTempSize@idVecX@@AAEXH@Z 1016df00 f i Physics_AF.obj
 0001:0016cff0       ?SetMaxSubTreeAuxiliaryIndex@idAFTree@@QAEXXZ 1016dff0 f   Physics_AF.obj
 0001:0016d0d0       ?SortBodies_r@idAFTree@@QAEXAAV?$idList@PAVidAFBody@@@@PAVidAFBody@@@Z 1016e0d0 f   Physics_AF.obj
 0001:0016d190       ?SortBodies@idAFTree@@QAEXXZ 1016e190 f   Physics_AF.obj
 0001:0016d280       ?DebugDraw@idAFTree@@QBEXABVidVec4@@@Z 1016e280 f   Physics_AF.obj
 0001:0016d330       ?EvaluateConstraints@idPhysics_AF@@AAEXM@Z 1016e330 f   Physics_AF.obj
 0001:0016d540       ?EvaluateBodies@idPhysics_AF@@AAEXM@Z 1016e540 f   Physics_AF.obj
 0001:0016d890       ?AddFrameConstraints@idPhysics_AF@@AAEXXZ 1016e890 f   Physics_AF.obj
 0001:0016d910       ?RemoveFrameConstraints@idPhysics_AF@@AAEXXZ 1016e910 f   Physics_AF.obj
 0001:0016d990       ?ApplyFriction@idPhysics_AF@@AAEXMM@Z 1016e990 f   Physics_AF.obj
