 gamex86

 Timestamp is 44b031a0 (Sat Jul 08 15:28:48 2006)

 Preferred load address is 10000000

 Start         Length     Name                   Class
 0001:00000000 001c8f69H .textbss                DATA
 0002:00000000 00369dfaH .text                   CODE
 0002:00369e00 0000fe9fH .text$x                 CODE
 0002:00379ca0 0002a573H .text$yc                CODE
 0002:003a4220 00009fd7H .text$yd                CODE
 0003:00000000 000472e5H .rdata                  DATA
 0003:000472e8 00000138H .rdata$debug            DATA
 0003:00047420 00004dbaH .rdata$r                DATA
 0003:0004c1dc 00000104H .rtc$IAA                DATA
 0003:0004c2e0 00000109H .rtc$IMZ                DATA
 0003:0004c3ec 00000104H .rtc$IZZ                DATA
 0003:0004c4f0 00000104H .rtc$TAA                DATA
 0003:0004c5f4 00000109H .rtc$TMZ                DATA
 0003:0004c700 00000104H .rtc$TZZ                DATA
 0003:0004c804 00012c56H .xdata$x                DATA
 0003:0005f460 000011ddH .edata                  DATA
 0004:00000000 00000104H .CRT$XCA                DATA
 0004:00000104 00000104H .CRT$XCAA               DATA
 0004:00000208 00001f51H .CRT$XCU                DATA
 0004:0000215c 00000104H .CRT$XCZ                DATA
 0004:00002260 00000104H .CRT$XIA                DATA
 0004:00002364 00000113H .CRT$XIC                DATA
 0004:00002478 00000104H .CRT$XIY                DATA
 0004:0000257c 00000104H .CRT$XIZ                DATA
 0004:00002680 00000104H .CRT$XPA                DATA
 0004:00002784 00000104H .CRT$XPX                DATA
 0004:00002888 00000104H .CRT$XPZ                DATA
 0004:0000298c 00000104H .CRT$XTA                DATA
 0004:00002a90 00000104H .CRT$XTB                DATA
 0004:00002b94 00000104H .CRT$XTZ                DATA
 0004:00002ca0 00008ab6H .data                   DATA
 0004:0000b760 0086361cH .bss                    DATA
 0005:00000000 00000050H .idata$2                DATA
 0005:00000050 00000014H .idata$3                DATA
 0005:00000064 00000288H .idata$4                DATA
 0005:000002ec 00000288H .idata$5                DATA
 0005:00000574 0000085bH .idata$6                DATA

  Address         Publics by Value              Rva+Base     Lib:Object

 0000:00000000       ___safe_se_handler_table   00000000     <absolute>
 0000:00000000       ___safe_se_handler_count   00000000     <absolute>
 0000:00000000       __except_list              00000000     <absolute>
 0001:00000000       __enc$textbss$begin        10001000     <linker-defined>
 0001:001c8f69       __enc$textbss$end          101c9f69     <linker-defined>
 0002:00017970       ??_H@YGXPAXIHP6EPAX0@Z@Z   101e1970 f i Actor.obj
 0002:000179e0       ??0idAnimState@@QAE@XZ     101e19e0 f   Actor.obj
 0002:00017aa0       ??0idStr@@QAE@XZ           101e1aa0 f i Actor.obj
 0002:00017b00       ?Init@idStr@@IAEXXZ        101e1b00 f i Actor.obj
 0002:00017b70       ??1idAnimState@@QAE@XZ     101e1b70 f   Actor.obj
 0002:00017c60       ??1idStr@@QAE@XZ           101e1c60 f i Actor.obj
 0002:00017cb0       ?Save@idAnimState@@QBEXPAVidSaveGame@@@Z 101e1cb0 f   Actor.obj
 0002:00017db0       ??BidStr@@QBEPBDXZ         101e1db0 f i Actor.obj
 0002:00017e00       ?c_str@idStr@@QBEPBDXZ     101e1e00 f i Actor.obj
 0002:00017e40       ?Restore@idAnimState@@QAEXPAVidRestoreGame@@@Z 101e1e40 f   Actor.obj
 0002:00017f90       ?Init@idAnimState@@QAEXPAVidActor@@PAVidAnimator@@H@Z 101e1f90 f   Actor.obj
 0002:00018130       ?ManualControl@idThread@@QAEXXZ 101e2130 f i Actor.obj
 0002:000181a0       ?EndThread@idThread@@QAEXXZ 101e21a0 f i Actor.obj
 0002:000181f0       ?Shutdown@idAnimState@@QAEXXZ 101e21f0 f   Actor.obj
 0002:000182b0       ?SetState@idAnimState@@QAEXPBDH@Z 101e22b0 f   Actor.obj
 0002:00018450       ?GetInteger@idCVar@@QBEHXZ 101e2450 f i Actor.obj
 0002:00018490       ?StopAnim@idAnimState@@QAEXH@Z 101e2490 f   Actor.obj
 0002:00018520       ?FRAME2MS@@YAHH@Z          101e2520 f i Actor.obj
 0002:00018570       ?PlayAnim@idAnimState@@QAEXH@Z 101e2570 f   Actor.obj
 0002:00018610       ?CycleAnim@idAnimState@@QAEXH@Z 101e2610 f   Actor.obj
 0002:000186b0       ?BecomeIdle@idAnimState@@QAEXXZ 101e26b0 f   Actor.obj
 0002:000186f0       ?Disabled@idAnimState@@QBE_NXZ 101e26f0 f   Actor.obj
 0002:00018730       ?AnimDone@idAnimState@@QBE_NH@Z 101e2730 f   Actor.obj
 0002:000187d0       ?IsIdle@idAnimState@@QBE_NXZ 101e27d0 f   Actor.obj
 0002:00018850       ?GetAnimFlags@idAnimState@@QBE?AUanimFlags_t@@XZ 101e2850 f   Actor.obj
 0002:00018950       ?Enable@idAnimState@@QAEXH@Z 101e2950 f   Actor.obj
 0002:00018a00       ?Length@idStr@@QBEHXZ      101e2a00 f i Actor.obj
 0002:00018a40       ?Disable@idAnimState@@QAEXXZ 101e2a40 f   Actor.obj
 0002:00018a90       ?UpdateState@idAnimState@@QAE_NXZ 101e2a90 f   Actor.obj
 0002:00018b30       ?EnableDebugInfo@idThread@@QAEXXZ 101e2b30 f i Actor.obj
 0002:00018b80       ?DisableDebugInfo@idThread@@QAEXXZ 101e2b80 f i Actor.obj
 0002:00018bd0       ?CreateInstance@idActor@@SAPAVidClass@@XZ 101e2bd0 f   Actor.obj
 0002:00018d00       ?GetType@idActor@@UBEPAVidTypeInfo@@XZ 101e2d00 f   Actor.obj
 0002:00018d40       ??0idActor@@QAE@XZ         101e2d40 f   Actor.obj
 0002:00019170       ??0idVec3@@QAE@XZ          101e3170 f i Actor.obj
 0002:000191b0       ?Zero@idVec3@@QAEXXZ       101e31b0 f i Actor.obj
 0002:00019210       ??0idMat3@@QAE@XZ          101e3210 f i Actor.obj
 0002:00019270       ?Identity@idMat3@@QAEXXZ   101e3270 f i Actor.obj
 0002:000192d0       ??4idMat3@@QAEAAV0@ABV0@@Z 101e32d0 f i Actor.obj
 0002:00019360       ??4idVec3@@QAEAAV0@ABV0@@Z 101e3360 f i Actor.obj
 0002:000193d0       ??0idAngles@@QAE@XZ        101e33d0 f i Actor.obj
 0002:00019410       ?Zero@idAngles@@QAEAAV1@XZ 101e3410 f i Actor.obj
 0002:00019470       ??_EidActor@@UAEPAXI@Z     101e3470 f i Actor.obj
 0002:00019470       ??_GidActor@@UAEPAXI@Z     101e3470 f i Actor.obj
 0002:000194e0       ??1idActor@@UAE@XZ         101e34e0 f   Actor.obj
 0002:00019800       ??_GidClipModel@@QAEPAXI@Z 101e3800 f i Actor.obj
 0002:00019870       ?Spawn@idActor@@QAEXXZ     101e3870 f   Actor.obj
 0002:0001a1d0       ?FtoiFast@idMath@@SAHM@Z   101e41d0 f i Actor.obj
 0002:0001a220       ??BidStr@@QAEPBDXZ         101e4220 f i Actor.obj
 0002:0001a270       ??4idStr@@QAEXABV0@@Z      101e4270 f i Actor.obj
 0002:0001a320       ?EnsureAlloced@idStr@@IAEXH_N@Z 101e4320 f i Actor.obj
 0002:0001a390       ??8@YA_NABVidStr@@PBD@Z    101e4390 f i Actor.obj
 0002:0001a420       ?GetKey@idKeyValue@@QBEABVidStr@@XZ 101e4420 f i Actor.obj
 0002:0001a460       ?GetValue@idKeyValue@@QBEABVidStr@@XZ 101e4460 f i Actor.obj
 0002:0001a4a0       ??0idDict@@QAE@XZ          101e44a0 f i Actor.obj
 0002:0001a580       ??0idHashIndex@@QAE@XZ     101e4580 f i Actor.obj
 0002:0001a5e0       ??1idHashIndex@@QAE@XZ     101e45e0 f i Actor.obj
 0002:0001a630       ?Clear@idHashIndex@@QAEXHH@Z 101e4630 f i Actor.obj
 0002:0001a6a0       ?SetGranularity@idHashIndex@@QAEXH@Z 101e46a0 f i Actor.obj
 0002:0001a730       ??1idDict@@QAE@XZ          101e4730 f i Actor.obj
 0002:0001a7e0       ?GetString@idDict@@QBE_NPBD0AAVidStr@@@Z 101e47e0 f i Actor.obj
 0002:0001a870       ?GetFloat@idDict@@QBEMPBD0@Z 101e4870 f i Actor.obj
 0002:0001a8e0       ?GetString@idDict@@QBEPBDPBD0@Z 101e48e0 f i Actor.obj
 0002:0001a960       ?GetInt@idDict@@QBEHPBD0@Z 101e4960 f i Actor.obj
 0002:0001a9d0       ?GetBool@idDict@@QBE_NPBD0@Z 101e49d0 f i Actor.obj
 0002:0001aa40       ?FinishSetup@idActor@@AAEXXZ 101e4a40 f   Actor.obj
 0002:0001ab60       ?GetString@idDict@@QBE_NPBD0PAPBD@Z 101e4b60 f i Actor.obj
 0002:0001abf0       ?SetupHead@idActor@@AAEXXZ 101e4bf0 f   Actor.obj
 0002:0001b0d0       ??HidVec3@@QBE?AV0@ABV0@@Z 101e50d0 f i Actor.obj
 0002:0001b160       ??0idVec3@@QAE@MMM@Z       101e5160 f i Actor.obj
 0002:0001b1c0       ??D@YA?AVidVec3@@ABV0@ABVidMat3@@@Z 101e51c0 f i Actor.obj
 0002:0001b220       ??DidMat3@@QBE?AVidVec3@@ABV1@@Z 101e5220 f i Actor.obj
 0002:0001b320       ?CopyJointsFromBodyToHead@idActor@@IAEXXZ 101e5320 f   Actor.obj
 0002:0001b700       ??ZidVec3@@QAEAAV0@ABV0@@Z 101e5700 f i Actor.obj
 0002:0001b780       ??DidMat3@@QBE?AV0@ABV0@@Z 101e5780 f i Actor.obj
 0002:0001b8d0       ?Transpose@idMat3@@QBE?AV1@XZ 101e58d0 f i Actor.obj
 0002:0001b9e0       ??AidVec3@@QBEMH@Z         101e59e0 f i Actor.obj
 0002:0001ba30       ??0idMat3@@QAE@MMMMMMMMM@Z 101e5a30 f i Actor.obj
 0002:0001bb00       ?Restart@idActor@@UAEXXZ   101e5b00 f   Actor.obj
 0002:0001bba0       ?Save@idActor@@QBEXPAVidSaveGame@@@Z 101e5ba0 f   Actor.obj
 0002:0001c3e0       ?Length@idStr@@SAHPBD@Z    101e63e0 f i Actor.obj
 0002:0001c440       ??0idToken@@QAE@XZ         101e6440 f i Actor.obj
 0002:0001c4a0       ??1idToken@@QAE@XZ         101e64a0 f i Actor.obj
 0002:0001c4f0       ?Restore@idActor@@QAEXPAVidRestoreGame@@@Z 101e64f0 f   Actor.obj
 0002:0001cbe0       ?Hide@idActor@@UAEXXZ      101e6be0 f   Actor.obj
 0002:0001cd20       ?IsType@idClass@@QBE_NABVidTypeInfo@@@Z 101e6d20 f i Actor.obj
 0002:0001cda0       ?IsType@idTypeInfo@@QBE_NABV1@@Z 101e6da0 f i Actor.obj
 0002:0001ce20       ?Show@idActor@@UAEXXZ      101e6e20 f   Actor.obj
 0002:0001cf50       ?GetDefaultSurfaceType@idActor@@UBEHXZ 101e6f50 f   Actor.obj
 0002:0001cf90       ?ProjectOverlay@idActor@@UAEXABVidVec3@@0MPBD@Z 101e6f90 f   Actor.obj
 0002:0001d0a0       ?LoadAF@idActor@@UAE_NXZ   101e70a0 f   Actor.obj
 0002:0001d240       ?SetAnimator@idAF@@QAEXPAVidAnimator@@@Z 101e7240 f i Actor.obj
 0002:0001d290       ?SetupBody@idActor@@QAEXXZ 101e7290 f   Actor.obj
 0002:0001d980       ??GidVec3@@QBE?AV0@ABV0@@Z 101e7980 f i Actor.obj
 0002:0001da10       ??YidVec3@@QAEAAV0@ABV0@@Z 101e7a10 f i Actor.obj
 0002:0001da90       ??AidBounds@@QBEABVidVec3@@H@Z 101e7a90 f i Actor.obj
 0002:0001dae0       ?CheckBlink@idActor@@QAEXXZ 101e7ae0 f   Actor.obj
 0002:0001dc70       ?RandomFloat@idRandom@@QAEMXZ 101e7c70 f i Actor.obj
 0002:0001dce0       ?RandomInt@idRandom@@QAEHXZ 101e7ce0 f i Actor.obj
 0002:0001dd40       ?GetPhysicsToVisualTransform@idActor@@UAE_NAAVidVec3@@AAVidMat3@@@Z 101e7d40 f   Actor.obj
 0002:0001ddf0       ?IsActive@idAF@@QBE_NXZ    101e7df0 f i Actor.obj
 0002:0001de30       ?GetPhysicsToSoundTransform@idActor@@UAE_NAAVidVec3@@AAVidMat3@@@Z 101e7e30 f   Actor.obj
 0002:0001df60       ??DidVec3@@QBE?AV0@M@Z     101e7f60 f i Actor.obj
 0002:0001dff0       ?ShutdownThreads@idActor@@QAEXXZ 101e7ff0 f   Actor.obj
 0002:0001e120       ?ShouldConstructScriptObjectAtSpawn@idActor@@UBE_NXZ 101e8120 f   Actor.obj
 0002:0001e160       ?ConstructScriptObject@idActor@@UAEPAVidThread@@XZ 101e8160 f   Actor.obj
 0002:0001e390       ?GetScriptFunction@idActor@@QAEPBVfunction_t@@PBD@Z 101e8390 f   Actor.obj
 0002:0001e440       ?SetState@idActor@@QAEXPBVfunction_t@@@Z 101e8440 f   Actor.obj
 0002:0001e540       ?SetState@idActor@@QAEXPBD@Z 101e8540 f   Actor.obj
 0002:0001e5b0       ?UpdateScript@idActor@@QAEXXZ 101e85b0 f   Actor.obj
 0002:0001e6f0       ?SetFOV@idActor@@QAEXM@Z   101e86f0 f   Actor.obj
 0002:0001e770       ?cos@@YAMM@Z               101e8770 f i Actor.obj
 0002:0001e7c0       _cosf                      101e87c0 f i Actor.obj
 0002:0001e820       ?SetEyeHeight@idActor@@QAEXM@Z 101e8820 f   Actor.obj
 0002:0001e870       ?EyeHeight@idActor@@QBEMXZ 101e8870 f   Actor.obj
 0002:0001e8b0       ?EyeOffset@idActor@@QBE?AVidVec3@@XZ 101e88b0 f   Actor.obj
 0002:0001e960       ?GetEyePosition@idActor@@QBE?AVidVec3@@XZ 101e8960 f   Actor.obj
 0002:0001ea50       ?GetViewPos@idActor@@UBEXAAVidVec3@@AAVidMat3@@@Z 101e8a50 f   Actor.obj
 0002:0001ead0       ?CheckFOV@idActor@@QBE_NABVidVec3@@@Z 101e8ad0 f   Actor.obj
 0002:0001ec90       ??DidVec3@@QBEMABV0@@Z     101e8c90 f i Actor.obj
 0002:0001ed00       ?Normalize@idVec3@@QAEMXZ  101e8d00 f i Actor.obj
 0002:0001edd0       ?InvSqrt@idMath@@SAMM@Z    101e8dd0 f i Actor.obj
 0002:0001ef20       ??AidMat3@@QBEABVidVec3@@H@Z 101e8f20 f i Actor.obj
 0002:0001ef70       ?CanSee@idActor@@QBE_NPAVidEntity@@_N@Z 101e8f70 f   Actor.obj
 0002:0001f190       ?TracePoint@idClip@@QAE_NAAUtrace_s@@ABVidVec3@@1HPBVidEntity@@@Z 101e9190 f i Actor.obj
 0002:0001f240       ??0trace_s@@QAE@XZ         101e9240 f i Actor.obj
 0002:0001f2c0       ??0contactInfo_t@@QAE@XZ   101e92c0 f i Actor.obj
 0002:0001f330       ?PointVisible@idActor@@QBE_NABVidVec3@@@Z 101e9330 f   Actor.obj
 0002:0001f4d0       ??AidVec3@@QAEAAMH@Z       101e94d0 f i Actor.obj
 0002:0001f520       ?GetAIAimTargets@idActor@@UAEXABVidVec3@@AAV2@1@Z 101e9520 f   Actor.obj
 0002:0001f630       ?GetCenter@idBounds@@QBE?AVidVec3@@XZ 101e9630 f i Actor.obj
 0002:0001f730       ?GetRenderView@idActor@@UAEPAUrenderView_s@@XZ 101e9730 f   Actor.obj
 0002:0001f7d0       ?SetCombatModel@idActor@@QAEXXZ 101e97d0 f   Actor.obj
 0002:0001f940       ?GetCombatModel@idActor@@QBEPAVidClipModel@@XZ 101e9940 f   Actor.obj
 0002:0001f980       ?LinkCombat@idActor@@UAEXXZ 101e9980 f   Actor.obj
 0002:0001fa80       ?UnlinkCombat@idActor@@UAEXXZ 101e9a80 f   Actor.obj
 0002:0001fb20       ?StartRagdoll@idActor@@QAE_NXZ 101e9b20 f   Actor.obj
 0002:0001fe70       ?IsLoaded@idAF@@QBE_NXZ    101e9e70 f i Actor.obj
 0002:0001fef0       ?GetPhysics@idAF@@QAEPAVidPhysics_AF@@XZ 101e9ef0 f i Actor.obj
 0002:0001ff30       ?StopRagdoll@idActor@@QAEXXZ 101e9f30 f   Actor.obj
 0002:0001ffa0       ?UpdateAnimationControllers@idActor@@UAE_NXZ 101e9fa0 f   Actor.obj
 0002:00020070       ?RemoveAttachments@idActor@@IAEXXZ 101ea070 f   Actor.obj
 0002:00020150       ?Attach@idActor@@QAEXPAVidEntity@@@Z 101ea150 f   Actor.obj
 0002:00020520       ??4idAngles@@QAEAAV0@ABV0@@Z 101ea520 f i Actor.obj
 0002:00020590       ?GetVector@idDict@@QBE?AVidVec3@@PBD0@Z 101ea590 f i Actor.obj
 0002:00020650       ?GetAngles@idDict@@QBE?AVidAngles@@PBD0@Z 101ea650 f i Actor.obj
 0002:00020710       ?Teleport@idActor@@UAEXABVidVec3@@ABVidAngles@@PAVidEntity@@@Z 101ea710 f   Actor.obj
 0002:00020850       ?GetDeltaViewAngles@idActor@@QBEABVidAngles@@XZ 101ea850 f   Actor.obj
 0002:00020890       ?SetDeltaViewAngles@idActor@@QAEXABVidAngles@@@Z 101ea890 f   Actor.obj
 0002:000208f0       ?HasEnemies@idActor@@QBE_NXZ 101ea8f0 f   Actor.obj
 0002:00020990       ?ClosestEnemyToPoint@idActor@@QAEPAV1@ABVidVec3@@@Z 101ea990 f   Actor.obj
 0002:00020b20       ?LengthSqr@idVec3@@QBEMXZ  101eab20 f i Actor.obj
 0002:00020b90       ?EnemyWithMostHealth@idActor@@QAEPAV1@XZ 101eab90 f   Actor.obj
 0002:00020c70       ?OnLadder@idActor@@UBE_NXZ 101eac70 f   Actor.obj
 0002:00020cb0       ?GetAASLocation@idActor@@UBEXPAVidAAS@@AAVidVec3@@AAH@Z 101eacb0 f   Actor.obj
 0002:00020e60       ??GidVec3@@QBE?AV0@XZ      101eae60 f i Actor.obj
 0002:00020ee0       ??0idBounds@@QAE@XZ        101eaee0 f i Actor.obj
 0002:00020f40       ??AidBounds@@QAEAAVidVec3@@H@Z 101eaf40 f i Actor.obj
 0002:00020f90       ?SetAnimState@idActor@@QAEXHPBDH@Z 101eaf90 f   Actor.obj
 0002:00021170       ?GetAnimState@idActor@@QBEPBDH@Z 101eb170 f   Actor.obj
 0002:00021240       ?InAnimState@idActor@@QBE_NHPBD@Z 101eb240 f   Actor.obj
 0002:00021360       ?WaitState@idActor@@QBEPBDXZ 101eb360 f   Actor.obj
 0002:000213e0       ?SetWaitState@idActor@@QAEXPBD@Z 101eb3e0 f   Actor.obj
 0002:00021440       ?UpdateAnimState@idActor@@QAEXXZ 101eb440 f   Actor.obj
 0002:000214c0       ?GetAnim@idActor@@QAEHHPBD@Z 101eb4c0 f   Actor.obj
 0002:00021600       ?SyncAnimChannels@idActor@@AAEXHHH@Z 101eb600 f   Actor.obj
 0002:00021950       ?Gib@idActor@@MAEXABVidVec3@@PBD@Z 101eb950 f   Actor.obj
 0002:00021a30       ?Damage@idActor@@UAEXPAVidEntity@@0ABVidVec3@@PBDMH@Z 101eba30 f   Actor.obj
 0002:00021d60       ?ClearPain@idActor@@QAEXXZ 101ebd60 f   Actor.obj
 0002:00021db0       ?Pain@idActor@@UAE_NPAVidEntity@@0HABVidVec3@@H@Z 101ebdb0 f   Actor.obj
 0002:00022380       ??0idStr@@QAE@PBD@Z        101ec380 f i Actor.obj
 0002:00022430       ??9@YA_NABVidStr@@PBD@Z    101ec430 f i Actor.obj
 0002:00022490       ?GetBool@idCVar@@QBE_NXZ   101ec490 f i Actor.obj
 0002:000224e0       ?SpawnGibs@idActor@@UAEXABVidVec3@@PBD@Z 101ec4e0 f   Actor.obj
 0002:00022550       ?SetupDamageGroups@idActor@@QAEXXZ 101ec550 f   Actor.obj
 0002:00022930       ??8@YA_NABVidStr@@0@Z      101ec930 f i Actor.obj
 0002:00022990       ?Strip@idStr@@QAEXPBD@Z    101ec990 f i Actor.obj
 0002:00022a00       ?GetDamageForLocation@idActor@@QAEHHH@Z 101eca00 f   Actor.obj
 0002:00022ab0       ?ceil@@YAMM@Z              101ecab0 f i Actor.obj
 0002:00022b00       _ceilf                     101ecb00 f i Actor.obj
 0002:00022b60       ?GetDamageGroup@idActor@@QAEPBDH@Z 101ecb60 f   Actor.obj
 0002:00022bf0       ?PlayFootStepSound@idActor@@AAEXXZ 101ecbf0 f   Actor.obj
 0002:00022d80       ?GetSurfaceType@idMaterial@@QBE?BW4surfTypes_t@@XZ 101ecd80 f i Actor.obj
 0002:00022dc0       ?Event_EnableEyeFocus@idActor@@AAEXXZ 101ecdc0 f   Actor.obj
 0002:00022e90       ?Event_DisableEyeFocus@idActor@@AAEXXZ 101ece90 f   Actor.obj
 0002:00022f70       ?Event_Footstep@idActor@@AAEXXZ 101ecf70 f   Actor.obj
 0002:00022fc0       ?Event_EnableWalkIK@idActor@@AAEXXZ 101ecfc0 f   Actor.obj
 0002:00023020       ?Event_DisableWalkIK@idActor@@AAEXXZ 101ed020 f   Actor.obj
 0002:00023080       ?Event_EnableLegIK@idActor@@AAEXH@Z 101ed080 f   Actor.obj
 0002:000230e0       ?Event_DisableLegIK@idActor@@AAEXH@Z 101ed0e0 f   Actor.obj
 0002:00023140       ?Event_PreventPain@idActor@@AAEXM@Z 101ed140 f   Actor.obj
 0002:000231c0       ?Event_DisablePain@idActor@@AAEXXZ 101ed1c0 f   Actor.obj
 0002:00023210       ?Event_EnablePain@idActor@@AAEXXZ 101ed210 f   Actor.obj
 0002:00023260       ?Event_GetPainAnim@idActor@@AAEXXZ 101ed260 f   Actor.obj
 0002:000232f0       ?Event_SetAnimPrefix@idActor@@AAEXPBD@Z 101ed2f0 f   Actor.obj
 0002:00023350       ?Event_StopAnim@idActor@@AAEXHH@Z 101ed350 f   Actor.obj
 0002:00023430       ?Event_PlayAnim@idActor@@AAEXHPBD@Z 101ed430 f   Actor.obj
 0002:000238e0       ?Event_PlayCycle@idActor@@AAEXHPBD@Z 101ed8e0 f   Actor.obj
 0002:00023d60       ?Event_IdleAnim@idActor@@AAEXHPBD@Z 101edd60 f   Actor.obj
 0002:00024320       ?Event_SetSyncedAnimWeight@idActor@@AAEXHHM@Z 101ee320 f   Actor.obj
 0002:00024620       ?Event_OverrideAnim@idActor@@AAEXH@Z 101ee620 f   Actor.obj
 0002:000247c0       ?Event_EnableAnim@idActor@@AAEXHH@Z 101ee7c0 f   Actor.obj
 0002:000248a0       ?Event_SetBlendFrames@idActor@@AAEXHH@Z 101ee8a0 f   Actor.obj
 0002:00024990       ?Event_GetBlendFrames@idActor@@AAEXH@Z 101ee990 f   Actor.obj
 0002:00024a70       ?Event_AnimState@idActor@@AAEXHPBDH@Z 101eea70 f   Actor.obj
 0002:00024ad0       ?Event_GetAnimState@idActor@@AAEXH@Z 101eead0 f   Actor.obj
 0002:00024b40       ?Event_InAnimState@idActor@@AAEXHPBD@Z 101eeb40 f   Actor.obj
 0002:00024bb0       ?Event_FinishAction@idActor@@AAEXPBD@Z 101eebb0 f   Actor.obj
 0002:00024c30       ?Event_AnimDone@idActor@@AAEXHH@Z 101eec30 f   Actor.obj
 0002:00024d50       ?Event_HasAnim@idActor@@AAEXHPBD@Z 101eed50 f   Actor.obj
 0002:00024dd0       ?Event_CheckAnim@idActor@@AAEXHPBD@Z 101eedd0 f   Actor.obj
 0002:00024ec0       ?Event_ChooseAnim@idActor@@AAEXHPBD@Z 101eeec0 f   Actor.obj
 0002:00024fd0       ?Event_AnimLength@idActor@@AAEXHPBD@Z 101eefd0 f   Actor.obj
 0002:00025120       ?Event_AnimDistance@idActor@@AAEXHPBD@Z 101ef120 f   Actor.obj
 0002:00025250       ?Length@idVec3@@QBEMXZ     101ef250 f i Actor.obj
 0002:000252e0       ?Sqrt@idMath@@SAMM@Z       101ef2e0 f i Actor.obj
 0002:00025340       ?Event_HasEnemies@idActor@@AAEXXZ 101ef340 f   Actor.obj
 0002:000253b0       ?Event_NextEnemy@idActor@@AAEXPAVidEntity@@@Z 101ef3b0 f   Actor.obj
 0002:00025520       ?Event_ClosestEnemyToPoint@idActor@@AAEXABVidVec3@@@Z 101ef520 f   Actor.obj
 0002:00025590       ?Event_StopSound@idActor@@AAEXHH@Z 101ef590 f   Actor.obj
 0002:00025630       ?Event_SetNextState@idActor@@AAEXPBD@Z 101ef630 f   Actor.obj
 0002:000256c0       ?Event_SetState@idActor@@AAEXPBD@Z 101ef6c0 f   Actor.obj
 0002:00025760       ?DoneProcessing@idThread@@QAEXXZ 101ef760 f i Actor.obj
 0002:000257b0       ?Event_GetState@idActor@@AAEXXZ 101ef7b0 f   Actor.obj
 0002:00025840       ?Event_GetHead@idActor@@AAEXXZ 101ef840 f   Actor.obj
 0002:000258b0       ?Event_SetDamageGroupScale@idActor@@AAEXPBDM@Z 101ef8b0 f   Actor.obj
 0002:00025980       ?Event_SetDamageGroupScaleAll@idActor@@AAEXM@Z 101ef980 f   Actor.obj
 0002:00025a20       ?Event_GetDamageGroupScale@idActor@@AAEXPBD@Z 101efa20 f   Actor.obj
 0002:00025b00       ?Event_SetDamageCap@idActor@@AAEXM@Z 101efb00 f   Actor.obj
 0002:00025b50       ?Event_SetWaitState@idActor@@AAEXPBD@Z 101efb50 f   Actor.obj
 0002:00025bb0       ?Event_GetWaitState@idActor@@AAEXXZ 101efbb0 f   Actor.obj
 0002:00025c30       ??0?$idList@M@@QAE@H@Z     101efc30 f i Actor.obj
 0002:00025cd0       ??1?$idList@M@@QAE@XZ      101efcd0 f i Actor.obj
 0002:00025d20       ?Clear@?$idList@M@@QAEXXZ  101efd20 f i Actor.obj
 0002:00025dc0       ?Num@?$idList@M@@QBEHXZ    101efdc0 f i Actor.obj
 0002:00025e00       ??A?$idList@M@@QAEAAMH@Z   101efe00 f i Actor.obj
 0002:00025ec0       ??A?$idList@M@@QBEABMH@Z   101efec0 f i Actor.obj
 0002:00025f80       ?SetNum@?$idList@M@@QAEXH_N@Z 101eff80 f i Actor.obj
 0002:00026030       ??0?$idList@VidStr@@@@QAE@H@Z 101f0030 f i Actor.obj
 0002:000260d0       ??1?$idList@VidStr@@@@QAE@XZ 101f00d0 f i Actor.obj
 0002:00026120       ?Num@?$idList@VidStr@@@@QBEHXZ 101f0120 f i Actor.obj
 0002:00026160       ?SetGranularity@?$idList@VidStr@@@@QAEXH@Z 101f0160 f i Actor.obj
 0002:00026240       ??A?$idList@VidStr@@@@QAEAAVidStr@@H@Z 101f0240 f i Actor.obj
 0002:00026300       ??A?$idList@VidStr@@@@QBEABVidStr@@H@Z 101f0300 f i Actor.obj
 0002:000263c0       ?SetNum@?$idList@VidStr@@@@QAEXH_N@Z 101f03c0 f i Actor.obj
 0002:00026470       ??0?$idList@VidKeyValue@@@@QAE@H@Z 101f0470 f i Actor.obj
 0002:00026510       ??1?$idList@VidKeyValue@@@@QAE@XZ 101f0510 f i Actor.obj
 0002:00026560       ?SetGranularity@?$idList@VidKeyValue@@@@QAEXH@Z 101f0560 f i Actor.obj
 0002:00026640       ?Save@?$idEntityPtr@VidEntity@@@@QBEXPAVidSaveGame@@@Z 101f0640 f i Actor.obj
 0002:000266a0       ?Restore@?$idEntityPtr@VidEntity@@@@QAEXPAVidRestoreGame@@@Z 101f06a0 f i Actor.obj
 0002:00026700       ??4?$idEntityPtr@VidEntity@@@@QAEAAV0@PAVidEntity@@@Z 101f0700 f i Actor.obj
 0002:00026780       ?GetEntity@?$idEntityPtr@VidEntity@@@@QBEPAVidEntity@@XZ 101f0780 f i Actor.obj
 0002:000267f0       ??0?$idEntityPtr@VidAFAttachment@@@@QAE@XZ 101f07f0 f i Actor.obj
 0002:00026840       ?Save@?$idEntityPtr@VidAFAttachment@@@@QBEXPAVidSaveGame@@@Z 101f0840 f i Actor.obj
 0002:000268a0       ?Restore@?$idEntityPtr@VidAFAttachment@@@@QAEXPAVidRestoreGame@@@Z 101f08a0 f i Actor.obj
 0002:00026900       ??4?$idEntityPtr@VidAFAttachment@@@@QAEAAV0@PAVidAFAttachment@@@Z 101f0900 f i Actor.obj
 0002:00026980       ?GetEntity@?$idEntityPtr@VidAFAttachment@@@@QBEPAVidAFAttachment@@XZ 101f0980 f i Actor.obj
 0002:000269f0       ??0?$idLinkList@VidActor@@@@QAE@XZ 101f09f0 f i Actor.obj
 0002:00026a60       ??1?$idLinkList@VidActor@@@@QAE@XZ 101f0a60 f i Actor.obj
 0002:00026ab0       ?Num@?$idLinkList@VidActor@@@@QBEHXZ 101f0ab0 f i Actor.obj
 0002:00026b30       ?AddToEnd@?$idLinkList@VidActor@@@@QAEXAAV1@@Z 101f0b30 f i Actor.obj
 0002:00026b90       ?Next@?$idLinkList@VidActor@@@@QBEPAVidActor@@XZ 101f0b90 f i Actor.obj
 0002:00026bf0       ?SetOwner@?$idLinkList@VidActor@@@@QAEXPAVidActor@@@Z 101f0bf0 f i Actor.obj
 0002:00026c40       ?ListHead@?$idLinkList@VidActor@@@@QBEPAV1@XZ 101f0c40 f i Actor.obj
 0002:00026c80       ??0?$idList@UcopyJoints_t@@@@QAE@H@Z 101f0c80 f i Actor.obj
 0002:00026d20       ??1?$idList@UcopyJoints_t@@@@QAE@XZ 101f0d20 f i Actor.obj
 0002:00026d70       ?Num@?$idList@UcopyJoints_t@@@@QBEHXZ 101f0d70 f i Actor.obj
 0002:00026db0       ??A?$idList@UcopyJoints_t@@@@QAEAAUcopyJoints_t@@H@Z 101f0db0 f i Actor.obj
 0002:00026e70       ??A?$idList@UcopyJoints_t@@@@QBEABUcopyJoints_t@@H@Z 101f0e70 f i Actor.obj
 0002:00026f30       ?SetNum@?$idList@UcopyJoints_t@@@@QAEXH_N@Z 101f0f30 f i Actor.obj
 0002:00026fe0       ?Append@?$idList@UcopyJoints_t@@@@QAEHABUcopyJoints_t@@@Z 101f0fe0 f i Actor.obj
 0002:000270f0       ??0?$idList@VidAttachInfo@@@@QAE@H@Z 101f10f0 f i Actor.obj
 0002:00027190       ??1?$idList@VidAttachInfo@@@@QAE@XZ 101f1190 f i Actor.obj
 0002:000271e0       ?Num@?$idList@VidAttachInfo@@@@QBEHXZ 101f11e0 f i Actor.obj
 0002:00027220       ?SetGranularity@?$idList@VidAttachInfo@@@@QAEXH@Z 101f1220 f i Actor.obj
 0002:00027300       ??A?$idList@VidAttachInfo@@@@QAEAAVidAttachInfo@@H@Z 101f1300 f i Actor.obj
 0002:000273c0       ??A?$idList@VidAttachInfo@@@@QBEABVidAttachInfo@@H@Z 101f13c0 f i Actor.obj
 0002:00027480       ?Alloc@?$idList@VidAttachInfo@@@@QAEAAVidAttachInfo@@XZ 101f1480 f i Actor.obj
 0002:00027540       ??0?$idList@W4jointHandle_t@@@@QAE@H@Z 101f1540 f i Actor.obj
 0002:000275e0       ??1?$idList@W4jointHandle_t@@@@QAE@XZ 101f15e0 f i Actor.obj
 0002:00027630       ?Clear@?$idList@W4jointHandle_t@@@@QAEXXZ 101f1630 f i Actor.obj
 0002:000276d0       ?Num@?$idList@W4jointHandle_t@@@@QBEHXZ 101f16d0 f i Actor.obj
 0002:00027710       ??A?$idList@W4jointHandle_t@@@@QAEAAW4jointHandle_t@@H@Z 101f1710 f i Actor.obj
 0002:000277d0       ?Resize@?$idList@M@@QAEXH@Z 101f17d0 f i Actor.obj
 0002:00027940       ?Clear@?$idList@VidStr@@@@QAEXXZ 101f1940 f i Actor.obj
 0002:00027a10       ?Resize@?$idList@VidStr@@@@QAEXH@Z 101f1a10 f i Actor.obj
 0002:00027c70       ?Clear@?$idList@VidKeyValue@@@@QAEXXZ 101f1c70 f i Actor.obj
 0002:00027d10       ?Resize@?$idList@VidKeyValue@@@@QAEXH@Z 101f1d10 f i Actor.obj
 0002:00027e80       ?Clear@?$idLinkList@VidActor@@@@QAEXXZ 101f1e80 f i Actor.obj
 0002:00027f00       ?InsertBefore@?$idLinkList@VidActor@@@@QAEXAAV1@@Z 101f1f00 f i Actor.obj
 0002:00027fa0       ?Clear@?$idList@UcopyJoints_t@@@@QAEXXZ 101f1fa0 f i Actor.obj
 0002:00028040       ?Resize@?$idList@UcopyJoints_t@@@@QAEXH@Z 101f2040 f i Actor.obj
 0002:000281c0       ?Clear@?$idList@VidAttachInfo@@@@QAEXXZ 101f21c0 f i Actor.obj
 0002:00028260       ?Resize@?$idList@VidAttachInfo@@@@QAEXH@Z 101f2260 f i Actor.obj
 0002:00028470       ??_EidStr@@QAEPAXI@Z       101f2470 f i Actor.obj
 0002:00028530       ??0idAttachInfo@@QAE@XZ    101f2530 f i Actor.obj
 0002:00028590       ?Remove@?$idLinkList@VidActor@@@@QAEXXZ 101f2590 f i Actor.obj
 0002:00028610       ??0?$idEntityPtr@VidEntity@@@@QAE@XZ 101f2610 f i Actor.obj
 0002:00028660       ?BitsForInteger@idMath@@SAHH@Z 101f2660 f i Actor.obj
 0002:000286c0       ?ILog2@idMath@@SAHM@Z      101f26c0 f i Actor.obj
 0002:00028700       ??0idAF@@QAE@XZ            101f2700 f   AF.obj
 0002:00028890       ??1idAF@@QAE@XZ            101f2890 f   AF.obj
 0002:00028960       ?Save@idAF@@QBEXPAVidSaveGame@@@Z 101f2960 f   AF.obj
 0002:00028a80       ?GetName@idAF@@QBEPBDXZ    101f2a80 f i AF.obj
 0002:00028ad0       ?Restore@idAF@@QAEXPAVidRestoreGame@@@Z 101f2ad0 f   AF.obj
 0002:00028d20       ?UpdateAnimation@idAF@@QAE_NXZ 101f2d20 f   AF.obj
 0002:00029320       ?GetBounds@idAF@@QBE?AVidBounds@@XZ 101f3320 f   AF.obj
 0002:000296e0       ?GetBounds@idClipModel@@QBEABVidBounds@@XZ 101f36e0 f i AF.obj
 0002:00029720       ?GetWorldOrigin@idAFBody@@QBEABVidVec3@@XZ 101f3720 f i AF.obj
 0002:00029760       ?GetWorldAxis@idAFBody@@QBEABVidMat3@@XZ 101f3760 f i AF.obj
 0002:000297b0       ?GetClipModel@idAFBody@@QBEPAVidClipModel@@XZ 101f37b0 f i AF.obj
 0002:000297f0       ?SetupPose@idAF@@QAEXPAVidEntity@@H@Z 101f37f0 f   AF.obj
 0002:00029af0       ?SetWorldOrigin@idAFBody@@QAEXABVidVec3@@@Z 101f3af0 f i AF.obj
 0002:00029b50       ?SetWorldAxis@idAFBody@@QAEXABVidMat3@@@Z 101f3b50 f i AF.obj
 0002:00029bc0       ?ChangePose@idAF@@QAEXPAVidEntity@@H@Z 101f3bc0 f   AF.obj
 0002:00029f80       ?SetLinearVelocity@idAFBody@@QBEXABVidVec3@@@Z 101f3f80 f i AF.obj
 0002:00029ff0       ?EntitiesTouchingAF@idAF@@QBEHQAUafTouch_s@@@Z 101f3ff0 f   AF.obj
 0002:0002a2c0       ?GetEntity@idClipModel@@QBEPAVidEntity@@XZ 101f42c0 f i AF.obj
 0002:0002a300       ?GetAbsBounds@idClipModel@@QBEABVidBounds@@XZ 101f4300 f i AF.obj
 0002:0002a340       ?GetOrigin@idClipModel@@QBEABVidVec3@@XZ 101f4340 f i AF.obj
 0002:0002a380       ?GetAxis@idClipModel@@QBEABVidMat3@@XZ 101f4380 f i AF.obj
 0002:0002a3c0       ?IsTraceModel@idClipModel@@QBE_NXZ 101f43c0 f i AF.obj
 0002:0002a410       ?BodyForClipModelId@idAF@@QBEHH@Z 101f4410 f   AF.obj
 0002:0002a4d0       ?GetPhysicsToVisualTransform@idAF@@QBEXAAVidVec3@@AAVidMat3@@@Z 101f44d0 f   AF.obj
 0002:0002a570       ?GetImpactInfo@idAF@@QAEXPAVidEntity@@HABVidVec3@@PAUimpactInfo_s@@@Z 101f4570 f   AF.obj
 0002:0002a610       ?ApplyImpulse@idAF@@QAEXPAVidEntity@@HABVidVec3@@1@Z 101f4610 f   AF.obj
 0002:0002a6b0       ?AddForce@idAF@@QAEXPAVidEntity@@HABVidVec3@@1@Z 101f46b0 f   AF.obj
 0002:0002a750       ?AddBody@idAF@@IAEXPAVidAFBody@@PBVidJointMat@@PBDW4AFJointModType_t@@@Z 101f4750 f   AF.obj
 0002:0002aa90       ?SetBase@idAF@@IAEXPAVidAFBody@@PBVidJointMat@@@Z 101f4a90 f   AF.obj
 0002:0002ab70       ?LoadBody@idAF@@IAE_NPBVidDeclAF_Body@@PBVidJointMat@@@Z 101f4b70 f   AF.obj
 0002:0002b7e0       ?SetContents@idClipModel@@QAEXH@Z 101f57e0 f i AF.obj
 0002:0002b830       ?IsEqual@idClipModel@@QBE_NABVidTraceModel@@@Z 101f5830 f i AF.obj
 0002:0002b8d0       ?GetName@idAFBody@@QBEABVidStr@@XZ 101f58d0 f i AF.obj
 0002:0002b910       ?SetClipMask@idAFBody@@QAEXH@Z 101f5910 f i AF.obj
 0002:0002b970       ?SetSelfCollision@idAFBody@@QAEX_N@Z 101f5970 f i AF.obj
 0002:0002b9d0       ?LoadConstraint@idAF@@IAE_NPBVidDeclAF_Constraint@@@Z 101f59d0 f   AF.obj
 0002:0002c780       ?SetFriction@idAFConstraint_BallAndSocketJoint@@QAEXM@Z 101f6780 f i AF.obj
 0002:0002c7d0       ?SetFriction@idAFConstraint_UniversalJoint@@QAEXM@Z 101f67d0 f i AF.obj
 0002:0002c820       ?SetFriction@idAFConstraint_Hinge@@QAEXM@Z 101f6820 f i AF.obj
 0002:0002c870       ?Load@idAF@@QAE_NPAVidEntity@@PBD@Z 101f6870 f   AF.obj
 0002:0002d490       ?GetType@idAFConstraint@@QBE?AW4constraintType_t@@XZ 101f7490 f i AF.obj
 0002:0002d4d0       ?GetName@idAFConstraint@@QBEABVidStr@@XZ 101f74d0 f i AF.obj
 0002:0002d510       ?SetSelfCollision@idPhysics_AF@@QAEX_N@Z 101f7510 f i AF.obj
 0002:0002d560       ?SetChanged@idPhysics_AF@@QAEXXZ 101f7560 f i AF.obj
 0002:0002d670       ??9idVec3@@QBE_NABV0@@Z    101f7670 f i AF.obj
 0002:0002d6d0       ?Compare@idVec3@@QBE_NABV1@@Z 101f76d0 f i AF.obj
 0002:0002d780       ?Start@idAF@@QAEXXZ        101f7780 f   AF.obj
 0002:0002d870       ?TestSolid@idAF@@IBE_NXZ   101f7870 f   AF.obj
 0002:0002dbc0       ?GetClipMask@idAFBody@@QBEHXZ 101f7bc0 f i AF.obj
 0002:0002dc00       ?Fabs@idMath@@SAMM@Z       101f7c00 f i AF.obj
 0002:0002dc50       ?StartFromCurrentPose@idAF@@QAEXH@Z 101f7c50 f   AF.obj
 0002:0002dda0       ?Stop@idAF@@QAEXXZ         101f7da0 f   AF.obj
 0002:0002de20       ?Rest@idAF@@QAEXXZ         101f7e20 f   AF.obj
 0002:0002de90       ?SetConstraintPosition@idAF@@QAEXPBDABVidVec3@@@Z 101f7e90 f   AF.obj
 0002:0002e090       ?GetBody2@idAFConstraint@@QBEPAVidAFBody@@XZ 101f8090 f i AF.obj
 0002:0002e0d0       ?SaveState@idAF@@QBEXAAVidDict@@@Z 101f80d0 f   AF.obj
 0002:0002e330       ?LoadState@idAF@@QAEXABVidDict@@@Z 101f8330 f   AF.obj
 0002:0002e590       ?NormalVectors@idVec3@@QBEXAAV1@0@Z 101f8590 f i AF.obj
 0002:0002e6f0       ?Cross@idVec3@@QBE?AV1@ABV1@@Z 101f86f0 f i AF.obj
 0002:0002e7b0       ?OrthogonalBasis@idVec3@@QBEXAAV1@0@Z 101f87b0 f i AF.obj
 0002:0002eaa0       ?AddBindConstraints@idAF@@QAEXXZ 101f8aa0 f   AF.obj
 0002:0002f490       ?RemoveBindConstraints@idAF@@QAEXXZ 101f9490 f   AF.obj
 0002:0002f640       ??0?$idList@H@@QAE@H@Z     101f9640 f i AF.obj
 0002:0002f6e0       ??1?$idList@H@@QAE@XZ      101f96e0 f i AF.obj
 0002:0002f730       ?Clear@?$idList@H@@QAEXXZ  101f9730 f i AF.obj
 0002:0002f7d0       ?Num@?$idList@H@@QBEHXZ    101f97d0 f i AF.obj
 0002:0002f810       ??A?$idList@H@@QAEAAHH@Z   101f9810 f i AF.obj
 0002:0002f8d0       ??A?$idList@H@@QBEABHH@Z   101f98d0 f i AF.obj
 0002:0002f990       ?AssureSize@?$idList@H@@QAEXH@Z 101f9990 f i AF.obj
 0002:0002fa50       ?SubVec3@idVec6@@QAEAAVidVec3@@H@Z 101f9a50 f i AF.obj
 0002:0002faa0       ?Num@?$idList@PAVidDeclAF_Body@@@@QBEHXZ 101f9aa0 f i AF.obj
 0002:0002fae0       ??A?$idList@PAVidDeclAF_Body@@@@QBEABQAVidDeclAF_Body@@H@Z 101f9ae0 f i AF.obj
 0002:0002fba0       ?Num@?$idList@PAVidDeclAF_Constraint@@@@QBEHXZ 101f9ba0 f i AF.obj
 0002:0002fbe0       ??A?$idList@PAVidDeclAF_Constraint@@@@QBEABQAVidDeclAF_Constraint@@H@Z 101f9be0 f i AF.obj
 0002:0002fca0       ??0?$idList@UjointConversion_s@@@@QAE@H@Z 101f9ca0 f i AF.obj
 0002:0002fd40       ??1?$idList@UjointConversion_s@@@@QAE@XZ 101f9d40 f i AF.obj
 0002:0002fd90       ?Num@?$idList@UjointConversion_s@@@@QBEHXZ 101f9d90 f i AF.obj
 0002:0002fdd0       ??A?$idList@UjointConversion_s@@@@QAEAAUjointConversion_s@@H@Z 101f9dd0 f i AF.obj
 0002:0002fe90       ??A?$idList@UjointConversion_s@@@@QBEABUjointConversion_s@@H@Z 101f9e90 f i AF.obj
 0002:0002ff50       ?SetNum@?$idList@UjointConversion_s@@@@QAEXH_N@Z 101f9f50 f i AF.obj
 0002:00030000       ??AidMat3@@QAEAAVidVec3@@H@Z 101fa000 f i AF.obj
 0002:00030050       ?Resize@?$idList@H@@QAEXH@Z 101fa050 f i AF.obj
 0002:000301c0       ??9idMat3@@QBE_NABV0@@Z    101fa1c0 f i AF.obj
 0002:00030220       ?Compare@idMat3@@QBE_NABV1@@Z 101fa220 f i AF.obj
 0002:000302e0       ?Clear@?$idList@UjointConversion_s@@@@QAEXXZ 101fa2e0 f i AF.obj
 0002:00030380       ?Resize@?$idList@UjointConversion_s@@@@QAEXH@Z 101fa380 f i AF.obj
 0002:00030590       ??0jointConversion_s@@QAE@XZ 101fa590 f i AF.obj
 0002:00030600       ??4jointConversion_s@@QAEAAU0@ABU0@@Z 101fa600 f i AF.obj
 0002:000306b0       ??0idRotation@@QAE@ABVidVec3@@0M@Z 101fa6b0 f i AF.obj
 0002:00030760       ??D@YA?AVidVec3@@ABV0@ABVidRotation@@@Z 101fa760 f i AF.obj
 0002:000307c0       ??DidRotation@@QBE?AVidVec3@@ABV1@@Z 101fa7c0 f i AF.obj
 0002:00030870       ??YidBounds@@QAEAAV0@ABV0@@Z 101fa870 f i AF.obj
 0002:000308d0       ?Clear@idBounds@@QAEXXZ    101fa8d0 f i AF.obj
 0002:000309d0       ?AddBounds@idBounds@@QAE_NABV1@@Z 101fa9d0 f i AF.obj
 0002:00030ca0       ?Expand@idBounds@@QBE?AV1@M@Z 101faca0 f i AF.obj
 0002:00030da0       ??0idBounds@@QAE@ABVidVec3@@0@Z 101fada0 f i AF.obj
 0002:00030e30       ?IntersectsBounds@idBounds@@QBE_NABV1@@Z 101fae30 f i AF.obj
 0002:00030fd0       ?ToMat3@idJointMat@@QBE?AVidMat3@@XZ 101fafd0 f i AF.obj
 0002:00031080       ?ToVec3@idJointMat@@QBE?AVidVec3@@XZ 101fb080 f i AF.obj
 0002:000310f0       ??0idTraceModel@@QAE@XZ    101fb0f0 f i AF.obj
 0002:00031200       ?Zero@idBounds@@QAEXXZ     101fb200 f i AF.obj
 0002:000312d0       ??0traceModelEdge_t@@QAE@XZ 101fb2d0 f i AF.obj
 0002:00031330       ??0traceModelPoly_t@@QAE@XZ 101fb330 f i AF.obj
 0002:00031390       ??8idTraceModel@@QBE_NABV0@@Z 101fb390 f i AF.obj
 0002:000313f0       ??H@YA?AVidStr@@PBDABV0@@Z 101fb3f0 f i AF.obj
 0002:00031510       ??0idStr@@QAE@ABV0@@Z      101fb510 f i AF.obj
 0002:000315b0       ??YidStr@@QAEAAV0@PBD@Z    101fb5b0 f i AF.obj
 0002:00031610       ?Icmp@idStr@@QBEHPBD@Z     101fb610 f i AF.obj
 0002:000316b0       ?Append@idStr@@QAEXABV1@@Z 101fb6b0 f i AF.obj
 0002:00031790       ??AidStr@@QBEDH@Z          101fb790 f i AF.obj
 0002:00031830       ?Append@idStr@@QAEXPBD@Z   101fb830 f i AF.obj
 0002:00031920       ?GetName@idDecl@@QBEPBDXZ  101fb920 f i AF.obj
 0002:00031990       ?GetState@idDecl@@QBE?AW4declState_t@@XZ 101fb990 f i AF.obj
 0002:00031a00       ?ToVec3@idAFVector@@QBEABVidVec3@@XZ 101fba00 f i AF.obj
 0002:00031a40       ?CreateInstance@idMultiModelAF@@SAPAVidClass@@XZ 101fba40 f   AFEntity.obj
 0002:00031b70       ??0idMultiModelAF@@QAE@XZ  101fbb70 f i AFEntity.obj
 0002:00031c50       ??_EidMultiModelAF@@UAEPAXI@Z 101fbc50 f i AFEntity.obj
 0002:00031c50       ??_GidMultiModelAF@@UAEPAXI@Z 101fbc50 f i AFEntity.obj
 0002:00031cc0       ?GetType@idMultiModelAF@@UBEPAVidTypeInfo@@XZ 101fbcc0 f   AFEntity.obj
 0002:00031d00       ?Spawn@idMultiModelAF@@QAEXXZ 101fbd00 f   AFEntity.obj
 0002:00031d70       ??1idMultiModelAF@@UAE@XZ  101fbd70 f   AFEntity.obj
 0002:00031ef0       ?SetModelForId@idMultiModelAF@@IAEXHABVidStr@@@Z 101fbef0 f   AFEntity.obj
 0002:00031fe0       ?Present@idMultiModelAF@@UAEXXZ 101fbfe0 f   AFEntity.obj
 0002:00032210       ?Think@idMultiModelAF@@UAEXXZ 101fc210 f   AFEntity.obj
 0002:00032280       ?CreateInstance@idChain@@SAPAVidClass@@XZ 101fc280 f   AFEntity.obj
 0002:000323b0       ??0idChain@@QAE@XZ         101fc3b0 f i AFEntity.obj
 0002:00032410       ??_GidChain@@UAEPAXI@Z     101fc410 f i AFEntity.obj
 0002:00032410       ??_EidChain@@UAEPAXI@Z     101fc410 f i AFEntity.obj
 0002:00032480       ??1idChain@@UAE@XZ         101fc480 f i AFEntity.obj
 0002:000324d0       ?GetType@idChain@@UBEPAVidTypeInfo@@XZ 101fc4d0 f   AFEntity.obj
 0002:00032510       ?BuildChain@idChain@@IAEXABVidStr@@ABVidVec3@@MMMH_N@Z 101fc510 f   AFEntity.obj
 0002:00033030       ??0idTraceModel@@QAE@MM@Z  101fd030 f i AFEntity.obj
 0002:00033110       ??0idStr@@QAE@H@Z          101fd110 f i AFEntity.obj
 0002:00033210       ??H@YA?AVidStr@@ABV0@0@Z   101fd210 f i AFEntity.obj
 0002:00033330       ??4idTraceModel@@QAEAAV0@ABV0@@Z 101fd330 f i AFEntity.obj
 0002:00033500       ??4idBounds@@QAEAAV0@ABV0@@Z 101fd500 f i AFEntity.obj
 0002:00033590       ??4traceModelEdge_t@@QAEAAU0@ABU0@@Z 101fd590 f i AFEntity.obj
 0002:00033630       ??4traceModelPoly_t@@QAEAAU0@ABU0@@Z 101fd630 f i AFEntity.obj
 0002:00033700       ?Spawn@idChain@@QAEXXZ     101fd700 f   AFEntity.obj
 0002:00033a90       ??0idStr@@QAE@M@Z          101fda90 f i AFEntity.obj
 0002:00033bf0       ?CreateInstance@idAFAttachment@@SAPAVidClass@@XZ 101fdbf0 f   AFEntity.obj
 0002:00033d20       ?GetType@idAFAttachment@@UBEPAVidTypeInfo@@XZ 101fdd20 f   AFEntity.obj
 0002:00033d60       ??0idAFAttachment@@QAE@XZ  101fdd60 f   AFEntity.obj
 0002:00033e00       ??_EidAFAttachment@@UAEPAXI@Z 101fde00 f i AFEntity.obj
 0002:00033e00       ??_GidAFAttachment@@UAEPAXI@Z 101fde00 f i AFEntity.obj
 0002:00033e70       ??1idAFAttachment@@UAE@XZ  101fde70 f   AFEntity.obj
 0002:00033f80       ?Spawn@idAFAttachment@@QAEXXZ 101fdf80 f   AFEntity.obj
 0002:00033ff0       ?SetBody@idAFAttachment@@QAEXPAVidEntity@@PBDW4jointHandle_t@@@Z 101fdff0 f   AFEntity.obj
 0002:000340d0       ?SetBool@idDict@@QAEXPBD_N@Z 101fe0d0 f i AFEntity.obj
 0002:00034140       ?ClearBody@idAFAttachment@@QAEXXZ 101fe140 f   AFEntity.obj
 0002:000341c0       ?GetBody@idAFAttachment@@QBEPAVidEntity@@XZ 101fe1c0 f   AFEntity.obj
 0002:00034200       ?Save@idAFAttachment@@QBEXPAVidSaveGame@@@Z 101fe200 f   AFEntity.obj
 0002:00034290       ?Restore@idAFAttachment@@QAEXPAVidRestoreGame@@@Z 101fe290 f   AFEntity.obj
 0002:00034340       ?Hide@idAFAttachment@@UAEXXZ 101fe340 f   AFEntity.obj
 0002:000343b0       ?Show@idAFAttachment@@UAEXXZ 101fe3b0 f   AFEntity.obj
 0002:00034420       ?Damage@idAFAttachment@@UAEXPAVidEntity@@0ABVidVec3@@PBDMH@Z 101fe420 f   AFEntity.obj
 0002:000344d0       ?AddDamageEffect@idAFAttachment@@UAEXABUtrace_s@@ABVidVec3@@PBD@Z 101fe4d0 f   AFEntity.obj
 0002:000345c0       ?GetImpactInfo@idAFAttachment@@UAEXPAVidEntity@@HABVidVec3@@PAUimpactInfo_s@@@Z 101fe5c0 f   AFEntity.obj
 0002:00034680       ?ApplyImpulse@idAFAttachment@@UAEXPAVidEntity@@HABVidVec3@@1@Z 101fe680 f   AFEntity.obj
 0002:00034750       ?AddForce@idAFAttachment@@UAEXPAVidEntity@@HABVidVec3@@1@Z 101fe750 f   AFEntity.obj
 0002:00034820       ?PlayIdleAnim@idAFAttachment@@QAEXH@Z 101fe820 f   AFEntity.obj
 0002:000348d0       ?Think@idAFAttachment@@UAEXXZ 101fe8d0 f   AFEntity.obj
 0002:00034940       ?SetCombatModel@idAFAttachment@@QAEXXZ 101fe940 f   AFEntity.obj
 0002:00034aa0       ?SetOwner@idClipModel@@QAEXPAVidEntity@@@Z 101feaa0 f i AFEntity.obj
 0002:00034af0       ?GetCombatModel@idAFAttachment@@QBEPAVidClipModel@@XZ 101feaf0 f   AFEntity.obj
 0002:00034b30       ?LinkCombat@idAFAttachment@@UAEXXZ 101feb30 f   AFEntity.obj
 0002:00034bf0       ?UnlinkCombat@idAFAttachment@@UAEXXZ 101febf0 f   AFEntity.obj
 0002:00034c60       ?CreateInstance@idAFEntity_Base@@SAPAVidClass@@XZ 101fec60 f   AFEntity.obj
 0002:00034d90       ?GetType@idAFEntity_Base@@UBEPAVidTypeInfo@@XZ 101fed90 f   AFEntity.obj
 0002:00034dd0       ??0idAFEntity_Base@@QAE@XZ 101fedd0 f   AFEntity.obj
 0002:00034f00       ??_GidAFEntity_Base@@UAEPAXI@Z 101fef00 f i AFEntity.obj
 0002:00034f00       ??_EidAFEntity_Base@@UAEPAXI@Z 101fef00 f i AFEntity.obj
 0002:00034f70       ??1idAFEntity_Base@@UAE@XZ 101fef70 f   AFEntity.obj
 0002:00035080       ?Save@idAFEntity_Base@@QBEXPAVidSaveGame@@@Z 101ff080 f   AFEntity.obj
 0002:00035150       ?Restore@idAFEntity_Base@@QAEXPAVidRestoreGame@@@Z 101ff150 f   AFEntity.obj
 0002:00035240       ?Spawn@idAFEntity_Base@@QAEXXZ 101ff240 f   AFEntity.obj
 0002:00035330       ?LoadAF@idAFEntity_Base@@UAE_NXZ 101ff330 f   AFEntity.obj
 0002:00035600       ?Think@idAFEntity_Base@@UAEXXZ 101ff600 f   AFEntity.obj
 0002:000356a0       ?BodyForClipModelId@idAFEntity_Base@@QBEHH@Z 101ff6a0 f   AFEntity.obj
 0002:00035700       ?SaveState@idAFEntity_Base@@QBEXAAVidDict@@@Z 101ff700 f   AFEntity.obj
 0002:000358d0       ?LoadState@idAFEntity_Base@@QAEXABVidDict@@@Z 101ff8d0 f   AFEntity.obj
 0002:00035930       ?AddBindConstraints@idAFEntity_Base@@QAEXXZ 101ff930 f   AFEntity.obj
 0002:00035990       ?RemoveBindConstraints@idAFEntity_Base@@QAEXXZ 101ff990 f   AFEntity.obj
 0002:000359f0       ?GetImpactInfo@idAFEntity_Base@@UAEXPAVidEntity@@HABVidVec3@@PAUimpactInfo_s@@@Z 101ff9f0 f   AFEntity.obj
 0002:00035aa0       ?ApplyImpulse@idAFEntity_Base@@UAEXPAVidEntity@@HABVidVec3@@1@Z 101ffaa0 f   AFEntity.obj
 0002:00035b60       ?AddForce@idAFEntity_Base@@UAEXPAVidEntity@@HABVidVec3@@1@Z 101ffb60 f   AFEntity.obj
 0002:00035c20       ?Collide@idAFEntity_Base@@UAE_NABUtrace_s@@ABVidVec3@@@Z 101ffc20 f   AFEntity.obj
 0002:00035db0       ?GetPhysicsToVisualTransform@idAFEntity_Base@@UAE_NAAVidVec3@@AAVidMat3@@@Z 101ffdb0 f   AFEntity.obj
 0002:00035e50       ?UpdateAnimationControllers@idAFEntity_Base@@UAE_NXZ 101ffe50 f   AFEntity.obj
 0002:00035ed0       ?SetCombatModel@idAFEntity_Base@@QAEXXZ 101ffed0 f   AFEntity.obj
 0002:00036010       ?GetCombatModel@idAFEntity_Base@@QBEPAVidClipModel@@XZ 10200010 f   AFEntity.obj
 0002:00036050       ?SetCombatContents@idAFEntity_Base@@QAEX_N@Z 10200050 f   AFEntity.obj
 0002:000361f0       ?GetContents@idClipModel@@QBEHXZ 102001f0 f i AFEntity.obj
 0002:00036230       ?LinkCombat@idAFEntity_Base@@UAEXXZ 10200230 f   AFEntity.obj
 0002:000362f0       ?UnlinkCombat@idAFEntity_Base@@UAEXXZ 102002f0 f   AFEntity.obj
 0002:00036360       ?FreeModelDef@idAFEntity_Base@@UAEXXZ 10200360 f   AFEntity.obj
 0002:000363d0       ?ShowEditingDialog@idAFEntity_Base@@UAEXXZ 102003d0 f   AFEntity.obj
 0002:00036450       ?DropAFs@idAFEntity_Base@@SAXPAVidEntity@@PBDPAV?$idList@PAVidEntity@@@@@Z 10200450 f   AFEntity.obj
 0002:000367a0       ?Event_SetConstraintPosition@idAFEntity_Base@@IAEXPBDABVidVec3@@@Z 102007a0 f   AFEntity.obj
 0002:00036810       ?CreateInstance@idAFEntity_Gibbable@@SAPAVidClass@@XZ 10200810 f   AFEntity.obj
 0002:00036940       ?GetType@idAFEntity_Gibbable@@UBEPAVidTypeInfo@@XZ 10200940 f   AFEntity.obj
 0002:00036980       ??0idAFEntity_Gibbable@@QAE@XZ 10200980 f   AFEntity.obj
 0002:00036a10       ??_GidAFEntity_Gibbable@@UAEPAXI@Z 10200a10 f i AFEntity.obj
 0002:00036a10       ??_EidAFEntity_Gibbable@@UAEPAXI@Z 10200a10 f i AFEntity.obj
 0002:00036a80       ??1idAFEntity_Gibbable@@UAE@XZ 10200a80 f   AFEntity.obj
 0002:00036b60       ?Save@idAFEntity_Gibbable@@QBEXPAVidSaveGame@@@Z 10200b60 f   AFEntity.obj
 0002:00036be0       ?Restore@idAFEntity_Gibbable@@QAEXPAVidRestoreGame@@@Z 10200be0 f   AFEntity.obj
 0002:00036cd0       ?Spawn@idAFEntity_Gibbable@@QAEXXZ 10200cd0 f   AFEntity.obj
 0002:00036d30       ?InitSkeletonModel@idAFEntity_Gibbable@@IAEXXZ 10200d30 f   AFEntity.obj
 0002:00036f50       ?Present@idAFEntity_Gibbable@@UAEXXZ 10200f50 f   AFEntity.obj
 0002:00037100       ??0renderEntity_s@@QAE@XZ  10201100 f i AFEntity.obj
 0002:00037180       ??4renderEntity_s@@QAEAAU0@ABU0@@Z 10201180 f i AFEntity.obj
 0002:00037450       ?Damage@idAFEntity_Gibbable@@UAEXPAVidEntity@@0ABVidVec3@@PBDMH@Z 10201450 f   AFEntity.obj
 0002:00037540       ?SpawnGibs@idAFEntity_Gibbable@@UAEXABVidVec3@@PBD@Z 10201540 f   AFEntity.obj
 0002:00037b40       ?NormalizeFast@idVec3@@QAEMXZ 10201b40 f i AFEntity.obj
 0002:00037c10       ?RSqrt@idMath@@SAMM@Z      10201c10 f i AFEntity.obj
 0002:00037c90       ?Gib@idAFEntity_Gibbable@@MAEXABVidVec3@@PBD@Z 10201c90 f   AFEntity.obj
 0002:00037fa0       ?SetGibTime@idGameLocal@@QAEXH@Z 10201fa0 f i AFEntity.obj
 0002:00037ff0       ?GetGibTime@idGameLocal@@QAEHXZ 10201ff0 f i AFEntity.obj
 0002:00038030       ?GetAFPhysics@idAFEntity_Base@@QAEPAVidPhysics_AF@@XZ 10202030 f i AFEntity.obj
 0002:00038090       ?Event_Gib@idAFEntity_Gibbable@@IAEXPBD@Z 10202090 f   AFEntity.obj
 0002:00038120       ?CreateInstance@idAFEntity_Generic@@SAPAVidClass@@XZ 10202120 f   AFEntity.obj
 0002:00038250       ?GetType@idAFEntity_Generic@@UBEPAVidTypeInfo@@XZ 10202250 f   AFEntity.obj
 0002:00038290       ??0idAFEntity_Generic@@QAE@XZ 10202290 f   AFEntity.obj
 0002:00038300       ??_GidAFEntity_Generic@@UAEPAXI@Z 10202300 f i AFEntity.obj
 0002:00038300       ??_EidAFEntity_Generic@@UAEPAXI@Z 10202300 f i AFEntity.obj
 0002:00038370       ??1idAFEntity_Generic@@UAE@XZ 10202370 f   AFEntity.obj
 0002:000383d0       ?Save@idAFEntity_Generic@@QBEXPAVidSaveGame@@@Z 102023d0 f   AFEntity.obj
 0002:00038430       ?Restore@idAFEntity_Generic@@QAEXPAVidRestoreGame@@@Z 10202430 f   AFEntity.obj
 0002:00038490       ?Think@idAFEntity_Generic@@UAEXXZ 10202490 f   AFEntity.obj
 0002:00038500       ?Spawn@idAFEntity_Generic@@QAEXXZ 10202500 f   AFEntity.obj
 0002:00038670       ?Event_Activate@idAFEntity_Generic@@AAEXPAVidEntity@@@Z 10202670 f   AFEntity.obj
 0002:00038920       ??0idEventArg@@QAE@AAVidVec3@@@Z 10202920 f i AFEntity.obj
 0002:00038980       ?CreateInstance@idAFEntity_WithAttachedHead@@SAPAVidClass@@XZ 10202980 f   AFEntity.obj
 0002:00038ab0       ?GetType@idAFEntity_WithAttachedHead@@UBEPAVidTypeInfo@@XZ 10202ab0 f   AFEntity.obj
 0002:00038af0       ??0idAFEntity_WithAttachedHead@@QAE@XZ 10202af0 f   AFEntity.obj
 0002:00038bb0       ??_GidAFEntity_WithAttachedHead@@UAEPAXI@Z 10202bb0 f i AFEntity.obj
 0002:00038bb0       ??_EidAFEntity_WithAttachedHead@@UAEPAXI@Z 10202bb0 f i AFEntity.obj
 0002:00038c20       ??1idAFEntity_WithAttachedHead@@UAE@XZ 10202c20 f   AFEntity.obj
 0002:00038d10       ?Spawn@idAFEntity_WithAttachedHead@@QAEXXZ 10202d10 f   AFEntity.obj
 0002:00038f20       ?Save@idAFEntity_WithAttachedHead@@QBEXPAVidSaveGame@@@Z 10202f20 f   AFEntity.obj
 0002:00038f80       ?Restore@idAFEntity_WithAttachedHead@@QAEXPAVidRestoreGame@@@Z 10202f80 f   AFEntity.obj
 0002:00038fe0       ?SetupHead@idAFEntity_WithAttachedHead@@QAEXXZ 10202fe0 f   AFEntity.obj
 0002:000392f0       ?Think@idAFEntity_WithAttachedHead@@UAEXXZ 102032f0 f   AFEntity.obj
 0002:00039340       ?LinkCombat@idAFEntity_WithAttachedHead@@UAEXXZ 10203340 f   AFEntity.obj
 0002:00039430       ?UnlinkCombat@idAFEntity_WithAttachedHead@@UAEXXZ 10203430 f   AFEntity.obj
 0002:000394d0       ?Hide@idAFEntity_WithAttachedHead@@UAEXXZ 102034d0 f   AFEntity.obj
 0002:00039590       ?Show@idAFEntity_WithAttachedHead@@UAEXXZ 10203590 f   AFEntity.obj
 0002:00039650       ?ProjectOverlay@idAFEntity_WithAttachedHead@@UAEXABVidVec3@@0MPBD@Z 10203650 f   AFEntity.obj
 0002:00039720       ?Gib@idAFEntity_WithAttachedHead@@MAEXABVidVec3@@PBD@Z 10203720 f   AFEntity.obj
 0002:000397e0       ?Event_Gib@idAFEntity_WithAttachedHead@@QAEXPBD@Z 102037e0 f   AFEntity.obj
 0002:00039870       ?Event_Activate@idAFEntity_WithAttachedHead@@QAEXPAVidEntity@@@Z 10203870 f   AFEntity.obj
 0002:00039b20       ?CreateInstance@idAFEntity_Vehicle@@SAPAVidClass@@XZ 10203b20 f   AFEntity.obj
 0002:00039c50       ?GetType@idAFEntity_Vehicle@@UBEPAVidTypeInfo@@XZ 10203c50 f   AFEntity.obj
 0002:00039c90       ??0idAFEntity_Vehicle@@QAE@XZ 10203c90 f   AFEntity.obj
 0002:00039d60       ??_GidAFEntity_Vehicle@@UAEPAXI@Z 10203d60 f i AFEntity.obj
 0002:00039d60       ??_EidAFEntity_Vehicle@@UAEPAXI@Z 10203d60 f i AFEntity.obj
 0002:00039dd0       ??1idAFEntity_Vehicle@@UAE@XZ 10203dd0 f i AFEntity.obj
 0002:00039e20       ?Spawn@idAFEntity_Vehicle@@QAEXXZ 10203e20 f   AFEntity.obj
 0002:0003a080       ?Use@idAFEntity_Vehicle@@QAEXPAVidPlayer@@@Z 10204080 f   AFEntity.obj
 0002:0003a2d0       ?SetComeToRest@idPhysics_AF@@QAEX_N@Z 102042d0 f i AFEntity.obj
 0002:0003a320       ?GetSteerAngle@idAFEntity_Vehicle@@IAEMXZ 10204320 f   AFEntity.obj
 0002:0003a430       ?CreateInstance@idAFEntity_VehicleSimple@@SAPAVidClass@@XZ 10204430 f   AFEntity.obj
 0002:0003a560       ?GetType@idAFEntity_VehicleSimple@@UBEPAVidTypeInfo@@XZ 10204560 f   AFEntity.obj
 0002:0003a5a0       ??0idAFEntity_VehicleSimple@@QAE@XZ 102045a0 f   AFEntity.obj
 0002:0003a640       ??_EidAFEntity_VehicleSimple@@UAEPAXI@Z 10204640 f i AFEntity.obj
 0002:0003a640       ??_GidAFEntity_VehicleSimple@@UAEPAXI@Z 10204640 f i AFEntity.obj
 0002:0003a6b0       ??1idAFEntity_VehicleSimple@@UAE@XZ 102046b0 f   AFEntity.obj
 0002:0003a7b0       ?Spawn@idAFEntity_VehicleSimple@@QAEXXZ 102047b0 f   AFEntity.obj
 0002:0003ad80       ?GetFloat@idCVar@@QBEMXZ   10204d80 f i AFEntity.obj
 0002:0003adc0       ?Think@idAFEntity_VehicleSimple@@UAEXXZ 10204dc0 f   AFEntity.obj
 0002:0003b450       ??0idRotation@@QAE@XZ      10205450 f i AFEntity.obj
 0002:0003b4c0       ?SetVec@idRotation@@QAEXMMM@Z 102054c0 f i AFEntity.obj
 0002:0003b560       ?SetAngle@idRotation@@QAEXM@Z 10205560 f i AFEntity.obj
 0002:0003b5b0       ?SetSteerAngle@idAFConstraint_Suspension@@QAEXM@Z 102055b0 f i AFEntity.obj
 0002:0003b600       ?EnableMotor@idAFConstraint_Suspension@@QAEX_N@Z 10205600 f i AFEntity.obj
 0002:0003b650       ?SetMotorForce@idAFConstraint_Suspension@@QAEXM@Z 10205650 f i AFEntity.obj
 0002:0003b6a0       ?SetMotorVelocity@idAFConstraint_Suspension@@QAEXM@Z 102056a0 f i AFEntity.obj
 0002:0003b6f0       ?CreateInstance@idAFEntity_VehicleFourWheels@@SAPAVidClass@@XZ 102056f0 f   AFEntity.obj
 0002:0003b820       ?GetType@idAFEntity_VehicleFourWheels@@UBEPAVidTypeInfo@@XZ 10205820 f   AFEntity.obj
 0002:0003b860       ??0idAFEntity_VehicleFourWheels@@QAE@XZ 10205860 f   AFEntity.obj
 0002:0003b940       ??_EidAFEntity_VehicleFourWheels@@UAEPAXI@Z 10205940 f i AFEntity.obj
 0002:0003b940       ??_GidAFEntity_VehicleFourWheels@@UAEPAXI@Z 10205940 f i AFEntity.obj
 0002:0003b9b0       ??1idAFEntity_VehicleFourWheels@@UAE@XZ 102059b0 f i AFEntity.obj
 0002:0003ba00       ?Spawn@idAFEntity_VehicleFourWheels@@QAEXXZ 10205a00 f   AFEntity.obj
 0002:0003bd30       ?Think@idAFEntity_VehicleFourWheels@@UAEXXZ 10205d30 f   AFEntity.obj
 0002:0003c430       ?SetVec@idRotation@@QAEXABVidVec3@@@Z 10206430 f i AFEntity.obj
 0002:0003c4a0       ?GetId@idClipModel@@QBEHXZ 102064a0 f i AFEntity.obj
 0002:0003c4e0       ?GetContact@idAFConstraint_Contact@@QBEABUcontactInfo_t@@XZ 102064e0 f i AFEntity.obj
 0002:0003c520       ?GetLinearVelocity@idAFBody@@QBEABVidVec3@@XZ 10206520 f i AFEntity.obj
 0002:0003c580       ?SetContactMotorVelocity@idAFBody@@QAEXM@Z 10206580 f i AFEntity.obj
 0002:0003c5d0       ?SetContactMotorForce@idAFBody@@QAEXM@Z 102065d0 f i AFEntity.obj
 0002:0003c620       ?CreateInstance@idAFEntity_VehicleSixWheels@@SAPAVidClass@@XZ 10206620 f   AFEntity.obj
 0002:0003c750       ?GetType@idAFEntity_VehicleSixWheels@@UBEPAVidTypeInfo@@XZ 10206750 f   AFEntity.obj
 0002:0003c790       ??0idAFEntity_VehicleSixWheels@@QAE@XZ 10206790 f   AFEntity.obj
 0002:0003c890       ??_EidAFEntity_VehicleSixWheels@@UAEPAXI@Z 10206890 f i AFEntity.obj
 0002:0003c890       ??_GidAFEntity_VehicleSixWheels@@UAEPAXI@Z 10206890 f i AFEntity.obj
 0002:0003c900       ??1idAFEntity_VehicleSixWheels@@UAE@XZ 10206900 f i AFEntity.obj
 0002:0003c950       ?Spawn@idAFEntity_VehicleSixWheels@@QAEXXZ 10206950 f   AFEntity.obj
 0002:0003cc80       ?Think@idAFEntity_VehicleSixWheels@@UAEXXZ 10206c80 f   AFEntity.obj
 0002:0003d410       ?CreateInstance@idAFEntity_VehicleAutomated@@SAPAVidClass@@XZ 10207410 f   AFEntity.obj
 0002:0003d540       ??0idAFEntity_VehicleAutomated@@QAE@XZ 10207540 f i AFEntity.obj
 0002:0003d5a0       ??_GidAFEntity_VehicleAutomated@@UAEPAXI@Z 102075a0 f i AFEntity.obj
 0002:0003d5a0       ??_EidAFEntity_VehicleAutomated@@UAEPAXI@Z 102075a0 f i AFEntity.obj
 0002:0003d610       ??1idAFEntity_VehicleAutomated@@UAE@XZ 10207610 f i AFEntity.obj
 0002:0003d660       ?GetType@idAFEntity_VehicleAutomated@@UBEPAVidTypeInfo@@XZ 10207660 f   AFEntity.obj
 0002:0003d6a0       ?Spawn@idAFEntity_VehicleAutomated@@QAEXXZ 102076a0 f   AFEntity.obj
 0002:0003d800       ?PostSpawn@idAFEntity_VehicleAutomated@@QAEXXZ 10207800 f   AFEntity.obj
 0002:0003d890       ?Event_SetVelocity@idAFEntity_VehicleAutomated@@AAEXM@Z 10207890 f   AFEntity.obj
 0002:0003d8e0       ?Event_SetTorque@idAFEntity_VehicleAutomated@@AAEXM@Z 102078e0 f   AFEntity.obj
 0002:0003d930       ?Event_SetSteeringSpeed@idAFEntity_VehicleAutomated@@AAEXM@Z 10207930 f   AFEntity.obj
 0002:0003d980       ?Event_SetWayPoint@idAFEntity_VehicleAutomated@@AAEXPAVidEntity@@@Z 10207980 f   AFEntity.obj
 0002:0003d9d0       ?Think@idAFEntity_VehicleAutomated@@UAEXXZ 102079d0 f   AFEntity.obj
 0002:0003e250       ?ClampFloat@idMath@@SAMMMM@Z 10208250 f i AFEntity.obj
 0002:0003e2b0       ?CreateInstance@idAFEntity_SteamPipe@@SAPAVidClass@@XZ 102082b0 f   AFEntity.obj
 0002:0003e3e0       ?GetType@idAFEntity_SteamPipe@@UBEPAVidTypeInfo@@XZ 102083e0 f   AFEntity.obj
 0002:0003e420       ??0idAFEntity_SteamPipe@@QAE@XZ 10208420 f   AFEntity.obj
 0002:0003e540       ??_EidAFEntity_SteamPipe@@UAEPAXI@Z 10208540 f i AFEntity.obj
 0002:0003e540       ??_GidAFEntity_SteamPipe@@UAEPAXI@Z 10208540 f i AFEntity.obj
 0002:0003e5b0       ??1idAFEntity_SteamPipe@@UAE@XZ 102085b0 f   AFEntity.obj
 0002:0003e6a0       ?Save@idAFEntity_SteamPipe@@QBEXPAVidSaveGame@@@Z 102086a0 f   AFEntity.obj
 0002:0003e6e0       ?Restore@idAFEntity_SteamPipe@@QAEXPAVidRestoreGame@@@Z 102086e0 f   AFEntity.obj
 0002:0003e740       ?Spawn@idAFEntity_SteamPipe@@QAEXXZ 10208740 f   AFEntity.obj
 0002:0003e9f0       ?InitSteamRenderEntity@idAFEntity_SteamPipe@@AAEXXZ 102089f0 f   AFEntity.obj
 0002:0003ecd0       ?Think@idAFEntity_SteamPipe@@UAEXXZ 10208cd0 f   AFEntity.obj
 0002:0003ef10       ?CRandomFloat@idRandom@@QAEMXZ 10208f10 f i AFEntity.obj
 0002:0003ef70       ?CreateInstance@idAFEntity_ClawFourFingers@@SAPAVidClass@@XZ 10208f70 f   AFEntity.obj
 0002:0003f0a0       ?GetType@idAFEntity_ClawFourFingers@@UBEPAVidTypeInfo@@XZ 102090a0 f   AFEntity.obj
 0002:0003f0e0       ??0idAFEntity_ClawFourFingers@@QAE@XZ 102090e0 f   AFEntity.obj
 0002:0003f180       ??_EidAFEntity_ClawFourFingers@@UAEPAXI@Z 10209180 f i AFEntity.obj
 0002:0003f180       ??_GidAFEntity_ClawFourFingers@@UAEPAXI@Z 10209180 f i AFEntity.obj
 0002:0003f1f0       ??1idAFEntity_ClawFourFingers@@UAE@XZ 102091f0 f i AFEntity.obj
 0002:0003f240       ?Save@idAFEntity_ClawFourFingers@@QBEXPAVidSaveGame@@@Z 10209240 f   AFEntity.obj
 0002:0003f2e0       ?Restore@idAFEntity_ClawFourFingers@@QAEXPAVidRestoreGame@@@Z 102092e0 f   AFEntity.obj
 0002:0003f3e0       ?Spawn@idAFEntity_ClawFourFingers@@QAEXXZ 102093e0 f   AFEntity.obj
 0002:0003f560       ?LockWorldConstraints@idPhysics_AF@@QAEX_N@Z 10209560 f i AFEntity.obj
 0002:0003f5b0       ?SetForcePushable@idPhysics_AF@@QAEX_N@Z 102095b0 f i AFEntity.obj
 0002:0003f600       ?Event_SetFingerAngle@idAFEntity_ClawFourFingers@@AAEXM@Z 10209600 f   AFEntity.obj
 0002:0003f6e0       ?Event_StopFingers@idAFEntity_ClawFourFingers@@AAEXXZ 102096e0 f   AFEntity.obj
 0002:0003f780       ?AF_SpawnEntity@idGameEdit@@UAE_NPBD@Z 10209780 f   AFEntity.obj
 0002:0003fb90       ??0idAngles@@QAE@MMM@Z     10209b90 f i AFEntity.obj
 0002:0003fbf0       ?KeepRunningPhysics@idAFEntity_Generic@@QAEXXZ 10209bf0 f i AFEntity.obj
 0002:0003fc40       ?AF_UpdateEntities@idGameEdit@@UAEXPBD@Z 10209c40 f   AFEntity.obj
 0002:0003fdf0       ?GetAFName@idAFEntity_Base@@QBEPBDXZ 10209df0 f i AFEntity.obj
 0002:0003fe50       ?AF_UndoChanges@idGameEdit@@UAEXXZ 10209e50 f   AFEntity.obj
 0002:0003fff0       ?Invalidate@idDecl@@QAEXXZ 10209ff0 f i AFEntity.obj
 0002:00040060       ?AF_CreateMesh@idGameEdit@@UAEPAVidRenderModel@@ABVidDict@@AAVidVec3@@AAVidMat3@@AA_N@Z 1020a060 f   AFEntity.obj
 0002:000414e0       ?SetRotation@idJointMat@@QAEXABVidMat3@@@Z 1020b4e0 f i AFEntity.obj
 0002:00041640       ?SetTranslation@idJointMat@@QAEXABVidVec3@@@Z 1020b640 f i AFEntity.obj
 0002:00041860       ?CreateInstance@idHarvestable@@SAPAVidClass@@XZ 1020b860 f   AFEntity.obj
 0002:00041990       ?GetType@idHarvestable@@UBEPAVidTypeInfo@@XZ 1020b990 f   AFEntity.obj
 0002:000419d0       ??0idHarvestable@@QAE@XZ   1020b9d0 f   AFEntity.obj
 0002:00041ae0       ??_EidHarvestable@@UAEPAXI@Z 1020bae0 f i AFEntity.obj
 0002:00041ae0       ??_GidHarvestable@@UAEPAXI@Z 1020bae0 f i AFEntity.obj
 0002:00041b50       ??1idHarvestable@@UAE@XZ   1020bb50 f   AFEntity.obj
 0002:00041c70       ?Spawn@idHarvestable@@QAEXXZ 1020bc70 f   AFEntity.obj
 0002:00041dc0       ?Init@idHarvestable@@QAEXPAVidEntity@@@Z 1020bdc0 f   AFEntity.obj
 0002:000421e0       ?GetHeadEntity@idActor@@QAEPAVidEntity@@XZ 1020c1e0 f i AFEntity.obj
 0002:00042240       ?Save@idHarvestable@@QBEXPAVidSaveGame@@@Z 1020c240 f   AFEntity.obj
 0002:00042390       ?Restore@idHarvestable@@QAEXPAVidRestoreGame@@@Z 1020c390 f   AFEntity.obj
 0002:000424d0       ?SetParent@idHarvestable@@QAEXPAVidEntity@@@Z 1020c4d0 f   AFEntity.obj
 0002:00042530       ?Think@idHarvestable@@UAEXXZ 1020c530 f   AFEntity.obj
 0002:00042760       ?Gib@idHarvestable@@QAEXXZ 1020c760 f   AFEntity.obj
 0002:000428a0       ?BeginBurn@idHarvestable@@IAEXXZ 1020c8a0 f   AFEntity.obj
 0002:00042c80       ?BeginFX@idHarvestable@@IAEXXZ 1020cc80 f   AFEntity.obj
 0002:00042dd0       ?CalcTriggerBounds@idHarvestable@@IAEXMAAVidBounds@@@Z 1020cdd0 f   AFEntity.obj
 0002:00042f30       ?ExpandSelf@idBounds@@QAEAAV1@M@Z 1020cf30 f i AFEntity.obj
 0002:00043090       ?GetFxOrientationAxis@idHarvestable@@IAE_NAAVidMat3@@@Z 1020d090 f   AFEntity.obj
 0002:00043750       ?Set@idVec3@@QAEXMMM@Z     1020d750 f i AFEntity.obj
 0002:000437b0       ?Event_SpawnHarvestTrigger@idHarvestable@@IAEXXZ 1020d7b0 f   AFEntity.obj
 0002:000439c0       ??0idTraceModel@@QAE@ABVidBounds@@@Z 1020d9c0 f i AFEntity.obj
 0002:00043aa0       ?Event_Touch@idHarvestable@@IAEXPAVidEntity@@PAUtrace_s@@@Z 1020daa0 f   AFEntity.obj
 0002:00043e30       ??0idEventArg@@QAE@H@Z     1020de30 f i AFEntity.obj
 0002:00043e90       ??0idEventArg@@QAE@PBD@Z   1020de90 f i AFEntity.obj
 0002:00043ef0       ?IsGibbed@idAFEntity_Gibbable@@QAE_NXZ 1020def0 f i AFEntity.obj
 0002:00043f30       ?CreateInstance@idAFEntity_Harvest@@SAPAVidClass@@XZ 1020df30 f   AFEntity.obj
 0002:00044060       ?GetType@idAFEntity_Harvest@@UBEPAVidTypeInfo@@XZ 1020e060 f   AFEntity.obj
 0002:000440a0       ??0idAFEntity_Harvest@@QAE@XZ 1020e0a0 f   AFEntity.obj
 0002:00044160       ??_EidAFEntity_Harvest@@UAEPAXI@Z 1020e160 f i AFEntity.obj
 0002:00044160       ??_GidAFEntity_Harvest@@UAEPAXI@Z 1020e160 f i AFEntity.obj
 0002:000441d0       ??1idAFEntity_Harvest@@UAE@XZ 1020e1d0 f   AFEntity.obj
 0002:000442a0       ?Save@idAFEntity_Harvest@@QBEXPAVidSaveGame@@@Z 1020e2a0 f   AFEntity.obj
 0002:00044300       ?Restore@idAFEntity_Harvest@@QAEXPAVidRestoreGame@@@Z 1020e300 f   AFEntity.obj
 0002:00044360       ?Spawn@idAFEntity_Harvest@@QAEXXZ 1020e360 f   AFEntity.obj
 0002:000443c0       ?Think@idAFEntity_Harvest@@UAEXXZ 1020e3c0 f   AFEntity.obj
 0002:00044410       ?Event_SpawnHarvestEntity@idAFEntity_Harvest@@IAEXXZ 1020e410 f   AFEntity.obj
 0002:00044550       ?Gib@idAFEntity_Harvest@@UAEXABVidVec3@@PBD@Z 1020e550 f   AFEntity.obj
 0002:000445e0       ?AssureSize@?$idList@H@@QAEXHABH@Z 1020e5e0 f i AFEntity.obj
 0002:000446e0       ?Next@?$idLinkList@VidEntity@@@@QBEPAVidEntity@@XZ 1020e6e0 f i AFEntity.obj
 0002:00044740       ?Num@?$idList@V?$idEntityPtr@VidEntity@@@@@@QBEHXZ 1020e740 f i AFEntity.obj
 0002:00044780       ??A?$idList@V?$idEntityPtr@VidEntity@@@@@@QAEAAV?$idEntityPtr@VidEntity@@@@H@Z 1020e780 f i AFEntity.obj
 0002:00044840       ??0?$idList@PAVidEntity@@@@QAE@H@Z 1020e840 f i AFEntity.obj
 0002:000448e0       ??1?$idList@PAVidEntity@@@@QAE@XZ 1020e8e0 f i AFEntity.obj
 0002:00044930       ?Num@?$idList@PAVidEntity@@@@QBEHXZ 1020e930 f i AFEntity.obj
 0002:00044970       ??A?$idList@PAVidEntity@@@@QAEAAPAVidEntity@@H@Z 1020e970 f i AFEntity.obj
 0002:00044a30       ?Append@?$idList@PAVidEntity@@@@QAEHABQAVidEntity@@@Z 1020ea30 f i AFEntity.obj
 0002:00044b20       ??0?$idList@PAVidRenderModel@@@@QAE@H@Z 1020eb20 f i AFEntity.obj
 0002:00044bc0       ??1?$idList@PAVidRenderModel@@@@QAE@XZ 1020ebc0 f i AFEntity.obj
 0002:00044c10       ?Num@?$idList@PAVidRenderModel@@@@QBEHXZ 1020ec10 f i AFEntity.obj
 0002:00044c50       ??A?$idList@PAVidRenderModel@@@@QAEAAPAVidRenderModel@@H@Z 1020ec50 f i AFEntity.obj
 0002:00044d10       ?AssureSize@?$idList@PAVidRenderModel@@@@QAEXHABQAVidRenderModel@@@Z 1020ed10 f i AFEntity.obj
 0002:00044e10       ??0?$idEntityPtr@VidPlayer@@@@QAE@XZ 1020ee10 f i AFEntity.obj
 0002:00044e60       ?Save@?$idEntityPtr@VidPlayer@@@@QBEXPAVidSaveGame@@@Z 1020ee60 f i AFEntity.obj
 0002:00044ec0       ?Restore@?$idEntityPtr@VidPlayer@@@@QAEXPAVidRestoreGame@@@Z 1020eec0 f i AFEntity.obj
 0002:00044f20       ??4?$idEntityPtr@VidPlayer@@@@QAEAAV0@PAVidPlayer@@@Z 1020ef20 f i AFEntity.obj
 0002:00044fa0       ?GetEntity@?$idEntityPtr@VidPlayer@@@@QBEPAVidPlayer@@XZ 1020efa0 f i AFEntity.obj
 0002:00045010       ??0?$idEntityPtr@VidEntityFx@@@@QAE@XZ 1020f010 f i AFEntity.obj
 0002:00045060       ?Save@?$idEntityPtr@VidEntityFx@@@@QBEXPAVidSaveGame@@@Z 1020f060 f i AFEntity.obj
 0002:000450c0       ?Restore@?$idEntityPtr@VidEntityFx@@@@QAEXPAVidRestoreGame@@@Z 1020f0c0 f i AFEntity.obj
 0002:00045120       ??4?$idEntityPtr@VidEntityFx@@@@QAEAAV0@PAVidEntityFx@@@Z 1020f120 f i AFEntity.obj
 0002:000451a0       ?GetEntity@?$idEntityPtr@VidEntityFx@@@@QBEPAVidEntityFx@@XZ 1020f1a0 f i AFEntity.obj
 0002:00045210       ??0?$idEntityPtr@VidHarvestable@@@@QAE@XZ 1020f210 f i AFEntity.obj
 0002:00045260       ?Save@?$idEntityPtr@VidHarvestable@@@@QBEXPAVidSaveGame@@@Z 1020f260 f i AFEntity.obj
 0002:000452c0       ?Restore@?$idEntityPtr@VidHarvestable@@@@QAEXPAVidRestoreGame@@@Z 1020f2c0 f i AFEntity.obj
 0002:00045320       ??4?$idEntityPtr@VidHarvestable@@@@QAEAAV0@PAVidHarvestable@@@Z 1020f320 f i AFEntity.obj
 0002:000453a0       ?GetEntity@?$idEntityPtr@VidHarvestable@@@@QBEPAVidHarvestable@@XZ 1020f3a0 f i AFEntity.obj
 0002:00045410       ?GetEntity@?$idEntityPtr@VidWeapon@@@@QBEPAVidWeapon@@XZ 1020f410 f i AFEntity.obj
 0002:00045480       ?Clear@?$idList@PAVidEntity@@@@QAEXXZ 1020f480 f i AFEntity.obj
 0002:00045520       ?Resize@?$idList@PAVidEntity@@@@QAEXH@Z 1020f520 f i AFEntity.obj
 0002:00045690       ?Clear@?$idList@PAVidRenderModel@@@@QAEXXZ 1020f690 f i AFEntity.obj
 0002:00045730       ?Resize@?$idList@PAVidRenderModel@@@@QAEXH@Z 1020f730 f i AFEntity.obj
 0002:000458a0       ?CreateInstance@idBrittleFracture@@SAPAVidClass@@XZ 1020f8a0 f   BrittleFracture.obj
 0002:000459d0       ?GetType@idBrittleFracture@@UBEPAVidTypeInfo@@XZ 1020f9d0 f   BrittleFracture.obj
 0002:00045a10       ??0idBrittleFracture@@QAE@XZ 1020fa10 f   BrittleFracture.obj
 0002:00045c30       ?Clear@idStr@@QAEXXZ       1020fc30 f i BrittleFracture.obj
 0002:00045c90       ??_EidBrittleFracture@@UAEPAXI@Z 1020fc90 f i BrittleFracture.obj
 0002:00045c90       ??_GidBrittleFracture@@UAEPAXI@Z 1020fc90 f i BrittleFracture.obj
 0002:00045d00       ??1idBrittleFracture@@UAE@XZ 1020fd00 f   BrittleFracture.obj
 0002:00045ed0       ??_Gshard_s@@QAEPAXI@Z     1020fed0 f i BrittleFracture.obj
 0002:00045f40       ??1shard_s@@QAE@XZ         1020ff40 f i BrittleFracture.obj
 0002:00046020       ??1idFixedWinding@@UAE@XZ  10210020 f i BrittleFracture.obj
 0002:00046090       ??1idWinding@@UAE@XZ       10210090 f i BrittleFracture.obj
 0002:00046110       ??_GidWinding@@UAEPAXI@Z   10210110 f i BrittleFracture.obj
 0002:00046110       ??_EidWinding@@UAEPAXI@Z   10210110 f i BrittleFracture.obj
 0002:00046180       ?Clear@idWinding@@UAEXXZ   10210180 f i BrittleFracture.obj
 0002:00046200       ??_EidFixedWinding@@UAEPAXI@Z 10210200 f i BrittleFracture.obj
 0002:00046200       ??_GidFixedWinding@@UAEPAXI@Z 10210200 f i BrittleFracture.obj
 0002:00046270       ?Clear@idFixedWinding@@UAEXXZ 10210270 f i BrittleFracture.obj
 0002:000462c0       ?Save@idBrittleFracture@@QBEXPAVidSaveGame@@@Z 102102c0 f   BrittleFracture.obj
 0002:000468b0       ?Restore@idBrittleFracture@@QAEXPAVidRestoreGame@@@Z 102108b0 f   BrittleFracture.obj
 0002:000471c0       ??0idFixedWinding@@QAE@XZ  102111c0 f i BrittleFracture.obj
 0002:000472a0       ??0idVec5@@QAE@XZ          102112a0 f i BrittleFracture.obj
 0002:000472e0       ??0idWinding@@QAE@XZ       102112e0 f i BrittleFracture.obj
 0002:00047350       ??0shard_s@@QAE@XZ         10211350 f i BrittleFracture.obj
 0002:00047440       ?Spawn@idBrittleFracture@@QAEXXZ 10211440 f   BrittleFracture.obj
 0002:00047880       ?AddShard@idBrittleFracture@@AAEXPAVidClipModel@@AAVidFixedWinding@@@Z 10211880 f   BrittleFracture.obj
 0002:00047a40       ?GetNumPoints@idWinding@@QBEHXZ 10211a40 f i BrittleFracture.obj
 0002:00047a80       ??4idFixedWinding@@QAEAAV0@ABV0@@Z 10211a80 f i BrittleFracture.obj
 0002:00047b40       ??4idWinding@@QAEAAV0@ABV0@@Z 10211b40 f i BrittleFracture.obj
 0002:00047c40       ?EnsureAlloced@idWinding@@IAE_NH_N@Z 10211c40 f i BrittleFracture.obj
 0002:00047cc0       ?RemoveShard@idBrittleFracture@@AAEXH@Z 10211cc0 f   BrittleFracture.obj
 0002:00047df0       ?SetId@idClipModel@@QAEXH@Z 10211df0 f i BrittleFracture.obj
 0002:00047e40       ?UpdateRenderEntity@idBrittleFracture@@ABE_NPAUrenderEntity_s@@PBUrenderView_s@@@Z 10211e40 f   BrittleFracture.obj
 0002:00049230       ??AidVec2@@QAEAAMH@Z       10213230 f i BrittleFracture.obj
 0002:00049280       ??0idVec4@@QAE@MMMM@Z      10213280 f i BrittleFracture.obj
 0002:000492f0       ?ToVec3@idVec5@@QBEABVidVec3@@XZ 102132f0 f i BrittleFracture.obj
 0002:00049330       ??0idPlane@@QAE@XZ         10213330 f i BrittleFracture.obj
 0002:00049370       ?Normal@idPlane@@QAEAAVidVec3@@XZ 10213370 f i BrittleFracture.obj
 0002:000493b0       ?Clear@idDrawVert@@QAEXXZ  102133b0 f i BrittleFracture.obj
 0002:00049460       ?Zero@idVec2@@QAEXXZ       10213460 f i BrittleFracture.obj
 0002:000494b0       ?SetColor@idDrawVert@@QAEXI@Z 102134b0 f i BrittleFracture.obj
 0002:00049500       ??AidWinding@@QBEABVidVec5@@H@Z 10213500 f i BrittleFracture.obj
 0002:00049550       ?ShouldCreateBackSides@idMaterial@@QBE_NXZ 10213550 f i BrittleFracture.obj
 0002:00049590       ?ModelCallback@idBrittleFracture@@CA_NPAUrenderEntity_s@@PBUrenderView_s@@@Z 10213590 f   BrittleFracture.obj
 0002:00049620       ?Present@idBrittleFracture@@UAEXXZ 10213620 f   BrittleFracture.obj
 0002:00049770       ?Think@idBrittleFracture@@UAEXXZ 10213770 f   BrittleFracture.obj
 0002:00049a80       ?IsCleared@idBounds@@QBE_NXZ 10213a80 f i BrittleFracture.obj
 0002:00049b20       ?ApplyImpulse@idBrittleFracture@@UAEXPAVidEntity@@HABVidVec3@@1@Z 10213b20 f   BrittleFracture.obj
 0002:00049c50       ?AddForce@idBrittleFracture@@UAEXPAVidEntity@@HABVidVec3@@1@Z 10213c50 f   BrittleFracture.obj
 0002:00049d80       ?ProjectDecal@idBrittleFracture@@QAEXABVidVec3@@0HPBD@Z 10213d80 f   BrittleFracture.obj
 0002:0004a820       ?sin@@YAMM@Z               10214820 f i BrittleFracture.obj
 0002:0004a870       _sinf                      10214870 f i BrittleFracture.obj
 0002:0004a8d0       ??0idVec2@@QAE@XZ          102148d0 f i BrittleFracture.obj
 0002:0004a910       ?ToVec3@idVec5@@QAEAAVidVec3@@XZ 10214910 f i BrittleFracture.obj
 0002:0004a950       ??AidPlane@@QAEAAMH@Z      10214950 f i BrittleFracture.obj
 0002:0004a9a0       ??4idPlane@@QAEAAV0@ABVidVec3@@@Z 102149a0 f i BrittleFracture.obj
 0002:0004aa20       ?Distance@idPlane@@QBEMABVidVec3@@@Z 10214a20 f i BrittleFracture.obj
 0002:0004aa90       ??AidWinding@@QAEAAVidVec5@@H@Z 10214a90 f i BrittleFracture.obj
 0002:0004aae0       ?SetNumPoints@idWinding@@QAEXH@Z 10214ae0 f i BrittleFracture.obj
 0002:0004ab50       ??1idBitMsg@@QAE@XZ        10214b50 f i BrittleFracture.obj
 0002:0004ab90       ?Init@idBitMsg@@QAEXPAEH@Z 10214b90 f i BrittleFracture.obj
 0002:0004ac00       ?BeginWriting@idBitMsg@@QAEXXZ 10214c00 f i BrittleFracture.obj
 0002:0004ac60       ?WriteFloat@idBitMsg@@QAEXM@Z 10214c60 f i BrittleFracture.obj
 0002:0004acc0       ?DropShard@idBrittleFracture@@AAEXPAUshard_s@@ABVidVec3@@1MH@Z 10214cc0 f   BrittleFracture.obj
 0002:0004b2a0       ??D@YA?AVidVec3@@MV0@@Z    102152a0 f i BrittleFracture.obj
 0002:0004b320       ?Shatter@idBrittleFracture@@AAEXABVidVec3@@0H@Z 10215320 f   BrittleFracture.obj
 0002:0004b710       ?DropFloatingIslands@idBrittleFracture@@AAEXABVidVec3@@0H@Z 10215710 f   BrittleFracture.obj
 0002:0004bad0       ?Break@idBrittleFracture@@AAEXXZ 10215ad0 f   BrittleFracture.obj
 0002:0004bb60       ?IsBroken@idBrittleFracture@@QBE_NXZ 10215b60 f   BrittleFracture.obj
 0002:0004bbc0       ?Killed@idBrittleFracture@@UAEXPAVidEntity@@0HABVidVec3@@H@Z 10215bc0 f   BrittleFracture.obj
 0002:0004bc40       ?AddDamageEffect@idBrittleFracture@@UAEXABUtrace_s@@ABVidVec3@@PBD@Z 10215c40 f   BrittleFracture.obj
 0002:0004bcd0       ?Fracture_r@idBrittleFracture@@AAEXAAVidFixedWinding@@@Z 10215cd0 f   BrittleFracture.obj
 0002:0004c480       ?SetNormal@idPlane@@QAEXABVidVec3@@@Z 10216480 f i BrittleFracture.obj
 0002:0004c4f0       ?FitThroughPoint@idPlane@@QAEXABVidVec3@@@Z 102164f0 f i BrittleFracture.obj
 0002:0004c560       ?CreateFractures@idBrittleFracture@@AAEXPBVidRenderModel@@@Z 10216560 f   BrittleFracture.obj
 0002:0004c920       ??AidVec2@@QBEMH@Z         10216920 f i BrittleFracture.obj
 0002:0004c970       ?AddPoint@idWinding@@QAEXABVidVec3@@@Z 10216970 f i BrittleFracture.obj
 0002:0004ca10       ??4idVec5@@QAEAAV0@ABVidVec3@@@Z 10216a10 f i BrittleFracture.obj
 0002:0004ca90       ?GetContentFlags@idMaterial@@QBE?BHXZ 10216a90 f i BrittleFracture.obj
 0002:0004cad0       ?FindNeighbours@idBrittleFracture@@AAEXXZ 10216ad0 f   BrittleFracture.obj
 0002:0004d310       ?Side@idPlane@@QBEHABVidVec3@@M@Z 10217310 f i BrittleFracture.obj
 0002:0004d3b0       ?Event_Activate@idBrittleFracture@@AAEXPAVidEntity@@@Z 102173b0 f   BrittleFracture.obj
 0002:0004d420       ?Event_Touch@idBrittleFracture@@AAEXPAVidEntity@@PAUtrace_s@@@Z 10217420 f   BrittleFracture.obj
 0002:0004d5f0       ?ClientPredictionThink@idBrittleFracture@@UAEXXZ 102175f0 f   BrittleFracture.obj
 0002:0004d660       ?ClientReceiveEvent@idBrittleFracture@@UAE_NHHABVidBitMsg@@@Z 10217660 f   BrittleFracture.obj
 0002:0004d970       ?ReadFloat@idBitMsg@@QBEMXZ 10217970 f i BrittleFracture.obj
 0002:0004d9d0       ??0?$idList@PAVidFixedWinding@@@@QAE@H@Z 102179d0 f i BrittleFracture.obj
 0002:0004da70       ??1?$idList@PAVidFixedWinding@@@@QAE@XZ 10217a70 f i BrittleFracture.obj
 0002:0004dac0       ?Clear@?$idList@PAVidFixedWinding@@@@QAEXXZ 10217ac0 f i BrittleFracture.obj
 0002:0004db60       ?Num@?$idList@PAVidFixedWinding@@@@QBEHXZ 10217b60 f i BrittleFracture.obj
 0002:0004dba0       ??A?$idList@PAVidFixedWinding@@@@QAEAAPAVidFixedWinding@@H@Z 10217ba0 f i BrittleFracture.obj
 0002:0004dc60       ?SetNum@?$idList@PAVidFixedWinding@@@@QAEXH_N@Z 10217c60 f i BrittleFracture.obj
 0002:0004dd10       ?Append@?$idList@PAVidFixedWinding@@@@QAEHABQAVidFixedWinding@@@Z 10217d10 f i BrittleFracture.obj
 0002:0004de00       ?DeleteContents@?$idList@PAVidFixedWinding@@@@QAEX_N@Z 10217e00 f i BrittleFracture.obj
 0002:0004df30       ??0?$idList@_N@@QAE@H@Z    10217f30 f i BrittleFracture.obj
 0002:0004dfd0       ??1?$idList@_N@@QAE@XZ     10217fd0 f i BrittleFracture.obj
 0002:0004e020       ?Num@?$idList@_N@@QBEHXZ   10218020 f i BrittleFracture.obj
 0002:0004e060       ??A?$idList@_N@@QAEAA_NH@Z 10218060 f i BrittleFracture.obj
 0002:0004e120       ?SetNum@?$idList@_N@@QAEXH_N@Z 10218120 f i BrittleFracture.obj
 0002:0004e1d0       ?AssureSize@?$idList@_N@@QAEXHAB_N@Z 102181d0 f i BrittleFracture.obj
 0002:0004e2d0       ??0?$idList@PAUshard_s@@@@QAE@H@Z 102182d0 f i BrittleFracture.obj
 0002:0004e370       ??1?$idList@PAUshard_s@@@@QAE@XZ 10218370 f i BrittleFracture.obj
 0002:0004e3c0       ?Clear@?$idList@PAUshard_s@@@@QAEXXZ 102183c0 f i BrittleFracture.obj
 0002:0004e460       ?Num@?$idList@PAUshard_s@@@@QBEHXZ 10218460 f i BrittleFracture.obj
 0002:0004e4a0       ??A?$idList@PAUshard_s@@@@QAEAAPAUshard_s@@H@Z 102184a0 f i BrittleFracture.obj
 0002:0004e560       ??A?$idList@PAUshard_s@@@@QBEABQAUshard_s@@H@Z 10218560 f i BrittleFracture.obj
 0002:0004e620       ?SetNum@?$idList@PAUshard_s@@@@QAEXH_N@Z 10218620 f i BrittleFracture.obj
 0002:0004e6d0       ?Append@?$idList@PAUshard_s@@@@QAEHABQAUshard_s@@@Z 102186d0 f i BrittleFracture.obj
 0002:0004e7c0       ?FindIndex@?$idList@PAUshard_s@@@@QBEHABQAUshard_s@@@Z 102187c0 f i BrittleFracture.obj
 0002:0004e840       ?RemoveIndex@?$idList@PAUshard_s@@@@QAE_NH@Z 10218840 f i BrittleFracture.obj
 0002:0004e990       ??$Square@M@@YAMM@Z        10218990 f i BrittleFracture.obj
 0002:0004e9d0       ?Resize@?$idList@PAVidFixedWinding@@@@QAEXH@Z 102189d0 f i BrittleFracture.obj
 0002:0004eb40       ?Clear@?$idList@_N@@QAEXXZ 10218b40 f i BrittleFracture.obj
 0002:0004ebe0       ?Resize@?$idList@_N@@QAEXH@Z 10218be0 f i BrittleFracture.obj
 0002:0004ed50       ?Resize@?$idList@PAUshard_s@@@@QAEXH@Z 10218d50 f i BrittleFracture.obj
 0002:0004eec0       ?CreateInstance@idCamera@@SAPAVidClass@@XZ 10218ec0 f   Camera.obj
 0002:0004ef20       ?GetType@idCamera@@UBEPAVidTypeInfo@@XZ 10218f20 f   Camera.obj
 0002:0004ef60       ?Spawn@idCamera@@QAEXXZ    10218f60 f   Camera.obj
 0002:0004efa0       ?GetRenderView@idCamera@@UAEPAUrenderView_s@@XZ 10218fa0 f   Camera.obj
 0002:0004f020       ?CreateInstance@idCameraView@@SAPAVidClass@@XZ 10219020 f   Camera.obj
 0002:0004f150       ?GetType@idCameraView@@UBEPAVidTypeInfo@@XZ 10219150 f   Camera.obj
 0002:0004f190       ??0idCameraView@@QAE@XZ    10219190 f   Camera.obj
 0002:0004f220       ??_GidCameraView@@UAEPAXI@Z 10219220 f i Camera.obj
 0002:0004f220       ??_EidCameraView@@UAEPAXI@Z 10219220 f i Camera.obj
 0002:0004f290       ??0idCamera@@QAE@XZ        10219290 f i Camera.obj
 0002:0004f2f0       ?Stop@idCamera@@UAEXXZ     102192f0 f i Camera.obj
 0002:0004f330       ??1idCameraView@@UAE@XZ    10219330 f i Camera.obj
 0002:0004f380       ??1idCamera@@UAE@XZ        10219380 f i Camera.obj
 0002:0004f3d0       ??_EidCamera@@UAEPAXI@Z    102193d0 f i Camera.obj
 0002:0004f3d0       ??_GidCamera@@UAEPAXI@Z    102193d0 f i Camera.obj
 0002:0004f440       ?Save@idCameraView@@QBEXPAVidSaveGame@@@Z 10219440 f   Camera.obj
 0002:0004f4d0       ?Restore@idCameraView@@QAEXPAVidRestoreGame@@@Z 102194d0 f   Camera.obj
 0002:0004f560       ?Event_SetAttachments@idCameraView@@IAEXXZ 10219560 f   Camera.obj
 0002:0004f5e0       ?Event_Activate@idCameraView@@IAEXPAVidEntity@@@Z 102195e0 f   Camera.obj
 0002:0004f710       ?Stop@idCameraView@@UAEXXZ 10219710 f   Camera.obj
 0002:0004f7c0       ?SetAttachment@idCameraView@@IAEXPAPAVidEntity@@PBD@Z 102197c0 f   Camera.obj
 0002:0004f850       ?Spawn@idCameraView@@QAEXXZ 10219850 f   Camera.obj
 0002:0004f950       ?GetViewParms@idCameraView@@UAEXPAUrenderView_s@@@Z 10219950 f   Camera.obj
 0002:0004fba0       ?CreateInstance@idCameraAnim@@SAPAVidClass@@XZ 10219ba0 f   Camera.obj
 0002:0004fcd0       ?GetType@idCameraAnim@@UBEPAVidTypeInfo@@XZ 10219cd0 f   Camera.obj
 0002:0004fd10       ??0idCameraAnim@@QAE@XZ    10219d10 f   Camera.obj
 0002:0004fe70       ??_GidCameraAnim@@UAEPAXI@Z 10219e70 f i Camera.obj
 0002:0004fe70       ??_EidCameraAnim@@UAEPAXI@Z 10219e70 f i Camera.obj
 0002:0004fee0       ??1idCameraAnim@@UAE@XZ    10219ee0 f   Camera.obj
 0002:0004ffd0       ?Save@idCameraAnim@@QBEXPAVidSaveGame@@@Z 10219fd0 f   Camera.obj
 0002:000500a0       ?Restore@idCameraAnim@@QAEXPAVidRestoreGame@@@Z 1021a0a0 f   Camera.obj
 0002:00050180       ?Spawn@idCameraAnim@@QAEXXZ 1021a180 f   Camera.obj
 0002:00050290       ?LoadAnim@idCameraAnim@@AAEXXZ 1021a290 f   Camera.obj
 0002:00050980       ?ToFloatPtr@idVec3@@QAEPAMXZ 1021a980 f i Camera.obj
 0002:000509c0       ?ToFloatPtr@idCQuat@@QAEPAMXZ 1021a9c0 f i Camera.obj
 0002:00050a00       ?Start@idCameraAnim@@AAEXXZ 1021aa00 f   Camera.obj
 0002:00050b50       ?Stop@idCameraAnim@@EAEXXZ 1021ab50 f   Camera.obj
 0002:00050c60       ?Think@idCameraAnim@@EAEXXZ 1021ac60 f   Camera.obj
 0002:00050e40       ?GetViewParms@idCameraAnim@@UAEXPAUrenderView_s@@@Z 1021ae40 f   Camera.obj
 0002:000516e0       ??0idQuat@@QAE@XZ          1021b6e0 f i Camera.obj
 0002:00051720       ??4idQuat@@QAEAAV0@ABV0@@Z 1021b720 f i Camera.obj
 0002:000517a0       ?ToQuat@idCQuat@@QBE?AVidQuat@@XZ 1021b7a0 f i Camera.obj
 0002:00051860       ?fabs@@YAMM@Z              1021b860 f i Camera.obj
 0002:000518b0       _fabsf                     1021b8b0 f i Camera.obj
 0002:00051910       ?sqrt@@YAMM@Z              1021b910 f i Camera.obj
 0002:00051960       _sqrtf                     1021b960 f i Camera.obj
 0002:000519c0       ??0idQuat@@QAE@MMMM@Z      1021b9c0 f i Camera.obj
 0002:00051a30       ?Event_Activate@idCameraAnim@@AAEXPAVidEntity@@@Z 1021ba30 f   Camera.obj
 0002:00051ad0       ?Event_Start@idCameraAnim@@AAEXXZ 1021bad0 f   Camera.obj
 0002:00051b20       ?Event_Stop@idCameraAnim@@AAEXXZ 1021bb20 f   Camera.obj
 0002:00051b90       ?Event_SetCallback@idCameraAnim@@AAEXXZ 1021bb90 f   Camera.obj
 0002:00051c30       ?SetGranularity@?$idList@H@@QAEXH@Z 1021bc30 f i Camera.obj
 0002:00051d10       ?SetNum@?$idList@H@@QAEXH_N@Z 1021bd10 f i Camera.obj
 0002:00051dc0       ??0?$idList@UcameraFrame_t@@@@QAE@H@Z 1021bdc0 f i Camera.obj
 0002:00051e60       ??1?$idList@UcameraFrame_t@@@@QAE@XZ 1021be60 f i Camera.obj
 0002:00051eb0       ?Clear@?$idList@UcameraFrame_t@@@@QAEXXZ 1021beb0 f i Camera.obj
 0002:00051f50       ?Num@?$idList@UcameraFrame_t@@@@QBEHXZ 1021bf50 f i Camera.obj
 0002:00051f90       ?SetGranularity@?$idList@UcameraFrame_t@@@@QAEXH@Z 1021bf90 f i Camera.obj
 0002:00052070       ??A?$idList@UcameraFrame_t@@@@QAEAAUcameraFrame_t@@H@Z 1021c070 f i Camera.obj
 0002:00052130       ?SetNum@?$idList@UcameraFrame_t@@@@QAEXH_N@Z 1021c130 f i Camera.obj
 0002:000521e0       ?Resize@?$idList@UcameraFrame_t@@@@QAEXH@Z 1021c1e0 f i Camera.obj
 0002:000523f0       ??0cameraFrame_t@@QAE@XZ   1021c3f0 f i Camera.obj
 0002:00052450       ??0idCQuat@@QAE@XZ         1021c450 f i Camera.obj
 0002:00052490       ??4cameraFrame_t@@QAEAAU0@ABU0@@Z 1021c490 f i Camera.obj
 0002:00052520       ?CreateInstance@idEntity@@SAPAVidClass@@XZ 1021c520 f   Entity.obj
 0002:00052580       ?GetType@idEntity@@UBEPAVidTypeInfo@@XZ 1021c580 f   Entity.obj
 0002:000525c0       ?Event_IsBoundTo@idEntity@@AAEXPAV1@@Z 1021c5c0 f   Entity.obj
 0002:00052630       ?Event_GetBindMaster@idEntity@@AAEXXZ 1021c630 f   Entity.obj
 0002:00052690       ?Event_GetBindJoint@idEntity@@AAEXXZ 1021c690 f   Entity.obj
 0002:000526f0       ?UpdateGuiParms@@YAXPAVidUserInterface@@PBVidDict@@@Z 1021c6f0 f   Entity.obj
 0002:00052820       ?AddRenderGui@@YAXPBDPAPAVidUserInterface@@PBVidDict@@@Z 1021c820 f   Entity.obj
 0002:000528d0       ?ParseSpawnArgsToRenderEntity@idGameEdit@@UAEXPBVidDict@@PAUrenderEntity_s@@@Z 1021c8d0 f   Entity.obj
 0002:00052eb0       ?ParseSpawnArgsToRefSound@idGameEdit@@UAEXPBVidDict@@PAUrefSound_t@@@Z 1021ceb0 f   Entity.obj
 0002:00053160       ?UpdateChangeableSpawnArgs@idEntity@@UAEXPBVidDict@@@Z 1021d160 f   Entity.obj
 0002:00053250       ??0idEntity@@QAE@XZ        1021d250 f   Entity.obj
 0002:000535a0       ??_GidEntity@@UAEPAXI@Z    1021d5a0 f i Entity.obj
 0002:000535a0       ??_EidEntity@@UAEPAXI@Z    1021d5a0 f i Entity.obj
 0002:00053610       ??0idClass@@QAE@XZ         1021d610 f i Entity.obj
 0002:00053660       ??0refSound_t@@QAE@XZ      1021d660 f i Entity.obj
 0002:000536c0       ??_EidClass@@UAEPAXI@Z     1021d6c0 f i Entity.obj
 0002:000536c0       ??_GidClass@@UAEPAXI@Z     1021d6c0 f i Entity.obj
 0002:00053730       ?FixupLocalizedStrings@idEntity@@AAEXXZ 1021d730 f   Entity.obj
 0002:00053850       ?GetNumKeyVals@idDict@@QBEHXZ 1021d850 f i Entity.obj
 0002:000538a0       ?GetKeyVal@idDict@@QBEPBVidKeyValue@@H@Z 1021d8a0 f i Entity.obj
 0002:00053920       ?Spawn@idEntity@@QAEXXZ    1021d920 f   Entity.obj
 0002:00054060       ?Index@idDecl@@QBEHXZ      1021e060 f i Entity.obj
 0002:000540d0       ??1idEntity@@UAE@XZ        1021e0d0 f   Entity.obj
 0002:000544a0       ?WriteByte@idBitMsg@@QAEXH@Z 1021e4a0 f i Entity.obj
 0002:00054500       ??_GsignalList_t@@QAEPAXI@Z 1021e500 f i Entity.obj
 0002:00054570       ??1signalList_t@@QAE@XZ    1021e570 f i Entity.obj
 0002:000545d0       ?Save@idEntity@@QBEXPAVidSaveGame@@@Z 1021e5d0 f   Entity.obj
 0002:00054a40       ?Restore@idEntity@@QAEXPAVidRestoreGame@@@Z 1021ea40 f   Entity.obj
 0002:00055060       ??0signalList_t@@QAE@XZ    1021f060 f i Entity.obj
 0002:000550d0       ??_F?$idList@Usignal_t@@@@QAEXXZ 1021f0d0 f i Entity.obj
 0002:00055130       ?GetEntityDefName@idEntity@@QBEPBDXZ 1021f130 f   Entity.obj
 0002:000551c0       ?SetName@idEntity@@QAEXPBD@Z 1021f1c0 f   Entity.obj
 0002:00055340       ?GetName@idEntity@@QBEPBDXZ 1021f340 f   Entity.obj
 0002:000553a0       ?Think@idEntity@@UAEXXZ    1021f3a0 f   Entity.obj
 0002:00055410       ?DoDormantTests@idEntity@@AAE_NXZ 1021f410 f   Entity.obj
 0002:00055540       ?CheckDormant@idEntity@@QAE_NXZ 1021f540 f   Entity.obj
 0002:00055650       ?DormantBegin@idEntity@@UAEXXZ 1021f650 f   Entity.obj
 0002:00055690       ?DormantEnd@idEntity@@UAEXXZ 1021f690 f   Entity.obj
 0002:000556d0       ?IsActive@idEntity@@QBE_NXZ 1021f6d0 f   Entity.obj
 0002:00055730       ?BecomeActive@idEntity@@QAEXH@Z 1021f730 f   Entity.obj
 0002:00055890       ?BecomeInactive@idEntity@@QAEXH@Z 1021f890 f   Entity.obj
 0002:00055a40       ?SetShaderParm@idEntity@@QAEXHM@Z 1021fa40 f   Entity.obj
 0002:00055ae0       ?SetColor@idEntity@@UAEXMMM@Z 1021fae0 f   Entity.obj
 0002:00055b60       ?SetColor@idEntity@@UAEXABVidVec3@@@Z 1021fb60 f   Entity.obj
 0002:00055c00       ?GetColor@idEntity@@UBEXAAVidVec3@@@Z 1021fc00 f   Entity.obj
 0002:00055ca0       ?SetColor@idEntity@@UAEXABVidVec4@@@Z 1021fca0 f   Entity.obj
 0002:00055d50       ??AidVec4@@QBEMH@Z         1021fd50 f i Entity.obj
 0002:00055da0       ?GetColor@idEntity@@UBEXAAVidVec4@@@Z 1021fda0 f   Entity.obj
 0002:00055e50       ??AidVec4@@QAEAAMH@Z       1021fe50 f i Entity.obj
 0002:00055ea0       ?UpdateAnimationControllers@idEntity@@UAE_NXZ 1021fea0 f   Entity.obj
 0002:00055ee0       ?SetModel@idEntity@@UAEXPBD@Z 1021fee0 f   Entity.obj
 0002:00056090       ?SetSkin@idEntity@@QAEXPBVidDeclSkin@@@Z 10220090 f   Entity.obj
 0002:000560f0       ?GetSkin@idEntity@@QBEPBVidDeclSkin@@XZ 102200f0 f   Entity.obj
 0002:00056130       ?FreeModelDef@idEntity@@UAEXXZ 10220130 f   Entity.obj
 0002:000561d0       ?FreeLightDef@idEntity@@UAEXXZ 102201d0 f   Entity.obj
 0002:00056210       ?IsHidden@idEntity@@QBE_NXZ 10220210 f   Entity.obj
 0002:00056260       ?Hide@idEntity@@UAEXXZ     10220260 f   Entity.obj
 0002:00056300       ?Show@idEntity@@UAEXXZ     10220300 f   Entity.obj
 0002:00056380       ?UpdateModelTransform@idEntity@@QAEXXZ 10220380 f   Entity.obj
 0002:000565d0       ?UpdateModel@idEntity@@QAEXXZ 102205d0 f   Entity.obj
 0002:00056680       ?UpdateVisuals@idEntity@@QAEXXZ 10220680 f   Entity.obj
 0002:000566e0       ?UpdatePVSAreas@idEntity@@AAEXXZ 102206e0 f   Entity.obj
 0002:00056910       ??0idBounds@@QAE@ABVidVec3@@@Z 10220910 f i Entity.obj
 0002:000569a0       ?UpdatePVSAreas@idEntity@@QAEXABVidVec3@@@Z 102209a0 f   Entity.obj
 0002:00056a60       ?GetNumPVSAreas@idEntity@@QAEHXZ 10220a60 f   Entity.obj
 0002:00056ad0       ?GetPVSAreas@idEntity@@QAEPBHXZ 10220ad0 f   Entity.obj
 0002:00056b40       ?ClearPVSAreas@idEntity@@QAEXXZ 10220b40 f   Entity.obj
 0002:00056b90       ?PhysicsTeamInPVS@idEntity@@QAE_NUpvsHandle_s@@@Z 10220b90 f   Entity.obj
 0002:00056c80       ?ProjectOverlay@idEntity@@UAEXABVidVec3@@0MPBD@Z 10220c80 f   Entity.obj
 0002:000571a0       ?SinCos16@idMath@@SAXMAAM0@Z 102211a0 f i Entity.obj
 0002:00057370       _floorf                    10221370 f i Entity.obj
 0002:000573d0       ??XidVec3@@QAEAAV0@M@Z     102213d0 f i Entity.obj
 0002:00057440       ?ProjectVector@idMat3@@QBEXABVidVec3@@AAV2@@Z 10221440 f i Entity.obj
 0002:000574e0       ?Present@idEntity@@UAEXXZ  102214e0 f   Entity.obj
 0002:00057660       ?GetRenderEntity@idEntity@@UAEPAUrenderEntity_s@@XZ 10221660 f   Entity.obj
 0002:000576a0       ?GetModelDefHandle@idEntity@@UAEHXZ 102216a0 f   Entity.obj
 0002:000576e0       ?UpdateRenderEntity@idEntity@@QAE_NPAUrenderEntity_s@@PBUrenderView_s@@@Z 102216e0 f   Entity.obj
 0002:00057790       ?ModelCallback@idEntity@@SA_NPAUrenderEntity_s@@PBUrenderView_s@@@Z 10221790 f   Entity.obj
 0002:00057820       ?GetAnimator@idEntity@@UAEPAVidAnimator@@XZ 10221820 f   Entity.obj
 0002:00057860       ?GetRenderView@idEntity@@UAEPAUrenderView_s@@XZ 10221860 f   Entity.obj
 0002:00057ac0       ??0renderView_s@@QAE@XZ    10221ac0 f i Entity.obj
 0002:00057b30       ?CanPlayChatterSounds@idEntity@@UBE_NXZ 10221b30 f   Entity.obj
 0002:00057b70       ?StartSound@idEntity@@QAE_NPBDHH_NPAH@Z 10221b70 f   Entity.obj
 0002:00057cf0       ?StartSoundShader@idEntity@@QAE_NPBVidSoundShader@@HH_NPAH@Z 10221cf0 f   Entity.obj
 0002:00057fa0       ?WriteLong@idBitMsg@@QAEXH@Z 10221fa0 f i Entity.obj
 0002:00058000       ?StopSound@idEntity@@QAEXH_N@Z 10222000 f   Entity.obj
 0002:000581b0       ?SetSoundVolume@idEntity@@QAEXM@Z 102221b0 f   Entity.obj
 0002:00058200       ?UpdateSound@idEntity@@QAEXXZ 10222200 f   Entity.obj
 0002:00058400       ?GetListenerId@idEntity@@QBEHXZ 10222400 f   Entity.obj
 0002:00058440       ?GetSoundEmitter@idEntity@@QBEPAVidSoundEmitter@@XZ 10222440 f   Entity.obj
 0002:00058480       ?FreeSoundEmitter@idEntity@@QAEX_N@Z 10222480 f   Entity.obj
 0002:00058520       ?PreBind@idEntity@@UAEXXZ  10222520 f   Entity.obj
 0002:00058560       ?PostBind@idEntity@@UAEXXZ 10222560 f   Entity.obj
 0002:000585a0       ?PreUnbind@idEntity@@UAEXXZ 102225a0 f   Entity.obj
 0002:000585e0       ?PostUnbind@idEntity@@UAEXXZ 102225e0 f   Entity.obj
 0002:00058620       ?InitBind@idEntity@@AAE_NPAV1@@Z 10222620 f   Entity.obj
 0002:00058710       ?FinishBind@idEntity@@AAEXXZ 10222710 f   Entity.obj
 0002:000587f0       ?Bind@idEntity@@QAEXPAV1@_N@Z 102227f0 f   Entity.obj
 0002:000588f0       ?BindToJoint@idEntity@@QAEXPAV1@PBD_N@Z 102228f0 f   Entity.obj
 0002:00058a80       ?BindToJoint@idEntity@@QAEXPAV1@W4jointHandle_t@@_N@Z 10222a80 f   Entity.obj
 0002:00058b80       ?BindToBody@idEntity@@QAEXPAV1@H_N@Z 10222b80 f   Entity.obj
 0002:00058ca0       ?Unbind@idEntity@@QAEXXZ   10222ca0 f   Entity.obj
 0002:00058fc0       ?RemoveBinds@idEntity@@AAEXXZ 10222fc0 f   Entity.obj
 0002:00059080       ?IsBound@idEntity@@QBE_NXZ 10223080 f   Entity.obj
 0002:000590d0       ?IsBoundTo@idEntity@@QBE_NPAV1@@Z 102230d0 f   Entity.obj
 0002:00059160       ?GetBindMaster@idEntity@@QBEPAV1@XZ 10223160 f   Entity.obj
 0002:000591a0       ?GetBindJoint@idEntity@@QBE?AW4jointHandle_t@@XZ 102231a0 f   Entity.obj
 0002:000591e0       ?GetBindBody@idEntity@@QBEHXZ 102231e0 f   Entity.obj
 0002:00059220       ?GetTeamMaster@idEntity@@QBEPAV1@XZ 10223220 f   Entity.obj
 0002:00059260       ?GetNextTeamEntity@idEntity@@QBEPAV1@XZ 10223260 f   Entity.obj
 0002:000592a0       ?ConvertLocalToWorldTransform@idEntity@@QAEXAAVidVec3@@AAVidMat3@@@Z 102232a0 f   Entity.obj
 0002:00059350       ??XidMat3@@QAEAAV0@ABV0@@Z 10223350 f i Entity.obj
 0002:000594d0       ?GetLocalVector@idEntity@@QBE?AVidVec3@@ABV2@@Z 102234d0 f   Entity.obj
 0002:00059620       ?GetLocalCoordinates@idEntity@@QBE?AVidVec3@@ABV2@@Z 10223620 f   Entity.obj
 0002:00059780       ?GetWorldVector@idEntity@@QBE?AVidVec3@@ABV2@@Z 10223780 f   Entity.obj
 0002:000598d0       ?UnprojectVector@idMat3@@QBEXABVidVec3@@AAV2@@Z 102238d0 f i Entity.obj
 0002:000599a0       ?GetWorldCoordinates@idEntity@@QBE?AVidVec3@@ABV2@@Z 102239a0 f   Entity.obj
 0002:00059b00       ?GetMasterPosition@idEntity@@QBE_NAAVidVec3@@AAVidMat3@@@Z 10223b00 f   Entity.obj
 0002:00059e30       ?GetWorldVelocities@idEntity@@QBEXAAVidVec3@@0@Z 10223e30 f   Entity.obj
 0002:0005a0c0       ?JoinTeam@idEntity@@QAEXPAV1@@Z 102240c0 f   Entity.obj
 0002:0005a300       ?QuitTeam@idEntity@@AAEXXZ 10224300 f   Entity.obj
 0002:0005a530       ?InitDefaultPhysics@idEntity@@AAEXABVidVec3@@ABVidMat3@@@Z 10224530 f   Entity.obj
 0002:0005ad00       ?SetPhysics@idEntity@@QAEXPAVidPhysics@@@Z 10224d00 f   Entity.obj
 0002:0005ae90       ?RestorePhysics@idEntity@@QAEXPAVidPhysics@@@Z 10224e90 f   Entity.obj
 0002:0005af20       ?GetPhysics@idEntity@@QBEPAVidPhysics@@XZ 10224f20 f   Entity.obj
 0002:0005af60       ?RunPhysics@idEntity@@QAE_NXZ 10224f60 f   Entity.obj
 0002:0005b630       ??0idEventArg@@QAE@PBVidEntity@@@Z 10225630 f i Entity.obj
 0002:0005b690       ?GetNumPushedEntities@idPush@@QBEHXZ 10225690 f i Entity.obj
 0002:0005b6d0       ?GetPushedEntity@idPush@@QBEPAVidEntity@@H@Z 102256d0 f i Entity.obj
 0002:0005b770       ?UpdateFromPhysics@idEntity@@AAEX_N@Z 10225770 f   Entity.obj
 0002:0005b8a0       ?SetOrigin@idEntity@@QAEXABVidVec3@@@Z 102258a0 f   Entity.obj
 0002:0005b930       ?SetAxis@idEntity@@QAEXABVidMat3@@@Z 10225930 f   Entity.obj
 0002:0005ba00       ?SetAngles@idEntity@@QAEXABVidAngles@@@Z 10225a00 f   Entity.obj
 0002:0005ba70       ?GetFloorPos@idEntity@@QBE_NMAAVidVec3@@@Z 10225a70 f   Entity.obj
 0002:0005bc80       ?GetPhysicsToVisualTransform@idEntity@@UAE_NAAVidVec3@@AAVidMat3@@@Z 10225c80 f   Entity.obj
 0002:0005bcc0       ?GetPhysicsToSoundTransform@idEntity@@UAE_NAAVidVec3@@AAVidMat3@@@Z 10225cc0 f   Entity.obj
 0002:0005bdb0       ?Collide@idEntity@@UAE_NABUtrace_s@@ABVidVec3@@@Z 10225db0 f   Entity.obj
 0002:0005bdf0       ?GetImpactInfo@idEntity@@UAEXPAV1@HABVidVec3@@PAUimpactInfo_s@@@Z 10225df0 f   Entity.obj
 0002:0005be80       ?ApplyImpulse@idEntity@@UAEXPAV1@HABVidVec3@@1@Z 10225e80 f   Entity.obj
 0002:0005bf10       ?AddForce@idEntity@@UAEXPAV1@HABVidVec3@@1@Z 10225f10 f   Entity.obj
 0002:0005bfa0       ?ActivatePhysics@idEntity@@UAEXPAV1@@Z 10225fa0 f   Entity.obj
 0002:0005c020       ?IsAtRest@idEntity@@UBE_NXZ 10226020 f   Entity.obj
 0002:0005c0a0       ?GetRestStartTime@idEntity@@UBEHXZ 102260a0 f   Entity.obj
 0002:0005c120       ?AddContactEntity@idEntity@@UAEXPAV1@@Z 10226120 f   Entity.obj
 0002:0005c1b0       ?RemoveContactEntity@idEntity@@UAEXPAV1@@Z 102261b0 f   Entity.obj
 0002:0005c240       ?CanDamage@idEntity@@UBE_NABVidVec3@@AAV2@@Z 10226240 f   Entity.obj
 0002:0005c960       ?DamageFeedback@idEntity@@UAEXPAV1@0AAH@Z 10226960 f   Entity.obj
 0002:0005c9a0       ?Damage@idEntity@@UAEXPAV1@0ABVidVec3@@PBDMH@Z 102269a0 f   Entity.obj
 0002:0005cbb0       ?AddDamageEffect@idEntity@@UAEXABUtrace_s@@ABVidVec3@@PBD@Z 10226bb0 f   Entity.obj
 0002:0005cdf0       ?Pain@idEntity@@UAE_NPAV1@0HABVidVec3@@H@Z 10226df0 f   Entity.obj
 0002:0005ce30       ?Killed@idEntity@@UAEXPAV1@0HABVidVec3@@H@Z 10226e30 f   Entity.obj
 0002:0005ce70       ?ShouldConstructScriptObjectAtSpawn@idEntity@@UBE_NXZ 10226e70 f   Entity.obj
 0002:0005ceb0       ?ConstructScriptObject@idEntity@@UAEPAVidThread@@XZ 10226eb0 f   Entity.obj
 0002:0005d020       ?DeconstructScriptObject@idEntity@@UAEXXZ 10227020 f   Entity.obj
 0002:0005d1e0       ?HasSignal@idEntity@@QBE_NW4signalNum_t@@@Z 102271e0 f   Entity.obj
 0002:0005d2a0       ?SetSignal@idEntity@@QAEXW4signalNum_t@@PAVidThread@@PBVfunction_t@@@Z 102272a0 f   Entity.obj
 0002:0005d520       ?GetThreadNum@idThread@@QAEHXZ 10227520 f i Entity.obj
 0002:0005d560       ?ClearSignal@idEntity@@QAEXPAVidThread@@W4signalNum_t@@@Z 10227560 f   Entity.obj
 0002:0005d630       ?ClearSignalThread@idEntity@@QAEXW4signalNum_t@@PAVidThread@@@Z 10227630 f   Entity.obj
 0002:0005d780       ?Signal@idEntity@@QAEXW4signalNum_t@@@Z 10227780 f   Entity.obj
 0002:0005d960       ?SignalEvent@idEntity@@QAEXPAVidThread@@W4signalNum_t@@@Z 10227960 f   Entity.obj
 0002:0005d9f0       ?TriggerGuis@idEntity@@QAEXXZ 102279f0 f   Entity.obj
 0002:0005dab0       ?HandleGuiCommands@idEntity@@QAE_NPAV1@PBD@Z 10227ab0 f   Entity.obj
 0002:0005e7c0       ??YidStr@@QAEAAV0@ABV0@@Z  102287c0 f i Entity.obj
 0002:0005e820       ?HandleSingleGuiCommand@idEntity@@UAE_NPAV1@PAVidLexer@@@Z 10228820 f   Entity.obj
 0002:0005e860       ?FindTargets@idEntity@@QAEXXZ 10228860 f   Entity.obj
 0002:0005e950       ?RemoveNullTargets@idEntity@@QAEXXZ 10228950 f   Entity.obj
 0002:0005ea00       ?ActivateTargets@idEntity@@QBEXPAV1@@Z 10228a00 f   Entity.obj
 0002:0005eb80       ?RespondsTo@idClass@@QBE_NABVidEventDef@@@Z 10228b80 f i Entity.obj
 0002:0005ec30       ?RespondsTo@idTypeInfo@@QBE_NABVidEventDef@@@Z 10228c30 f i Entity.obj
 0002:0005ecd0       ?GetEventNum@idEventDef@@QBEHXZ 10228cd0 f i Entity.obj
 0002:0005ed10       ?Teleport@idEntity@@UAEXABVidVec3@@ABVidAngles@@PAV1@@Z 10228d10 f   Entity.obj
 0002:0005edf0       ?TouchTriggers@idEntity@@QBE_NXZ 10228df0 f   Entity.obj
 0002:0005f150       ??0idEventArg@@QAE@PBUtrace_s@@@Z 10229150 f i Entity.obj
 0002:0005f1b0       ?GetOwner@idClipModel@@QBEPAVidEntity@@XZ 102291b0 f i Entity.obj
 0002:0005f1f0       ?GetSpline@idEntity@@QBEPAV?$idCurve_Spline@VidVec3@@@@XZ 102291f0 f   Entity.obj
 0002:0005f730       ?Right@idStr@@QBE?AV1@H@Z  10229730 f i Entity.obj
 0002:0005f800       ?ShowEditingDialog@idEntity@@UAEXXZ 10229800 f   Entity.obj
 0002:0005f840       ?Event_GetName@idEntity@@AAEXXZ 10229840 f   Entity.obj
 0002:0005f8a0       ?Event_SetName@idEntity@@AAEXPBD@Z 102298a0 f   Entity.obj
 0002:0005f900       ?Event_FindTargets@idEntity@@AAEXXZ 10229900 f   Entity.obj
 0002:0005f950       ?Event_ActivateTargets@idEntity@@AAEXPAV1@@Z 10229950 f   Entity.obj
 0002:0005f9b0       ?Event_NumTargets@idEntity@@AAEXXZ 102299b0 f   Entity.obj
 0002:0005fa30       ?Event_GetTarget@idEntity@@AAEXM@Z 10229a30 f   Entity.obj
 0002:0005fae0       ?Event_RandomTarget@idEntity@@AAEXPBD@Z 10229ae0 f   Entity.obj
 0002:0005fcc0       ?RandomInt@idRandom@@QAEHH@Z 10229cc0 f i Entity.obj
 0002:0005fd30       ?Event_BindToJoint@idEntity@@AAEXPAV1@PBDM@Z 10229d30 f   Entity.obj
 0002:0005fdc0       ?Event_RemoveBinds@idEntity@@AAEXXZ 10229dc0 f   Entity.obj
 0002:0005fe10       ?Event_Bind@idEntity@@AAEXPAV1@@Z 10229e10 f   Entity.obj
 0002:0005fe70       ?Event_BindPosition@idEntity@@AAEXPAV1@@Z 10229e70 f   Entity.obj
 0002:0005fed0       ?Event_Unbind@idEntity@@AAEXXZ 10229ed0 f   Entity.obj
 0002:0005ff20       ?Event_SpawnBind@idEntity@@AAEXXZ 10229f20 f   Entity.obj
 0002:00060370       ?Event_SetOwner@idEntity@@AAEXPAV1@@Z 1022a370 f   Entity.obj
 0002:00060450       ?Event_SetModel@idEntity@@AAEXPBD@Z 1022a450 f   Entity.obj
 0002:000604c0       ?Event_SetSkin@idEntity@@AAEXPBD@Z 1022a4c0 f   Entity.obj
 0002:00060550       ?Event_GetShaderParm@idEntity@@AAEXH@Z 1022a550 f   Entity.obj
 0002:000605e0       ?Event_SetShaderParm@idEntity@@AAEXHM@Z 1022a5e0 f   Entity.obj
 0002:00060640       ?Event_SetShaderParms@idEntity@@AAEXMMMM@Z 1022a640 f   Entity.obj
 0002:000606d0       ?Event_SetColor@idEntity@@AAEXMMM@Z 1022a6d0 f   Entity.obj
 0002:00060740       ?Event_GetColor@idEntity@@AAEXXZ 1022a740 f   Entity.obj
 0002:000607f0       ?Event_IsHidden@idEntity@@AAEXXZ 1022a7f0 f   Entity.obj
 0002:00060860       ?Event_Hide@idEntity@@AAEXXZ 1022a860 f   Entity.obj
 0002:000608c0       ?Event_Show@idEntity@@AAEXXZ 1022a8c0 f   Entity.obj
 0002:00060920       ?Event_CacheSoundShader@idEntity@@AAEXPBD@Z 1022a920 f   Entity.obj
 0002:00060990       ?Event_StartSoundShader@idEntity@@AAEXPBDH@Z 1022a990 f   Entity.obj
 0002:00060a70       ?Event_StopSound@idEntity@@AAEXHH@Z 1022aa70 f   Entity.obj
 0002:00060ad0       ?Event_StartSound@idEntity@@AAEXPBDHH@Z 1022aad0 f   Entity.obj
 0002:00060b90       ?Event_FadeSound@idEntity@@AAEXHMM@Z 1022ab90 f   Entity.obj
 0002:00060c20       ?Event_GetWorldOrigin@idEntity@@AAEXXZ 1022ac20 f   Entity.obj
 0002:00060cb0       ?Event_SetWorldOrigin@idEntity@@AAEXABVidVec3@@@Z 1022acb0 f   Entity.obj
 0002:00060d60       ?Event_SetOrigin@idEntity@@AAEXABVidVec3@@@Z 1022ad60 f   Entity.obj
 0002:00060dc0       ?Event_GetOrigin@idEntity@@AAEXXZ 1022adc0 f   Entity.obj
 0002:00060e60       ?Event_SetAngles@idEntity@@AAEXABVidAngles@@@Z 1022ae60 f   Entity.obj
 0002:00060ec0       ?Event_GetAngles@idEntity@@AAEXXZ 1022aec0 f   Entity.obj
 0002:00060fd0       ??AidAngles@@QAEAAMH@Z     1022afd0 f i Entity.obj
 0002:00061060       ?Event_SetLinearVelocity@idEntity@@AAEXABVidVec3@@@Z 1022b060 f   Entity.obj
 0002:000610f0       ?Event_GetLinearVelocity@idEntity@@AAEXXZ 1022b0f0 f   Entity.obj
 0002:00061180       ?Event_SetAngularVelocity@idEntity@@AAEXABVidVec3@@@Z 1022b180 f   Entity.obj
 0002:00061210       ?Event_GetAngularVelocity@idEntity@@AAEXXZ 1022b210 f   Entity.obj
 0002:000612a0       ?Event_SetSize@idEntity@@AAEXABVidVec3@@0@Z 1022b2a0 f   Entity.obj
 0002:00061340       ?Event_GetSize@idEntity@@AAEXXZ 1022b340 f   Entity.obj
 0002:00061440       ?Event_GetMins@idEntity@@AAEXXZ 1022b440 f   Entity.obj
 0002:000614d0       ?Event_GetMaxs@idEntity@@AAEXXZ 1022b4d0 f   Entity.obj
 0002:00061560       ?Event_Touches@idEntity@@AAEXPAV1@@Z 1022b560 f   Entity.obj
 0002:00061650       ?Event_SetGuiParm@idEntity@@AAEXPBD0@Z 1022b650 f   Entity.obj
 0002:00061790       ?Event_SetGuiFloat@idEntity@@AAEXPBDM@Z 1022b790 f   Entity.obj
 0002:000618b0       ?Event_GetNextKey@idEntity@@AAEXPBD0@Z 1022b8b0 f   Entity.obj
 0002:00061980       ?Event_SetKey@idEntity@@AAEXPBD0@Z 1022b980 f   Entity.obj
 0002:000619e0       ?Event_GetKey@idEntity@@AAEXPBD@Z 1022b9e0 f   Entity.obj
 0002:00061a90       ?Event_GetIntKey@idEntity@@AAEXPBD@Z 1022ba90 f   Entity.obj
 0002:00061b40       ?Event_GetFloatKey@idEntity@@AAEXPBD@Z 1022bb40 f   Entity.obj
 0002:00061bf0       ?Event_GetVectorKey@idEntity@@AAEXPBD@Z 1022bbf0 f   Entity.obj
 0002:00061cb0       ?Event_GetEntityKey@idEntity@@AAEXPBD@Z 1022bcb0 f   Entity.obj
 0002:00061dc0       ?Event_RestorePosition@idEntity@@AAEXXZ 1022bdc0 f   Entity.obj
 0002:00062080       ?Event_UpdateCameraTarget@idEntity@@AAEXXZ 1022c080 f   Entity.obj
 0002:00062300       ?Event_DistanceTo@idEntity@@AAEXPAV1@@Z 1022c300 f   Entity.obj
 0002:00062400       ?LengthFast@idVec3@@QBEMXZ 1022c400 f i Entity.obj
 0002:00062490       ?Event_DistanceToPoint@idEntity@@AAEXABVidVec3@@@Z 1022c490 f   Entity.obj
 0002:00062550       ?Event_StartFx@idEntity@@AAEXPBD@Z 1022c550 f   Entity.obj
 0002:000625c0       ?Event_WaitFrame@idEntity@@AAEXXZ 1022c5c0 f   Entity.obj
 0002:00062620       ?Event_Wait@idEntity@@AAEXM@Z 1022c620 f   Entity.obj
 0002:000626a0       ?Event_HasFunction@idEntity@@AAEXPBD@Z 1022c6a0 f   Entity.obj
 0002:00062730       ?Event_CallFunction@idEntity@@AAEXPBD@Z 1022c730 f   Entity.obj
 0002:00062890       ?Event_SetNeverDormant@idEntity@@AAEXH@Z 1022c890 f   Entity.obj
 0002:00062900       ?Event_SetGui@idEntity@@AAEXHPBD@Z 1022c900 f   Entity.obj
 0002:00062a50       ?Event_PrecacheGui@idEntity@@AAEXPBD@Z 1022ca50 f   Entity.obj
 0002:00062ad0       ?Event_GetGuiParm@idEntity@@AAEXHPBD@Z 1022cad0 f   Entity.obj
 0002:00062b90       ?Event_GetGuiParmFloat@idEntity@@AAEXHPBD@Z 1022cb90 f   Entity.obj
 0002:00062c50       ?Event_GuiNamedEvent@idEntity@@AAEXHPBD@Z 1022cc50 f   Entity.obj
 0002:00062cf0       ?ClientPredictionThink@idEntity@@UAEXXZ 1022ccf0 f   Entity.obj
 0002:00062d60       ?WriteBindToSnapshot@idEntity@@QBEXAAVidBitMsgDelta@@@Z 1022cd60 f   Entity.obj
 0002:00062e80       ?ReadBindFromSnapshot@idEntity@@QAEXABVidBitMsgDelta@@@Z 1022ce80 f   Entity.obj
 0002:00062fd0       ?WriteColorToSnapshot@idEntity@@QBEXAAVidBitMsgDelta@@@Z 1022cfd0 f   Entity.obj
 0002:000630e0       ??0idVec4@@QAE@XZ          1022d0e0 f i Entity.obj
 0002:00063120       ?WriteLong@idBitMsgDelta@@QAEXH@Z 1022d120 f i Entity.obj
 0002:00063180       ?ReadColorFromSnapshot@idEntity@@QAEXABVidBitMsgDelta@@@Z 1022d180 f   Entity.obj
 0002:00063290       ?ReadLong@idBitMsgDelta@@QBEHXZ 1022d290 f i Entity.obj
 0002:000632f0       ?WriteGUIToSnapshot@idEntity@@QBEXAAVidBitMsgDelta@@@Z 1022d2f0 f   Entity.obj
 0002:000633a0       ?WriteByte@idBitMsgDelta@@QAEXH@Z 1022d3a0 f i Entity.obj
 0002:00063400       ?ReadGUIFromSnapshot@idEntity@@QAEXABVidBitMsgDelta@@@Z 1022d400 f   Entity.obj
 0002:000634d0       ?ReadByte@idBitMsgDelta@@QBEHXZ 1022d4d0 f i Entity.obj
 0002:00063530       ?WriteToSnapshot@idEntity@@UBEXAAVidBitMsgDelta@@@Z 1022d530 f   Entity.obj
 0002:00063570       ?ReadFromSnapshot@idEntity@@UAEXABVidBitMsgDelta@@@Z 1022d570 f   Entity.obj
 0002:000635b0       ?ServerSendEvent@idEntity@@QBEXHPBVidBitMsg@@_NH@Z 1022d5b0 f   Entity.obj
 0002:00063840       ?GetData@idBitMsg@@QBEPBEXZ 1022d840 f i Entity.obj
 0002:00063880       ?GetSize@idBitMsg@@QBEHXZ  1022d880 f i Entity.obj
 0002:000638c0       ?ClientSendEvent@idEntity@@QBEXHPBVidBitMsg@@@Z 1022d8c0 f   Entity.obj
 0002:00063b00       ?ServerReceiveEvent@idEntity@@UAE_NHHABVidBitMsg@@@Z 1022db00 f   Entity.obj
 0002:00063b50       ?ClientReceiveEvent@idEntity@@UAE_NHHABVidBitMsg@@@Z 1022db50 f   Entity.obj
 0002:00063d60       ?ReadByte@idBitMsg@@QBEHXZ 1022dd60 f i Entity.obj
 0002:00063dc0       ?ReadLong@idBitMsg@@QBEHXZ 1022ddc0 f i Entity.obj
 0002:00063e20       ?CreateInstance@idAnimatedEntity@@SAPAVidClass@@XZ 1022de20 f   Entity.obj
 0002:00063f50       ?GetType@idAnimatedEntity@@UBEPAVidTypeInfo@@XZ 1022df50 f   Entity.obj
 0002:00063f90       ??0idAnimatedEntity@@QAE@XZ 1022df90 f   Entity.obj
 0002:00064070       ??_GidAnimatedEntity@@UAEPAXI@Z 1022e070 f i Entity.obj
 0002:00064070       ??_EidAnimatedEntity@@UAEPAXI@Z 1022e070 f i Entity.obj
 0002:000640e0       ??1idAnimatedEntity@@UAE@XZ 1022e0e0 f   Entity.obj
 0002:000641f0       ?Save@idAnimatedEntity@@QBEXPAVidSaveGame@@@Z 1022e1f0 f   Entity.obj
 0002:00064250       ?Restore@idAnimatedEntity@@QAEXPAVidRestoreGame@@@Z 1022e250 f   Entity.obj
 0002:00064370       ?ClientPredictionThink@idAnimatedEntity@@UAEXXZ 1022e370 f   Entity.obj
 0002:000643f0       ?Think@idAnimatedEntity@@UAEXXZ 1022e3f0 f   Entity.obj
 0002:00064470       ?UpdateAnimation@idAnimatedEntity@@QAEXXZ 1022e470 f   Entity.obj
 0002:000645e0       ?GetAnimator@idAnimatedEntity@@UAEPAVidAnimator@@XZ 1022e5e0 f   Entity.obj
 0002:00064620       ?SetModel@idAnimatedEntity@@UAEXPBD@Z 1022e620 f   Entity.obj
 0002:00064760       ?GetJointWorldTransform@idAnimatedEntity@@QAE_NW4jointHandle_t@@HAAVidVec3@@AAVidMat3@@@Z 1022e760 f   Entity.obj
 0002:00064800       ?GetJointTransformForAnim@idAnimatedEntity@@QBE_NW4jointHandle_t@@HHAAVidVec3@@AAVidMat3@@@Z 1022e800 f   Entity.obj
 0002:00064a00       ?AddDamageEffect@idAnimatedEntity@@UAEXABUtrace_s@@ABVidVec3@@PBD@Z 1022ea00 f   Entity.obj
 0002:00064fa0       ?WriteShort@idBitMsg@@QAEXH@Z 1022efa0 f i Entity.obj
 0002:00065000       ?WriteDir@idBitMsg@@QAEXABVidVec3@@H@Z 1022f000 f i Entity.obj
 0002:00065070       ?GetDefaultSurfaceType@idAnimatedEntity@@UBEHXZ 1022f070 f   Entity.obj
 0002:000650b0       ?AddLocalDamageEffect@idAnimatedEntity@@QAEXW4jointHandle_t@@ABVidVec3@@11PBVidDeclEntityDef@@PBVidMaterial@@@Z 1022f0b0 f   Entity.obj
 0002:000656b0       ??0damageEffect_s@@QAE@XZ  1022f6b0 f i Entity.obj
 0002:00065720       ?UpdateDamageEffects@idAnimatedEntity@@QAEXXZ 1022f720 f   Entity.obj
 0002:000659c0       ?ClientReceiveEvent@idAnimatedEntity@@UAE_NHHABVidBitMsg@@@Z 1022f9c0 f   Entity.obj
 0002:00065c60       ?ReadShort@idBitMsg@@QBEHXZ 1022fc60 f i Entity.obj
 0002:00065cc0       ?ReadDir@idBitMsg@@QBE?AVidVec3@@H@Z 1022fcc0 f i Entity.obj
 0002:00065d30       ?Event_GetJointName@idAnimatedEntity@@AAEXW4jointHandle_t@@@Z 1022fd30 f   Entity.obj
 0002:00065da0       ?Event_GetJointHandle@idAnimatedEntity@@AAEXPBD@Z 1022fda0 f   Entity.obj
 0002:00065e10       ?Event_ClearAllJoints@idAnimatedEntity@@AAEXXZ 1022fe10 f   Entity.obj
 0002:00065e70       ?Event_ClearJoint@idAnimatedEntity@@AAEXW4jointHandle_t@@@Z 1022fe70 f   Entity.obj
 0002:00065ed0       ?Event_SetJointPos@idAnimatedEntity@@AAEXW4jointHandle_t@@W4jointModTransform_t@@ABVidVec3@@@Z 1022fed0 f   Entity.obj
 0002:00065f40       ?Event_SetJointAngle@idAnimatedEntity@@AAEXW4jointHandle_t@@W4jointModTransform_t@@ABVidAngles@@@Z 1022ff40 f   Entity.obj
 0002:00066010       ?Event_GetJointPos@idAnimatedEntity@@AAEXW4jointHandle_t@@@Z 10230010 f   Entity.obj
 0002:00066120       ?Event_GetJointAngle@idAnimatedEntity@@AAEXW4jointHandle_t@@@Z 10230120 f   Entity.obj
 0002:000662a0       ?Num@?$idList@VidKeyValue@@@@QBEHXZ 102302a0 f i Entity.obj
 0002:000662e0       ??A?$idList@VidKeyValue@@@@QBEABVidKeyValue@@H@Z 102302e0 f i Entity.obj
 0002:000663a0       ??0?$idLinkList@VidEntity@@@@QAE@XZ 102303a0 f i Entity.obj
 0002:00066410       ??1?$idLinkList@VidEntity@@@@QAE@XZ 10230410 f i Entity.obj
 0002:00066460       ?InList@?$idLinkList@VidEntity@@@@QBE_NXZ 10230460 f i Entity.obj
 0002:000664b0       ?AddToEnd@?$idLinkList@VidEntity@@@@QAEXAAV1@@Z 102304b0 f i Entity.obj
 0002:00066510       ?Remove@?$idLinkList@VidEntity@@@@QAEXXZ 10230510 f i Entity.obj
 0002:00066590       ?SetOwner@?$idLinkList@VidEntity@@@@QAEXPAVidEntity@@@Z 10230590 f i Entity.obj
 0002:000665e0       ??0?$idList@V?$idEntityPtr@VidEntity@@@@@@QAE@H@Z 102305e0 f i Entity.obj
 0002:00066680       ??1?$idList@V?$idEntityPtr@VidEntity@@@@@@QAE@XZ 10230680 f i Entity.obj
 0002:000666d0       ?Clear@?$idList@V?$idEntityPtr@VidEntity@@@@@@QAEXXZ 102306d0 f i Entity.obj
 0002:00066770       ??A?$idList@V?$idEntityPtr@VidEntity@@@@@@QBEABV?$idEntityPtr@VidEntity@@@@H@Z 10230770 f i Entity.obj
 0002:00066830       ?SetNum@?$idList@V?$idEntityPtr@VidEntity@@@@@@QAEXH_N@Z 10230830 f i Entity.obj
 0002:000668e0       ?RemoveIndex@?$idList@V?$idEntityPtr@VidEntity@@@@@@QAE_NH@Z 102308e0 f i Entity.obj
 0002:00066a30       ??0?$idList@Usignal_t@@@@QAE@H@Z 10230a30 f i Entity.obj
 0002:00066ad0       ??1?$idList@Usignal_t@@@@QAE@XZ 10230ad0 f i Entity.obj
 0002:00066b20       ?Clear@?$idList@Usignal_t@@@@QAEXXZ 10230b20 f i Entity.obj
 0002:00066bc0       ?Num@?$idList@Usignal_t@@@@QBEHXZ 10230bc0 f i Entity.obj
 0002:00066c00       ??A?$idList@Usignal_t@@@@QAEAAUsignal_t@@H@Z 10230c00 f i Entity.obj
 0002:00066cc0       ?SetNum@?$idList@Usignal_t@@@@QAEXH_N@Z 10230cc0 f i Entity.obj
 0002:00066d70       ?Append@?$idList@Usignal_t@@@@QAEHABUsignal_t@@@Z 10230d70 f i Entity.obj
 0002:00066e70       ?RemoveIndex@?$idList@Usignal_t@@@@QAE_NH@Z 10230e70 f i Entity.obj
 0002:00066fc0       ??0?$idCurve_CatmullRomSpline@VidVec3@@@@QAE@XZ 10230fc0 f i Entity.obj
 0002:00067020       ?SetBoundaryType@?$idCurve_Spline@VidVec3@@@@UAEXW4boundary_t@1@@Z 10231020 f i Entity.obj
 0002:00067070       ?GetBoundaryType@?$idCurve_Spline@VidVec3@@@@UBE?AW4boundary_t@1@XZ 10231070 f i Entity.obj
 0002:000670b0       ?SetCloseTime@?$idCurve_Spline@VidVec3@@@@UAEXM@Z 102310b0 f i Entity.obj
 0002:00067100       ?GetCloseTime@?$idCurve_Spline@VidVec3@@@@UAEMXZ 10231100 f i Entity.obj
 0002:00067170       ?RemoveIndex@?$idCurve@VidVec3@@@@UAEXH@Z 10231170 f i Entity.obj
 0002:000671f0       ?Clear@?$idCurve@VidVec3@@@@UAEXXZ 102311f0 f i Entity.obj
 0002:00067270       ?RemoveIndex@?$idList@M@@QAE_NH@Z 10231270 f i Entity.obj
 0002:000673c0       ?Clear@?$idList@VidVec3@@@@QAEXXZ 102313c0 f i Entity.obj
 0002:00067460       ?RemoveIndex@?$idList@VidVec3@@@@QAE_NH@Z 10231460 f i Entity.obj
 0002:000675b0       ?AddValue@?$idCurve@VidVec3@@@@UAEHMABVidVec3@@@Z 102315b0 f i Entity.obj
 0002:00067650       ?IsDone@?$idCurve_Spline@VidVec3@@@@UBE_NM@Z 10231650 f i Entity.obj
 0002:00067700       ?GetCurrentValue@?$idCurve_CatmullRomSpline@VidVec3@@@@UBE?AVidVec3@@M@Z 10231700 f i Entity.obj
 0002:00067910       ??A?$idList@VidVec3@@@@QBEABVidVec3@@H@Z 10231910 f i Entity.obj
 0002:000679d0       ?GetCurrentFirstDerivative@?$idCurve_CatmullRomSpline@VidVec3@@@@UBE?AVidVec3@@M@Z 102319d0 f i Entity.obj
 0002:00067c10       ??KidVec3@@QBE?AV0@M@Z     10231c10 f i Entity.obj
 0002:00067cb0       ?GetCurrentSecondDerivative@?$idCurve_CatmullRomSpline@VidVec3@@@@UBE?AVidVec3@@M@Z 10231cb0 f i Entity.obj
 0002:00067f00       ??0?$idCurve_BSpline@VidVec3@@@@QAE@XZ 10231f00 f i Entity.obj
 0002:00067f70       ?GetOrder@?$idCurve_BSpline@VidVec3@@@@UBEHXZ 10231f70 f i Entity.obj
 0002:00067fb0       ?SetOrder@?$idCurve_BSpline@VidVec3@@@@UAEXH@Z 10231fb0 f i Entity.obj
 0002:00068040       ?GetCurrentValue@?$idCurve_BSpline@VidVec3@@@@UBE?AVidVec3@@M@Z 10232040 f i Entity.obj
 0002:00068240       ?GetCurrentFirstDerivative@?$idCurve_BSpline@VidVec3@@@@UBE?AVidVec3@@M@Z 10232240 f i Entity.obj
 0002:00068440       ?GetCurrentSecondDerivative@?$idCurve_BSpline@VidVec3@@@@UBE?AVidVec3@@M@Z 10232440 f i Entity.obj
 0002:00068640       ??0?$idCurve_NonUniformBSpline@VidVec3@@@@QAE@XZ 10232640 f i Entity.obj
 0002:000686a0       ?GetCurrentValue@?$idCurve_NonUniformBSpline@VidVec3@@@@UBE?AVidVec3@@M@Z 102326a0 f i Entity.obj
 0002:000688e0       ?GetCurrentFirstDerivative@?$idCurve_NonUniformBSpline@VidVec3@@@@UBE?AVidVec3@@M@Z 102328e0 f i Entity.obj
 0002:00068b20       ?GetCurrentSecondDerivative@?$idCurve_NonUniformBSpline@VidVec3@@@@UBE?AVidVec3@@M@Z 10232b20 f i Entity.obj
 0002:00068d60       ??0?$idCurve_NURBS@VidVec3@@@@QAE@XZ 10232d60 f i Entity.obj
 0002:00068e10       ?RemoveIndex@?$idCurve_NURBS@VidVec3@@@@UAEXH@Z 10232e10 f i Entity.obj
 0002:00068e90       ?Clear@?$idCurve_NURBS@VidVec3@@@@UAEXXZ 10232e90 f i Entity.obj
 0002:00068f10       ?AddValue@?$idCurve_NURBS@VidVec3@@@@UAEHMABVidVec3@@M@Z 10232f10 f i Entity.obj
 0002:00068fc0       ?AddValue@?$idCurve_NURBS@VidVec3@@@@UAEHMABVidVec3@@@Z 10232fc0 f i Entity.obj
 0002:00069080       ?GetCurrentValue@?$idCurve_NURBS@VidVec3@@@@UBE?AVidVec3@@M@Z 10233080 f i Entity.obj
 0002:000692f0       ?GetCurrentFirstDerivative@?$idCurve_NURBS@VidVec3@@@@UBE?AVidVec3@@M@Z 102332f0 f i Entity.obj
 0002:00069730       ?GetCurrentSecondDerivative@?$idCurve_NURBS@VidVec3@@@@UBE?AVidVec3@@M@Z 10233730 f i Entity.obj
 0002:00069da0       ??_E?$idCurve_CatmullRomSpline@VidVec3@@@@UAEPAXI@Z 10233da0 f i Entity.obj
 0002:00069da0       ??_G?$idCurve_CatmullRomSpline@VidVec3@@@@UAEPAXI@Z 10233da0 f i Entity.obj
 0002:00069e10       ??_E?$idCurve_BSpline@VidVec3@@@@UAEPAXI@Z 10233e10 f i Entity.obj
 0002:00069e10       ??_G?$idCurve_BSpline@VidVec3@@@@UAEPAXI@Z 10233e10 f i Entity.obj
 0002:00069e80       ??_G?$idCurve_NonUniformBSpline@VidVec3@@@@UAEPAXI@Z 10233e80 f i Entity.obj
 0002:00069e80       ??_E?$idCurve_NonUniformBSpline@VidVec3@@@@UAEPAXI@Z 10233e80 f i Entity.obj
 0002:00069ef0       ??1?$idCurve_BSpline@VidVec3@@@@UAE@XZ 10233ef0 f i Entity.obj
 0002:00069f40       ??1?$idCurve_Spline@VidVec3@@@@UAE@XZ 10233f40 f i Entity.obj
 0002:00069f90       ??1?$idCurve@VidVec3@@@@UAE@XZ 10233f90 f i Entity.obj
 0002:0006a040       ??1?$idList@VidVec3@@@@QAE@XZ 10234040 f i Entity.obj
 0002:0006a090       ?GetCurrentValue@?$idCurve@VidVec3@@@@UBE?AVidVec3@@M@Z 10234090 f i Entity.obj
 0002:0006a170       ?Num@?$idList@VidVec3@@@@QBEHXZ 10234170 f i Entity.obj
 0002:0006a1b0       ?GetCurrentFirstDerivative@?$idCurve@VidVec3@@@@UBE?AVidVec3@@M@Z 102341b0 f i Entity.obj
 0002:0006a230       ?GetCurrentSecondDerivative@?$idCurve@VidVec3@@@@UBE?AVidVec3@@M@Z 10234230 f i Entity.obj
 0002:0006a2b0       ?IsDone@?$idCurve@VidVec3@@@@UBE_NM@Z 102342b0 f i Entity.obj
 0002:0006a350       ??_E?$idCurve@VidVec3@@@@UAEPAXI@Z 10234350 f i Entity.obj
 0002:0006a350       ??_G?$idCurve@VidVec3@@@@UAEPAXI@Z 10234350 f i Entity.obj
 0002:0006a3c0       ??_E?$idCurve_NURBS@VidVec3@@@@UAEPAXI@Z 102343c0 f i Entity.obj
 0002:0006a3c0       ??_G?$idCurve_NURBS@VidVec3@@@@UAEPAXI@Z 102343c0 f i Entity.obj
 0002:0006a430       ??1?$idCurve_NonUniformBSpline@VidVec3@@@@UAE@XZ 10234430 f i Entity.obj
 0002:0006a480       ??1?$idCurve_CatmullRomSpline@VidVec3@@@@UAE@XZ 10234480 f i Entity.obj
 0002:0006a4d0       ??1?$idCurve_NURBS@VidVec3@@@@UAE@XZ 102344d0 f i Entity.obj
 0002:0006a570       ?Insert@?$idList@M@@QAEHABMH@Z 10234570 f i Entity.obj
 0002:0006a6d0       ?Insert@?$idList@VidVec3@@@@QAEHABVidVec3@@H@Z 102346d0 f i Entity.obj
 0002:0006a840       ?Clear@?$idLinkList@VidEntity@@@@QAEXXZ 10234840 f i Entity.obj
 0002:0006a8c0       ?InsertBefore@?$idLinkList@VidEntity@@@@QAEXAAV1@@Z 102348c0 f i Entity.obj
 0002:0006a960       ?Resize@?$idList@V?$idEntityPtr@VidEntity@@@@@@QAEXH@Z 10234960 f i Entity.obj
 0002:0006ab70       ?Resize@?$idList@Usignal_t@@@@QAEXH@Z 10234b70 f i Entity.obj
 0002:0006ace0       ?IndexForTime@?$idCurve@VidVec3@@@@IBEHM@Z 10234ce0 f i Entity.obj
 0002:0006afc0       ??0?$idCurve_Spline@VidVec3@@@@QAE@XZ 10234fc0 f i Entity.obj
 0002:0006b040       ?ValueForIndex@?$idCurve_Spline@VidVec3@@@@IBE?AVidVec3@@H@Z 10235040 f i Entity.obj
 0002:0006b2e0       ?TimeForIndex@?$idCurve_Spline@VidVec3@@@@IBEMH@Z 102352e0 f i Entity.obj
 0002:0006b5b0       ?ClampedTime@?$idCurve_Spline@VidVec3@@@@IBEMM@Z 102355b0 f i Entity.obj
 0002:0006b690       ?Basis@?$idCurve_CatmullRomSpline@VidVec3@@@@IBEXHMPAM@Z 10235690 f i Entity.obj
 0002:0006b7e0       ?BasisFirstDerivative@?$idCurve_CatmullRomSpline@VidVec3@@@@IBEXHMPAM@Z 102357e0 f i Entity.obj
 0002:0006b900       ?BasisSecondDerivative@?$idCurve_CatmullRomSpline@VidVec3@@@@IBEXHMPAM@Z 10235900 f i Entity.obj
 0002:0006ba10       ?Basis@?$idCurve_BSpline@VidVec3@@@@IBEMHHM@Z 10235a10 f i Entity.obj
 0002:0006bc00       ?BasisFirstDerivative@?$idCurve_BSpline@VidVec3@@@@IBEMHHM@Z 10235c00 f i Entity.obj
 0002:0006bd00       ?BasisSecondDerivative@?$idCurve_BSpline@VidVec3@@@@IBEMHHM@Z 10235d00 f i Entity.obj
 0002:0006be00       ?Basis@?$idCurve_NonUniformBSpline@VidVec3@@@@IBEXHHMPAM@Z 10235e00 f i Entity.obj
 0002:0006bf90       ?BasisFirstDerivative@?$idCurve_NonUniformBSpline@VidVec3@@@@IBEXHHMPAM@Z 10235f90 f i Entity.obj
 0002:0006c160       ?BasisSecondDerivative@?$idCurve_NonUniformBSpline@VidVec3@@@@IBEXHHMPAM@Z 10236160 f i Entity.obj
 0002:0006c330       ?WeightForIndex@?$idCurve_NURBS@VidVec3@@@@IBEMH@Z 10236330 f i Entity.obj
 0002:0006c510       ??_E?$idCurve_Spline@VidVec3@@@@UAEPAXI@Z 10236510 f i Entity.obj
 0002:0006c510       ??_G?$idCurve_Spline@VidVec3@@@@UAEPAXI@Z 10236510 f i Entity.obj
 0002:0006c580       ?Resize@?$idList@VidVec3@@@@QAEXH@Z 10236580 f i Entity.obj
 0002:0006c790       ??0?$idCurve@VidVec3@@@@QAE@XZ 10236790 f i Entity.obj
 0002:0006c860       ??0?$idList@VidVec3@@@@QAE@H@Z 10236860 f i Entity.obj
 0002:0006c900       ?CreateInstance@idEntityFx@@SAPAVidClass@@XZ 10236900 f   Fx.obj
 0002:0006ca30       ?GetType@idEntityFx@@UBEPAVidTypeInfo@@XZ 10236a30 f   Fx.obj
 0002:0006ca70       ?Save@idEntityFx@@QBEXPAVidSaveGame@@@Z 10236a70 f   Fx.obj
 0002:0006cd30       ?Restore@idEntityFx@@QAEXPAVidRestoreGame@@@Z 10236d30 f   Fx.obj
 0002:0006d160       ?Setup@idEntityFx@@QAEXPBD@Z 10237160 f   Fx.obj
 0002:0006d4c0       ??0idFXLocalAction@@QAE@XZ 102374c0 f i Fx.obj
 0002:0006d530       ??0renderLight_s@@QAE@XZ   10237530 f i Fx.obj
 0002:0006d600       ?EffectName@idEntityFx@@QAEPBDXZ 10237600 f   Fx.obj
 0002:0006d690       ?Joint@idEntityFx@@QAEPBDXZ 10237690 f   Fx.obj
 0002:0006d720       ?CleanUp@idEntityFx@@IAEXXZ 10237720 f   Fx.obj
 0002:0006d800       ?CleanUpSingleAction@idEntityFx@@IAEXABUidFXSingleAction@@AAUidFXLocalAction@@@Z 10237800 f   Fx.obj
 0002:0006d920       ?Start@idEntityFx@@QAEXH@Z 10237920 f   Fx.obj
 0002:0006da30       ?Stop@idEntityFx@@QAEXXZ   10237a30 f   Fx.obj
 0002:0006da90       ?Duration@idEntityFx@@QAE?BHXZ 10237a90 f   Fx.obj
 0002:0006db80       ?Done@idEntityFx@@QAE?B_NXZ 10237b80 f   Fx.obj
 0002:0006dc00       ?ApplyFade@idEntityFx@@IAEXABUidFXSingleAction@@AAUidFXLocalAction@@HH@Z 10237c00 f   Fx.obj
 0002:0006df90       ?Run@idEntityFx@@QAEXH@Z   10237f90 f   Fx.obj
 0002:0006f340       ?SetFloat@idDict@@QAEXPBDM@Z 10239340 f i Fx.obj
 0002:0006f3c0       ??0idEntityFx@@QAE@XZ      102393c0 f   Fx.obj
 0002:0006f4d0       ??_GidEntityFx@@UAEPAXI@Z  102394d0 f i Fx.obj
 0002:0006f4d0       ??_EidEntityFx@@UAEPAXI@Z  102394d0 f i Fx.obj
 0002:0006f540       ??1idEntityFx@@UAE@XZ      10239540 f   Fx.obj
 0002:0006f620       ?Spawn@idEntityFx@@QAEXXZ  10239620 f   Fx.obj
 0002:0006f7e0       ?Think@idEntityFx@@UAEXXZ  102397e0 f   Fx.obj
 0002:0006f890       ?Event_ClearFx@idEntityFx@@IAEXXZ 10239890 f   Fx.obj
 0002:0006fa40       ?Event_Trigger@idEntityFx@@IAEXPAVidEntity@@@Z 10239a40 f   Fx.obj
 0002:0006fc00       ?StartFx@idEntityFx@@SAPAV1@PBDPBVidVec3@@PBVidMat3@@PAVidEntity@@_N@Z 10239c00 f   Fx.obj
 0002:0006fed0       ?WriteToSnapshot@idEntityFx@@UBEXAAVidBitMsgDelta@@@Z 10239ed0 f   Fx.obj
 0002:0006ffe0       ?ReadFromSnapshot@idEntityFx@@UAEXABVidBitMsgDelta@@@Z 10239fe0 f   Fx.obj
 0002:000701e0       ?ClientPredictionThink@idEntityFx@@UAEXXZ 1023a1e0 f   Fx.obj
 0002:00070270       ?CreateInstance@idTeleporter@@SAPAVidClass@@XZ 1023a270 f   Fx.obj
 0002:000703a0       ??0idTeleporter@@QAE@XZ    1023a3a0 f i Fx.obj
 0002:00070400       ??_GidTeleporter@@UAEPAXI@Z 1023a400 f i Fx.obj
 0002:00070400       ??_EidTeleporter@@UAEPAXI@Z 1023a400 f i Fx.obj
 0002:00070470       ??1idTeleporter@@UAE@XZ    1023a470 f i Fx.obj
 0002:000704c0       ?GetType@idTeleporter@@UBEPAVidTypeInfo@@XZ 1023a4c0 f   Fx.obj
 0002:00070500       ?Event_DoAction@idTeleporter@@AAEXPAVidEntity@@@Z 1023a500 f   Fx.obj
 0002:00070630       ?Num@?$idList@UidFXSingleAction@@@@QBEHXZ 1023a630 f i Fx.obj
 0002:00070670       ??A?$idList@UidFXSingleAction@@@@QBEABUidFXSingleAction@@H@Z 1023a670 f i Fx.obj
 0002:00070730       ??0?$idList@UidFXLocalAction@@@@QAE@H@Z 1023a730 f i Fx.obj
 0002:000707d0       ??1?$idList@UidFXLocalAction@@@@QAE@XZ 1023a7d0 f i Fx.obj
 0002:00070820       ?Num@?$idList@UidFXLocalAction@@@@QBEHXZ 1023a820 f i Fx.obj
 0002:00070860       ??A?$idList@UidFXLocalAction@@@@QAEAAUidFXLocalAction@@H@Z 1023a860 f i Fx.obj
 0002:00070920       ??A?$idList@UidFXLocalAction@@@@QBEABUidFXLocalAction@@H@Z 1023a920 f i Fx.obj
 0002:000709e0       ?SetNum@?$idList@UidFXLocalAction@@@@QAEXH_N@Z 1023a9e0 f i Fx.obj
 0002:00070a90       ?AssureSize@?$idList@UidFXLocalAction@@@@QAEXHABUidFXLocalAction@@@Z 1023aa90 f i Fx.obj
 0002:00070ba0       ??4idFXLocalAction@@QAEAAU0@ABU0@@Z 1023aba0 f i Fx.obj
 0002:00070cf0       ??4renderLight_s@@QAEAAU0@ABU0@@Z 1023acf0 f i Fx.obj
 0002:00070f00       ?Clear@?$idList@UidFXLocalAction@@@@QAEXXZ 1023af00 f i Fx.obj
 0002:00070fa0       ?Resize@?$idList@UidFXLocalAction@@@@QAEXH@Z 1023afa0 f i Fx.obj
 0002:000711c0       _GetGameAPI                1023b1c0 f   Game_local.obj
 0002:00071390       ?TestGameAPI@@YAXXZ        1023b390 f   Game_local.obj
 0002:000714d0       ??0idGameLocal@@QAE@XZ     1023b4d0 f   Game_local.obj
 0002:00071850       ??0idRandom@@QAE@H@Z       1023b850 f i Game_local.obj
 0002:000718a0       ??1idGame@@UAE@XZ          1023b8a0 f i Game_local.obj
 0002:000718e0       ??_GidGame@@UAEPAXI@Z      1023b8e0 f i Game_local.obj
 0002:000718e0       ??_EidGame@@UAEPAXI@Z      1023b8e0 f i Game_local.obj
 0002:00071950       ??0idEventQueue@@QAE@XZ    1023b950 f i Game_local.obj
 0002:000719c0       ??1idClip@@QAE@XZ          1023b9c0 f i Game_local.obj
 0002:00071a60       ??1idMultiplayerGame@@QAE@XZ 1023ba60 f i Game_local.obj
 0002:00071b40       ??1idEventQueue@@QAE@XZ    1023bb40 f i Game_local.obj
 0002:00071ba0       ??1mpChatLine_s@@QAE@XZ    1023bba0 f i Game_local.obj
 0002:00071bf0       ??_GidGameLocal@@UAEPAXI@Z 1023bbf0 f i Game_local.obj
 0002:00071bf0       ??_EidGameLocal@@UAEPAXI@Z 1023bbf0 f i Game_local.obj
 0002:00071c60       ??1idGameLocal@@UAE@XZ     1023bc60 f i Game_local.obj
 0002:00071f50       ??0idGame@@QAE@XZ          1023bf50 f i Game_local.obj
 0002:00071fa0       ??0idPush@@QAE@XZ          1023bfa0 f i Game_local.obj
 0002:00072010       ??_F?$idList@H@@QAEXXZ     1023c010 f i Game_local.obj
 0002:00072070       ??0pushed_s@idPush@@QAE@XZ 1023c070 f i Game_local.obj
 0002:000720d0       ?Clear@idGameLocal@@QAEXXZ 1023c0d0 f   Game_local.obj
 0002:00072640       ?SetSeed@idRandom@@QAEXH@Z 1023c640 f i Game_local.obj
 0002:00072690       ?Init@idGameLocal@@UAEXXZ  1023c690 f   Game_local.obj
 0002:00072b20       ?RegisterStaticVars@idCVar@@SAXXZ 1023cb20 f i Game_local.obj
 0002:00072bc0       ?Shutdown@idGameLocal@@UAEXXZ 1023cbc0 f   Game_local.obj
 0002:00072e60       ??_GidSmokeParticles@@QAEPAXI@Z 1023ce60 f i Game_local.obj
 0002:00072ed0       ??_GidMapFile@@QAEPAXI@Z   1023ced0 f i Game_local.obj
 0002:00072f40       ??1idMapFile@@QAE@XZ       1023cf40 f i Game_local.obj
 0002:00072ff0       ??1idSmokeParticles@@QAE@XZ 1023cff0 f i Game_local.obj
 0002:00073050       ?SaveGame@idGameLocal@@UAEXPAVidFile@@@Z 1023d050 f   Game_local.obj
 0002:00073960       ?GetSeed@idRandom@@QBEHXZ  1023d960 f i Game_local.obj
 0002:000739a0       ?GetThreads@idThread@@SAAAV?$idList@PAVidThread@@@@XZ 1023d9a0 f i Game_local.obj
 0002:000739e0       ?GetPersistentPlayerInfo@idGameLocal@@UAEABVidDict@@H@Z 1023d9e0 f   Game_local.obj
 0002:00073aa0       ?SetPersistentPlayerInfo@idGameLocal@@UAEXHABVidDict@@@Z 1023daa0 f   Game_local.obj
 0002:00073b10       ?Printf@idGameLocal@@QBAXPBDZZ 1023db10 f   Game_local.obj
 0002:00073c00       ?DPrintf@idGameLocal@@QBAXPBDZZ 1023dc00 f   Game_local.obj
 0002:00073d10       ?Warning@idGameLocal@@QBAXPBDZZ 1023dd10 f   Game_local.obj
 0002:00073e40       ?DWarning@idGameLocal@@QBAXPBDZZ 1023de40 f   Game_local.obj
 0002:00073f90       ?Error@idGameLocal@@QBAXPBDZZ 1023df90 f   Game_local.obj
 0002:000740c0       ?SetLocalClient@idGameLocal@@UAEXH@Z 1023e0c0 f   Game_local.obj
 0002:00074110       ?SetUserInfo@idGameLocal@@UAEPBVidDict@@HABV2@_N1@Z 1023e110 f   Game_local.obj
 0002:00074470       ?GetUserInfo@idGameLocal@@UAEPBVidDict@@H@Z 1023e470 f   Game_local.obj
 0002:00074510       ?SetServerInfo@idGameLocal@@UAEXABVidDict@@@Z 1023e510 f   Game_local.obj
 0002:00074690       ?LoadMap@idGameLocal@@QAEXPBDH@Z 1023e690 f   Game_local.obj
 0002:00074f50       ??H@YA?AVidStr@@ABV0@PBD@Z 1023ef50 f i Game_local.obj
 0002:00075070       ?GetName@idMapFile@@QBEPBDXZ 1023f070 f i Game_local.obj
 0002:000750d0       ?GetGeometryCRC@idMapFile@@QBEIXZ 1023f0d0 f i Game_local.obj
 0002:00075110       ??0idMapFile@@QAE@XZ       1023f110 f i Game_local.obj
 0002:00075200       ?LocalMapRestart@idGameLocal@@QAEXXZ 1023f200 f   Game_local.obj
 0002:000754f0       ?MapRestart@idGameLocal@@QAEXXZ 1023f4f0 f   Game_local.obj
 0002:00075880       ?Cmp@idStr@@QBEHPBD@Z      1023f880 f i Game_local.obj
 0002:00075920       ?MapRestart_f@idGameLocal@@SAXABVidCmdArgs@@@Z 1023f920 f   Game_local.obj
 0002:000759e0       ?NextMap@idGameLocal@@QAE_NXZ 1023f9e0 f   Game_local.obj
 0002:00075ed0       ?GetString@idCVar@@QBEPBDXZ 1023fed0 f i Game_local.obj
 0002:00075f10       ?SetString@idCVar@@QAEXPBD@Z 1023ff10 f i Game_local.obj
 0002:00075f80       ?NextMap_f@idGameLocal@@SAXABVidCmdArgs@@@Z 1023ff80 f   Game_local.obj
 0002:00076020       ?MapPopulate@idGameLocal@@QAEXXZ 10240020 f   Game_local.obj
 0002:000760f0       ?InitFromNewMap@idGameLocal@@UAEXPBDPAVidRenderWorld@@PAVidSoundWorld@@_N3H@Z 102400f0 f   Game_local.obj
 0002:00076280       ?InitFromSaveGame@idGameLocal@@UAE_NPBDPAVidRenderWorld@@PAVidSoundWorld@@PAVidFile@@@Z 10240280 f   Game_local.obj
 0002:00076e40       ?GetNumEntities@idMapFile@@QBEHXZ 10240e40 f i Game_local.obj
 0002:00076ea0       ?GetEntity@idMapFile@@QBEPAVidMapEntity@@H@Z 10240ea0 f i Game_local.obj
 0002:00076f00       ?SetInteger@idCVar@@QAEXH@Z 10240f00 f i Game_local.obj
 0002:00076f70       ?MapClear@idGameLocal@@QAEX_N@Z 10240f70 f   Game_local.obj
 0002:000773c0       ?Add@idHashIndex@@QAEXHH@Z 102413c0 f i Game_local.obj
 0002:00077500       ?GenerateKey@idHashIndex@@QBEHPBD_N@Z 10241500 f i Game_local.obj
 0002:00077580       ?Hash@idStr@@SAHPBD@Z      10241580 f i Game_local.obj
 0002:00077610       ?IHash@idStr@@SAHPBD@Z     10241610 f i Game_local.obj
 0002:000776d0       ?ToLower@idStr@@SADD@Z     102416d0 f i Game_local.obj
 0002:00077730       ??_GidEditEntities@@QAEPAXI@Z 10241730 f i Game_local.obj
 0002:000777a0       ??1idEditEntities@@QAE@XZ  102417a0 f i Game_local.obj
 0002:00077840       ?MapShutdown@idGameLocal@@UAEXXZ 10241840 f   Game_local.obj
 0002:000779f0       ?DumpOggSounds@idGameLocal@@QAEXXZ 102419f0 f   Game_local.obj
 0002:00078420       ?IcmpPath@idStr@@QBEHPBD@Z 10242420 f i Game_local.obj
 0002:000784c0       ?Find@idStr@@QBEHPBD_NHH@Z 102424c0 f i Game_local.obj
 0002:00078540       ?EnsureNotPurged@idDecl@@QAEXXZ 10242540 f i Game_local.obj
 0002:000785b0       ?EverReferenced@idDecl@@QBE_NXZ 102425b0 f i Game_local.obj
 0002:00078620       ?GetShakeSounds@idGameLocal@@QAEXPBVidDict@@@Z 10242620 f   Game_local.obj
 0002:00078810       ?CacheDictionaryMedia@idGameLocal@@UAEXPBVidDict@@@Z 10242810 f   Game_local.obj
 0002:00079460       ?Find@idStr@@QBEHDHH@Z     10243460 f i Game_local.obj
 0002:000794e0       ?Left@idStr@@QBE?AV1@H@Z   102434e0 f i Game_local.obj
 0002:00079560       ?InitScriptForMap@idGameLocal@@QAEXXZ 10243560 f   Game_local.obj
 0002:00079790       ?SpawnPlayer@idGameLocal@@UAEXH@Z 10243790 f   Game_local.obj
 0002:000799f0       ?SetInt@idDict@@QAEXPBDH@Z 102439f0 f i Game_local.obj
 0002:00079a60       ?GetClientByNum@idGameLocal@@QBEPAVidPlayer@@H@Z 10243a60 f   Game_local.obj
 0002:00079ae0       ?GetClientByName@idGameLocal@@QBEPAVidPlayer@@PBD@Z 10243ae0 f   Game_local.obj
 0002:00079bd0       ?GetClientByCmdArgs@idGameLocal@@QBEPAVidPlayer@@ABVidCmdArgs@@@Z 10243bd0 f   Game_local.obj
 0002:00079da0       ?IsNumeric@idStr@@QBE_NXZ  10243da0 f i Game_local.obj
 0002:00079e00       ?Argv@idCmdArgs@@QBEPBDH@Z 10243e00 f i Game_local.obj
 0002:00079e80       ?GetNextClientNum@idGameLocal@@QBEHH@Z 10243e80 f   Game_local.obj
 0002:00079f60       ?GetLocalPlayer@idGameLocal@@QBEPAVidPlayer@@XZ 10243f60 f   Game_local.obj
 0002:0007a020       ?GetClientPVS@idGameLocal@@QAE?AUpvsHandle_s@@PAVidPlayer@@W4pvsType_t@@@Z 10244020 f   Game_local.obj
 0002:0007a150       ?GetPrivateCameraView@idPlayer@@QBEPAVidCamera@@XZ 10244150 f i Game_local.obj
 0002:0007a190       ?SetupPlayerPVS@idGameLocal@@QAEXXZ 10244190 f   Game_local.obj
 0002:0007a4d0       ?FreePlayerPVS@idGameLocal@@QAEXXZ 102444d0 f   Game_local.obj
 0002:0007a5a0       ?InPlayerPVS@idGameLocal@@QBE_NPAVidEntity@@@Z 102445a0 f   Game_local.obj
 0002:0007a640       ?InPlayerConnectedArea@idGameLocal@@QBE_NPAVidEntity@@@Z 10244640 f   Game_local.obj
 0002:0007a6e0       ?UpdateGravity@idGameLocal@@QAEXXZ 102446e0 f   Game_local.obj
 0002:0007a840       ?IsModified@idCVar@@QBE_NXZ 10244840 f i Game_local.obj
 0002:0007a890       ?ClearModified@idCVar@@QAEXXZ 10244890 f i Game_local.obj
 0002:0007a8f0       ?SetFloat@idCVar@@QAEXM@Z  102448f0 f i Game_local.obj
 0002:0007a960       ?GetGravity@idGameLocal@@QBEABVidVec3@@XZ 10244960 f   Game_local.obj
 0002:0007a9a0       ?SortActiveEntityList@idGameLocal@@QAEXXZ 102449a0 f   Game_local.obj
 0002:0007acd0       ?RunFrame@idGameLocal@@UAE?AUgameReturn_t@@PBVusercmd_t@@@Z 10244cd0 f   Game_local.obj
 0002:0007b8c0       ??0idTimer@@QAE@XZ         102458c0 f i Game_local.obj
 0002:0007b920       ??1idTimer@@QAE@XZ         10245920 f i Game_local.obj
 0002:0007b960       ?Start@idTimer@@QAEXXZ     10245960 f i Game_local.obj
 0002:0007ba10       ?Stop@idTimer@@QAEXXZ      10245a10 f i Game_local.obj
 0002:0007bb20       ?Clear@idTimer@@QAEXXZ     10245b20 f i Game_local.obj
 0002:0007bb70       ?Milliseconds@idTimer@@QBENXZ 10245b70 f i Game_local.obj
 0002:0007bc20       ?CalcFov@idGameLocal@@QBEXMAAM0@Z 10245c20 f   Game_local.obj
 0002:0007bfc0       ?atan2@@YAMMM@Z            10245fc0 f i Game_local.obj
 0002:0007c020       _atan2f                    10246020 f i Game_local.obj
 0002:0007c090       ?tan@@YAMM@Z               10246090 f i Game_local.obj
 0002:0007c0e0       _tanf                      102460e0 f i Game_local.obj
 0002:0007c140       ?Draw@idGameLocal@@UAE_NH@Z 10246140 f   Game_local.obj
 0002:0007c200       ?HandleESC@idGameLocal@@UAE?AW4escReply_t@@PAPAVidUserInterface@@@Z 10246200 f   Game_local.obj
 0002:0007c2c0       ?StartMenu@idGameLocal@@UAEPAVidUserInterface@@XZ 102462c0 f   Game_local.obj
 0002:0007c330       ?HandleGuiCommands@idGameLocal@@UAEPBDPBD@Z 10246330 f   Game_local.obj
 0002:0007c3b0       ?GetLevelMap@idGameLocal@@QAEPAVidMapFile@@XZ 102463b0 f   Game_local.obj
 0002:0007c5f0       ?HasPrimitiveData@idMapFile@@QAE_NXZ 102465f0 f i Game_local.obj
 0002:0007c630       ?GetMapName@idGameLocal@@QBEPBDXZ 10246630 f   Game_local.obj
 0002:0007c690       ?CallFrameCommand@idGameLocal@@QAEXPAVidEntity@@PBVfunction_t@@@Z 10246690 f   Game_local.obj
 0002:0007c710       ?CallObjectFrameCommand@idGameLocal@@QAEXPAVidEntity@@PBD@Z 10246710 f   Game_local.obj
 0002:0007c7f0       ?ShowTargets@idGameLocal@@QAEXXZ 102467f0 f   Game_local.obj
 0002:0007d170       ??DidVec4@@QBE?AV0@M@Z     10247170 f i Game_local.obj
 0002:0007d210       ?RunDebugInfo@idGameLocal@@QAEXXZ 10247210 f   Game_local.obj
 0002:0007df70       ?GetVolume@idBounds@@QBEMXZ 10247f70 f i Game_local.obj
 0002:0007e110       ??0predictedPath_s@@QAE@XZ 10248110 f i Game_local.obj
 0002:0007e180       ??0obstaclePath_s@@QAE@XZ  10248180 f i Game_local.obj
 0002:0007e1f0       ?NumAAS@idGameLocal@@QBEHXZ 102481f0 f   Game_local.obj
 0002:0007e250       ?GetAAS@idGameLocal@@QBEPAVidAAS@@H@Z 10248250 f   Game_local.obj
 0002:0007e340       ?GetAAS@idGameLocal@@QBEPAVidAAS@@PBD@Z 10248340 f   Game_local.obj
 0002:0007e460       ?SetAASAreaState@idGameLocal@@QAEXABVidBounds@@H_N@Z 10248460 f   Game_local.obj
 0002:0007e530       ?AddAASObstacle@idGameLocal@@QAEHABVidBounds@@@Z 10248530 f   Game_local.obj
 0002:0007e6a0       ?RemoveAASObstacle@idGameLocal@@QAEXH@Z 102486a0 f   Game_local.obj
 0002:0007e760       ?RemoveAllAASObstacles@idGameLocal@@QAEXXZ 10248760 f   Game_local.obj
 0002:0007e820       ?CheatsOk@idGameLocal@@QAE_N_N@Z 10248820 f   Game_local.obj
 0002:0007e930       ?RegisterEntity@idGameLocal@@QAEXPAVidEntity@@@Z 10248930 f   Game_local.obj
 0002:0007eb60       ?UnregisterEntity@idGameLocal@@QAEXPAVidEntity@@@Z 10248b60 f   Game_local.obj
 0002:0007ecb0       ?SpawnEntityType@idGameLocal@@QAEPAVidEntity@@ABVidTypeInfo@@PBVidDict@@_N@Z 10248cb0 f   Game_local.obj
 0002:0007ee40       ?SpawnEntityDef@idGameLocal@@QAE_NABVidDict@@PAPAVidEntity@@_N@Z 10248e40 f   Game_local.obj
 0002:0007f380       ?FindEntityDef@idGameLocal@@QBEPBVidDeclEntityDef@@PBD_N@Z 10249380 f   Game_local.obj
 0002:0007f460       ?FindEntityDefDict@idGameLocal@@QBEPBVidDict@@PBD_N@Z 10249460 f   Game_local.obj
 0002:0007f4f0       ?InhibitEntitySpawn@idGameLocal@@QAE_NAAVidDict@@@Z 102494f0 f   Game_local.obj
 0002:0007f720       ?SetSkill@idGameLocal@@QAEXH@Z 10249720 f   Game_local.obj
 0002:0007f7b0       ?GameState@idGameLocal@@QBE?AW4gameState_t@@XZ 102497b0 f   Game_local.obj
 0002:0007f7f0       ?SpawnMapEntities@idGameLocal@@QAEXXZ 102497f0 f   Game_local.obj
 0002:0007fb00       ?AddEntityToHash@idGameLocal@@QAEXPBDPAVidEntity@@@Z 10249b00 f   Game_local.obj
 0002:0007fbb0       ?RemoveEntityFromHash@idGameLocal@@QAE_NPBDPAVidEntity@@@Z 10249bb0 f   Game_local.obj
 0002:0007fcd0       ?Remove@idHashIndex@@QAEXHH@Z 10249cd0 f i Game_local.obj
 0002:0007fde0       ?First@idHashIndex@@QBEHH@Z 10249de0 f i Game_local.obj
 0002:0007fe40       ?Next@idHashIndex@@QBEHH@Z 10249e40 f i Game_local.obj
 0002:0007fee0       ?GetTargets@idGameLocal@@QBEHABVidDict@@AAV?$idList@V?$idEntityPtr@VidEntity@@@@@@PBD@Z 10249ee0 f   Game_local.obj
 0002:00080000       ?Icmpn@idStr@@QBEHPBDH@Z   1024a000 f i Game_local.obj
 0002:000800a0       ?GetTraceEntity@idGameLocal@@QBEPAVidEntity@@ABUtrace_s@@@Z 1024a0a0 f   Game_local.obj
 0002:00080150       ?ArgCompletion_EntityName@idGameLocal@@SAXABVidCmdArgs@@P6AXPBD@Z@Z 1024a150 f   Game_local.obj
 0002:00080210       ?FindEntity@idGameLocal@@QBEPAVidEntity@@PBD@Z 1024a210 f   Game_local.obj
 0002:00080310       ?FindEntityUsingDef@idGameLocal@@QBEPAVidEntity@@PAV2@PBD@Z 1024a310 f   Game_local.obj
 0002:00080400       ?FindTraceEntity@idGameLocal@@QBEPAVidEntity@@VidVec3@@0ABVidTypeInfo@@PBV2@@Z 1024a400 f   Game_local.obj
 0002:000805e0       ?EntitiesWithinRadius@idGameLocal@@QBEHVidVec3@@MPAPAVidEntity@@H@Z 1024a5e0 f   Game_local.obj
 0002:00080720       ?KillBox@idGameLocal@@QAEXPAVidEntity@@_N@Z 1024a720 f   Game_local.obj
 0002:000809e0       ?IsRenderModel@idClipModel@@QBE_NXZ 1024a9e0 f i Game_local.obj
 0002:00080a30       ?IsInTeleport@idPlayer@@QAE_NXZ 1024aa30 f i Game_local.obj
 0002:00080a90       ?RequirementMet@idGameLocal@@QAE_NPAVidEntity@@ABVidStr@@H@Z 1024aa90 f   Game_local.obj
 0002:00080b50       ?AlertAI@idGameLocal@@QAEXPAVidEntity@@@Z 1024ab50 f   Game_local.obj
 0002:00080bf0       ?GetAlertEntity@idGameLocal@@QAEPAVidActor@@XZ 1024abf0 f   Game_local.obj
 0002:00080c70       ?RadiusDamage@idGameLocal@@QAEXABVidVec3@@PAVidEntity@@111PBDM@Z 1024ac70 f   Game_local.obj
 0002:000815e0       ?RadiusPush@idGameLocal@@QAEXABVidVec3@@MMPBVidEntity@@1M_N@Z 1024b5e0 f   Game_local.obj
 0002:00081a20       ??0modelTrace_s@@QAE@XZ    1024ba20 f i Game_local.obj
 0002:00081a90       ?RadiusPushClipModel@idGameLocal@@QAEXABVidVec3@@MPBVidClipModel@@@Z 1024ba90 f   Game_local.obj
 0002:000820b0       ??_0idVec3@@QAEAAV0@M@Z    1024c0b0 f i Game_local.obj
 0002:00082130       ?GetTraceModel@idClipModel@@QBEPBVidTraceModel@@XZ 1024c130 f i Game_local.obj
 0002:000821a0       ?ProjectDecal@idGameLocal@@QAEXABVidVec3@@0M_NMPBDM@Z 1024c1a0 f   Game_local.obj
 0002:00082940       ??0idVec2@@QAE@MM@Z        1024c940 f i Game_local.obj
 0002:00082990       ??0idVec5@@QAE@ABVidVec3@@ABVidVec2@@@Z 1024c990 f i Game_local.obj
 0002:00082a30       ??YidWinding@@QAEAAV0@ABVidVec5@@@Z 1024ca30 f i Game_local.obj
 0002:00082a90       ?AddPoint@idWinding@@QAEXABVidVec5@@@Z 1024ca90 f i Game_local.obj
 0002:00082b50       ?BloodSplat@idGameLocal@@QAEXABVidVec3@@0MPBD@Z 1024cb50 f   Game_local.obj
 0002:00082e20       ?SetCamera@idGameLocal@@QAEXPAVidCamera@@@Z 1024ce20 f   Game_local.obj
 0002:00083270       ?GetCamera@idGameLocal@@QBEPAVidCamera@@XZ 1024d270 f   Game_local.obj
 0002:000832b0       ?SkipCinematic@idGameLocal@@QAE_NXZ 1024d2b0 f   Game_local.obj
 0002:000834a0       ?SpreadLocations@idGameLocal@@QAEXXZ 1024d4a0 f   Game_local.obj
 0002:00083790       ?LocationForPoint@idGameLocal@@QAEPAVidLocationEntity@@ABVidVec3@@@Z 1024d790 f   Game_local.obj
 0002:00083870       ?SetPortalState@idGameLocal@@QAEXHH@Z 1024d870 f   Game_local.obj
 0002:00083a10       ?sortSpawnPoints@idGameLocal@@SAHPBX0@Z 1024da10 f   Game_local.obj
 0002:00083ab0       ?RandomizeInitialSpawns@idGameLocal@@QAEXXZ 1024dab0 f   Game_local.obj
 0002:00083e20       ?SelectInitialSpawnPoint@idGameLocal@@QAEPAVidEntity@@PAVidPlayer@@@Z 1024de20 f   Game_local.obj
 0002:00084320       ?UpdateServerInfoFlags@idGameLocal@@QAEXXZ 1024e320 f   Game_local.obj
 0002:00084560       ?SetGlobalMaterial@idGameLocal@@QAEXPBVidMaterial@@@Z 1024e560 f   Game_local.obj
 0002:000845b0       ?GetGlobalMaterial@idGameLocal@@QAEPBVidMaterial@@XZ 1024e5b0 f   Game_local.obj
 0002:000845f0       ?GetSpawnId@idGameLocal@@QBEHPBVidEntity@@@Z 1024e5f0 f   Game_local.obj
 0002:00084650       ?ThrottleUserInfo@idGameLocal@@UAEXXZ 1024e650 f   Game_local.obj
 0002:000846b0       ?SelectTimeGroup@idGameLocal@@UAEXH@Z 1024e6b0 f   Game_local.obj
 0002:000846f0       ?GetTimeGroupTime@idGameLocal@@UAEHH@Z 1024e6f0 f   Game_local.obj
 0002:00084730       ?GetBestGameType@idGameLocal@@UAE?AVidStr@@PBD0@Z 1024e730 f   Game_local.obj
 0002:000847b0       ?NeedRestart@idGameLocal@@QAE_NXZ 1024e7b0 f   Game_local.obj
 0002:000849f0       ?GetClientStats@idGameLocal@@UAEXHPADH@Z 1024e9f0 f   Game_local.obj
 0002:00084a60       ?SwitchTeam@idGameLocal@@UAEXHH@Z 1024ea60 f   Game_local.obj
 0002:00084b20       ?Append@?$idList@VidStr@@@@QAEHABVidStr@@@Z 1024eb20 f i Game_local.obj
 0002:00084c20       ?AddUnique@?$idList@VidStr@@@@QAEHABVidStr@@@Z 1024ec20 f i Game_local.obj
 0002:00084ca0       ??0?$idList@PAVidMapEntity@@@@QAE@H@Z 1024eca0 f i Game_local.obj
 0002:00084d40       ??1?$idList@PAVidMapEntity@@@@QAE@XZ 1024ed40 f i Game_local.obj
 0002:00084d90       ?Num@?$idList@PAVidMapEntity@@@@QBEHXZ 1024ed90 f i Game_local.obj
 0002:00084dd0       ??A?$idList@PAVidMapEntity@@@@QBEABQAVidMapEntity@@H@Z 1024edd0 f i Game_local.obj
 0002:00084e90       ?Resize@?$idList@PAVidMapEntity@@@@QAEXHH@Z 1024ee90 f i Game_local.obj
 0002:00085020       ?DeleteContents@?$idList@PAVidMapEntity@@@@QAEX_N@Z 1024f020 f i Game_local.obj
 0002:00085130       ??0?$idBlockAlloc@UentityNetEvent_s@@$0CA@@@QAE@XZ 1024f130 f i Game_local.obj
 0002:000851a0       ??1?$idBlockAlloc@UentityNetEvent_s@@$0CA@@@QAE@XZ 1024f1a0 f i Game_local.obj
 0002:000851f0       ?Num@?$idLinkList@VidEntity@@@@QBEHXZ 1024f1f0 f i Game_local.obj
 0002:00085270       ?AddToFront@?$idLinkList@VidEntity@@@@QAEXAAV1@@Z 1024f270 f i Game_local.obj
 0002:000852d0       ??0?$idList@PAVidAAS@@@@QAE@H@Z 1024f2d0 f i Game_local.obj
 0002:00085370       ??1?$idList@PAVidAAS@@@@QAE@XZ 1024f370 f i Game_local.obj
 0002:000853c0       ?Clear@?$idList@PAVidAAS@@@@QAEXXZ 1024f3c0 f i Game_local.obj
 0002:00085460       ?Num@?$idList@PAVidAAS@@@@QBEHXZ 1024f460 f i Game_local.obj
 0002:000854a0       ??A?$idList@PAVidAAS@@@@QAEAAPAVidAAS@@H@Z 1024f4a0 f i Game_local.obj
 0002:00085560       ??A?$idList@PAVidAAS@@@@QBEABQAVidAAS@@H@Z 1024f560 f i Game_local.obj
 0002:00085620       ?Append@?$idList@PAVidAAS@@@@QAEHABQAVidAAS@@@Z 1024f620 f i Game_local.obj
 0002:00085710       ?DeleteContents@?$idList@PAVidAAS@@@@QAEX_N@Z 1024f710 f i Game_local.obj
 0002:00085840       ??0?$idEntityPtr@VidActor@@@@QAE@XZ 1024f840 f i Game_local.obj
 0002:00085890       ?Save@?$idEntityPtr@VidActor@@@@QBEXPAVidSaveGame@@@Z 1024f890 f i Game_local.obj
 0002:000858f0       ?Restore@?$idEntityPtr@VidActor@@@@QAEXPAVidRestoreGame@@@Z 1024f8f0 f i Game_local.obj
 0002:00085950       ??4?$idEntityPtr@VidActor@@@@QAEAAV0@PAVidActor@@@Z 1024f950 f i Game_local.obj
 0002:000859d0       ?GetEntity@?$idEntityPtr@VidActor@@@@QBEPAVidActor@@XZ 1024f9d0 f i Game_local.obj
 0002:00085a40       ??0?$idBlockAlloc@UentityState_s@@$0BAA@@@QAE@XZ 1024fa40 f i Game_local.obj
 0002:00085ab0       ??1?$idBlockAlloc@UentityState_s@@$0BAA@@@QAE@XZ 1024fab0 f i Game_local.obj
 0002:00085b00       ??0?$idBlockAlloc@Usnapshot_s@@$0EA@@@QAE@XZ 1024fb00 f i Game_local.obj
 0002:00085b70       ??1?$idBlockAlloc@Usnapshot_s@@$0EA@@@QAE@XZ 1024fb70 f i Game_local.obj
 0002:00085bc0       ??0?$idStaticList@UspawnSpot_t@@$0BAAA@@@QAE@XZ 1024fbc0 f i Game_local.obj
 0002:00085c10       ??1?$idStaticList@UspawnSpot_t@@$0BAAA@@@QAE@XZ 1024fc10 f i Game_local.obj
 0002:00085c50       ?Clear@?$idStaticList@UspawnSpot_t@@$0BAAA@@@QAEXXZ 1024fc50 f i Game_local.obj
 0002:00085c90       ?Num@?$idStaticList@UspawnSpot_t@@$0BAAA@@@QBEHXZ 1024fc90 f i Game_local.obj
 0002:00085cd0       ??A?$idStaticList@UspawnSpot_t@@$0BAAA@@@QAEAAUspawnSpot_t@@H@Z 1024fcd0 f i Game_local.obj
 0002:00085d90       ?Ptr@?$idStaticList@UspawnSpot_t@@$0BAAA@@@QAEPAUspawnSpot_t@@XZ 1024fd90 f i Game_local.obj
 0002:00085dd0       ?Append@?$idStaticList@UspawnSpot_t@@$0BAAA@@@QAEHABUspawnSpot_t@@@Z 1024fdd0 f i Game_local.obj
 0002:00085ea0       ??0?$idStaticList@PAVidEntity@@$0BAAA@@@QAE@XZ 1024fea0 f i Game_local.obj
 0002:00085ef0       ??1?$idStaticList@PAVidEntity@@$0BAAA@@@QAE@XZ 1024fef0 f i Game_local.obj
 0002:00085f30       ?Clear@?$idStaticList@PAVidEntity@@$0BAAA@@@QAEXXZ 1024ff30 f i Game_local.obj
 0002:00085f70       ?Num@?$idStaticList@PAVidEntity@@$0BAAA@@@QBEHXZ 1024ff70 f i Game_local.obj
 0002:00085fb0       ??A?$idStaticList@PAVidEntity@@$0BAAA@@@QAEAAPAVidEntity@@H@Z 1024ffb0 f i Game_local.obj
 0002:00086070       ?Append@?$idStaticList@PAVidEntity@@$0BAAA@@@QAEHABQAVidEntity@@@Z 10250070 f i Game_local.obj
 0002:00086130       ?Alloc@?$idList@V?$idEntityPtr@VidEntity@@@@@@QAEAAV?$idEntityPtr@VidEntity@@@@XZ 10250130 f i Game_local.obj
 0002:000861f0       ??1?$idList@UactiveSmokeStage_t@@@@QAE@XZ 102501f0 f i Game_local.obj
 0002:00086240       ??1?$idList@UselectedTypeInfo_s@@@@QAE@XZ 10250240 f i Game_local.obj
 0002:00086290       ??B?$idScriptVariable@H$0O@H@@QBEHXZ 10250290 f i Game_local.obj
 0002:00086320       ??0?$idList@PAVidThread@@@@QAE@H@Z 10250320 f i Game_local.obj
 0002:000863c0       ??1?$idList@PAVidThread@@@@QAE@XZ 102503c0 f i Game_local.obj
 0002:00086410       ?Num@?$idList@PAVidThread@@@@QBEHXZ 10250410 f i Game_local.obj
 0002:00086450       ??4?$idList@PAVidThread@@@@QAEAAV0@ABV0@@Z 10250450 f i Game_local.obj
 0002:00086550       ??A?$idList@PAVidThread@@@@QAEAAPAVidThread@@H@Z 10250550 f i Game_local.obj
 0002:00086610       ??$idDeclAllocator@VidDeclModelDef@@@@YAPAVidDecl@@XZ 10250610 f i Game_local.obj
 0002:000866f0       ??$idDeclAllocator@VidDecl@@@@YAPAVidDecl@@XZ 102506f0 f i Game_local.obj
 0002:000867c0       ??0idDecl@@QAE@XZ          102507c0 f i Game_local.obj
 0002:00086810       ?SetDefaultText@idDecl@@UAE_NXZ 10250810 f i Game_local.obj
 0002:00086880       ?DefaultDefinition@idDecl@@UBEPBDXZ 10250880 f i Game_local.obj
 0002:000868f0       ?Parse@idDecl@@UAE_NPBDH@Z 102508f0 f i Game_local.obj
 0002:00086970       ?FreeData@idDecl@@UAEXXZ   10250970 f i Game_local.obj
 0002:000869e0       ?Size@idDecl@@UBEIXZ       102509e0 f i Game_local.obj
 0002:00086a50       ?List@idDecl@@UBEXXZ       10250a50 f i Game_local.obj
 0002:00086ac0       ?Print@idDecl@@UBEXXZ      10250ac0 f i Game_local.obj
 0002:00086b30       ??_GidDecl@@UAEPAXI@Z      10250b30 f i Game_local.obj
 0002:00086b30       ??_EidDecl@@UAEPAXI@Z      10250b30 f i Game_local.obj
 0002:00086ba0       ??1idDecl@@UAE@XZ          10250ba0 f i Game_local.obj
 0002:00086be0       ??$idListDecls_f@$04@@YAXABVidCmdArgs@@@Z 10250be0 f i Game_local.obj
 0002:00086c50       ??$ArgCompletion_Decl@$04@idCmdSystem@@SAXABVidCmdArgs@@P6AXPBD@Z@Z 10250c50 f i Game_local.obj
 0002:00086cc0       ??$idPrintDecls_f@$04@@YAXABVidCmdArgs@@@Z 10250cc0 f i Game_local.obj
 0002:00086d30       ??_GidMapEntity@@QAEPAXI@Z 10250d30 f i Game_local.obj
 0002:00086da0       ??1idMapEntity@@QAE@XZ     10250da0 f i Game_local.obj
 0002:00086e50       ??1?$idList@PAVidMapPrimitive@@@@QAE@XZ 10250e50 f i Game_local.obj
 0002:00086ea0       ?DeleteContents@?$idList@PAVidMapPrimitive@@@@QAEX_N@Z 10250ea0 f i Game_local.obj
 0002:00086fd0       ?FindIndex@?$idList@VidStr@@@@QBEHABVidStr@@@Z 10250fd0 f i Game_local.obj
 0002:00087070       ?Clear@?$idList@PAVidMapPrimitive@@@@QAEXXZ 10251070 f i Game_local.obj
 0002:00087110       ?Clear@?$idList@PAVidMapEntity@@@@QAEXXZ 10251110 f i Game_local.obj
 0002:000871b0       ?Shutdown@?$idBlockAlloc@UentityNetEvent_s@@$0CA@@@QAEXXZ 102511b0 f i Game_local.obj
 0002:00087270       ?InsertAfter@?$idLinkList@VidEntity@@@@QAEXAAV1@@Z 10251270 f i Game_local.obj
 0002:00087310       ?Resize@?$idList@PAVidAAS@@@@QAEXH@Z 10251310 f i Game_local.obj
 0002:00087480       ?Shutdown@?$idBlockAlloc@UentityState_s@@$0BAA@@@QAEXXZ 10251480 f i Game_local.obj
 0002:00087570       ?Shutdown@?$idBlockAlloc@Usnapshot_s@@$0EA@@@QAEXXZ 10251570 f i Game_local.obj
 0002:00087630       ?Clear@?$idList@UactiveSmokeStage_t@@@@QAEXXZ 10251630 f i Game_local.obj
 0002:000876d0       ?Clear@?$idList@UselectedTypeInfo_s@@@@QAEXXZ 102516d0 f i Game_local.obj
 0002:000877a0       ?Clear@?$idList@PAVidThread@@@@QAEXXZ 102517a0 f i Game_local.obj
 0002:00087840       ??_Gblock_s@?$idBlockAlloc@UentityState_s@@$0BAA@@@QAEPAXI@Z 10251840 f i Game_local.obj
 0002:000878b0       ??_EselectedTypeInfo_s@@QAEPAXI@Z 102518b0 f i Game_local.obj
 0002:00087970       ??1block_s@?$idBlockAlloc@UentityState_s@@$0BAA@@@QAE@XZ 10251970 f i Game_local.obj
 0002:000879e0       ??1selectedTypeInfo_s@@QAE@XZ 102519e0 f i Game_local.obj
 0002:00087a40       ??1element_s@?$idBlockAlloc@UentityState_s@@$0BAA@@@QAE@XZ 10251a40 f i Game_local.obj
 0002:00087aa0       ??1entityState_s@@QAE@XZ   10251aa0 f i Game_local.obj
 0002:00087b00       ??0idCVar@@QAE@PBD0H0P6AXABVidCmdArgs@@P6AX0@Z@Z@Z 10251b00 f i Game_local.obj
 0002:00087bb0       ?ArgCompletion_Boolean@idCmdSystem@@SAXABVidCmdArgs@@P6AXPBD@Z@Z 10251bb0 f i Game_local.obj
 0002:00087c60       ?InternalSetString@idCVar@@EAEXPBD@Z 10251c60 f i Game_local.obj
 0002:00087ca0       ?InternalSetBool@idCVar@@EAEX_N@Z 10251ca0 f i Game_local.obj
 0002:00087ce0       ?InternalSetInteger@idCVar@@EAEXH@Z 10251ce0 f i Game_local.obj
 0002:00087d20       ?InternalSetFloat@idCVar@@EAEXM@Z 10251d20 f i Game_local.obj
 0002:00087d60       ??_EidCVar@@UAEPAXI@Z      10251d60 f i Game_local.obj
 0002:00087d60       ??_GidCVar@@UAEPAXI@Z      10251d60 f i Game_local.obj
 0002:00087dd0       ??1idCVar@@UAE@XZ          10251dd0 f i Game_local.obj
 0002:00087e10       ?Init@idCVar@@AAEXPBD0H0MMPAPBDP6AXABVidCmdArgs@@P6AX0@Z@Z@Z 10251e10 f i Game_local.obj
 0002:00087f40       ?InitAsyncNetwork@idGameLocal@@QAEXXZ 10251f40 f   Game_network.obj
 0002:00088110       ?ShutdownAsyncNetwork@idGameLocal@@QAEXXZ 10252110 f   Game_network.obj
 0002:00088200       ?InitLocalClient@idGameLocal@@QAEXH@Z 10252200 f   Game_network.obj
 0002:00088290       ?InitClientDeclRemap@idGameLocal@@QAEXH@Z 10252290 f   Game_network.obj
 0002:00088460       ?IsImplicit@idDecl@@QBE_NXZ 10252460 f i Game_network.obj
 0002:000884d0       ?ServerSendDeclRemapToClient@idGameLocal@@QAEXHW4declType_t@@H@Z 102524d0 f   Game_network.obj
 0002:00088800       ?ServerRemapDecl@idGameLocal@@QAEHHW4declType_t@@H@Z 10252800 f   Game_network.obj
 0002:000888c0       ?ClientRemapDecl@idGameLocal@@QAEHW4declType_t@@H@Z 102528c0 f   Game_network.obj
 0002:00088ae0       ?ServerAllowClient@idGameLocal@@UAE?AW4allowReply_t@@HPBD00QAD@Z 10252ae0 f   Game_network.obj
 0002:00088d70       ?IsPureReady@idMultiplayerGame@@QBE_NXZ 10252d70 f i Game_network.obj
 0002:00088db0       ?ServerClientConnect@idGameLocal@@UAEXH@Z 10252db0 f   Game_network.obj
 0002:00088ef0       ?ServerClientBegin@idGameLocal@@UAEXH@Z 10252ef0 f   Game_network.obj
 0002:00089100       ?ServerClientDisconnect@idGameLocal@@UAEXH@Z 10253100 f   Game_network.obj
 0002:000894c0       ?ServerWriteInitialReliableMessages@idGameLocal@@UAEXH@Z 102534c0 f   Game_network.obj
 0002:000898a0       ?Start@idEventQueue@@QAEPAUentityNetEvent_s@@XZ 102538a0 f i Game_network.obj
 0002:000898e0       ?SaveEntityNetworkEvent@idGameLocal@@QAEXPBVidEntity@@HPBVidBitMsg@@@Z 102538e0 f   Game_network.obj
 0002:000899e0       ?FreeSnapshotsOlderThanSequence@idGameLocal@@QAEXHH@Z 102539e0 f   Game_network.obj
 0002:00089b30       ?ApplySnapshot@idGameLocal@@QAE_NHH@Z 10253b30 f   Game_network.obj
 0002:00089d10       ?WriteGameStateToSnapshot@idGameLocal@@QBEXAAVidBitMsgDelta@@@Z 10253d10 f   Game_network.obj
 0002:00089db0       ?WriteFloat@idBitMsgDelta@@QAEXM@Z 10253db0 f i Game_network.obj
 0002:00089e10       ?ReadGameStateFromSnapshot@idGameLocal@@QAEXABVidBitMsgDelta@@@Z 10253e10 f   Game_network.obj
 0002:00089eb0       ?ReadFloat@idBitMsgDelta@@QBEMXZ 10253eb0 f i Game_network.obj
 0002:00089f10       ?ServerWriteSnapshot@idGameLocal@@UAEXHHAAVidBitMsg@@PAEH@Z 10253f10 f   Game_network.obj
 0002:0008a800       ?SaveWriteState@idBitMsg@@QBEXAAH0@Z 10254800 f i Game_network.obj
 0002:0008a860       ?RestoreWriteState@idBitMsg@@QAEXHH@Z 10254860 f i Game_network.obj
 0002:0008a900       ?WriteDeltaLong@idBitMsg@@QAEXHH@Z 10254900 f i Game_network.obj
 0002:0008a960       ?BeginReading@idBitMsg@@QBEXXZ 10254960 f i Game_network.obj
 0002:0008a9b0       ??1idBitMsgDelta@@QAE@XZ   102549b0 f i Game_network.obj
 0002:0008a9f0       ??0idBitMsgDelta@@QAE@XZ   102549f0 f i Game_network.obj
 0002:0008aa70       ?Init@idBitMsgDelta@@QAEXPBVidBitMsg@@PAV2@1@Z 10254a70 f i Game_network.obj
 0002:0008aae0       ?HasChanged@idBitMsgDelta@@QBE_NXZ 10254ae0 f i Game_network.obj
 0002:0008ab20       ?GetTypeNumBits@idClass@@SAHXZ 10254b20 f i Game_network.obj
 0002:0008ab60       ?GetPlayerPhysics@idPlayer@@QAEPAVidPhysics@@XZ 10254b60 f i Game_network.obj
 0002:0008aba0       ?ServerApplySnapshot@idGameLocal@@UAE_NHH@Z 10254ba0 f   Game_network.obj
 0002:0008ac00       ?NetworkEventWarning@idGameLocal@@QAAXPBUentityNetEvent_s@@PBDZZ 10254c00 f   Game_network.obj
 0002:0008adc0       ?ServerProcessEntityNetworkEventQueue@idGameLocal@@QAEXXZ 10254dc0 f   Game_network.obj
 0002:0008b070       ?SetSize@idBitMsg@@QAEXH@Z 10255070 f i Game_network.obj
 0002:0008b0e0       ?ServerSendChatMessage@idGameLocal@@QAEXHPBD0@Z 102550e0 f   Game_network.obj
 0002:0008b290       ?ServerProcessReliableMessage@idGameLocal@@UAEXHABVidBitMsg@@@Z 10255290 f   Game_network.obj
 0002:0008b660       ?ReadByteAlign@idBitMsg@@QBEXXZ 10255660 f i Game_network.obj
 0002:0008b6b0       ?ClientShowSnapshot@idGameLocal@@QBEXH@Z 102556b0 f   Game_network.obj
 0002:0008ba40       ?GetNumBitsWritten@idBitMsg@@QBEHXZ 10255a40 f i Game_network.obj
 0002:0008bac0       ?UpdateLagometer@idGameLocal@@QAEXHH@Z 10255ac0 f   Game_network.obj
 0002:0008bdd0       ?Rint@idMath@@SAMM@Z       10255dd0 f i Game_network.obj
 0002:0008be30       ?ClientReadSnapshot@idGameLocal@@UAEXHHHHHHABVidBitMsg@@@Z 10255e30 f   Game_network.obj
 0002:0008cfa0       ??8idVec3@@QBE_NABV0@@Z    10256fa0 f i Game_network.obj
 0002:0008d000       ?GetNumBitsRead@idBitMsg@@QBEHXZ 10257000 f i Game_network.obj
 0002:0008d080       ?ReadDeltaLong@idBitMsg@@QBEHH@Z 10257080 f i Game_network.obj
 0002:0008d0e0       ?Init@idBitMsgDelta@@QAEXPBVidBitMsg@@PAV2@0@Z 102570e0 f i Game_network.obj
 0002:0008d150       ?SetBool@idCVar@@QAEX_N@Z  10257150 f i Game_network.obj
 0002:0008d1c0       ?SetSelfSmooth@idPlayer@@QAEX_N@Z 102571c0 f i Game_network.obj
 0002:0008d210       ?ClientApplySnapshot@idGameLocal@@UAE_NHH@Z 10257210 f   Game_network.obj
 0002:0008d270       ?ClientProcessEntityNetworkEventQueue@idGameLocal@@QAEXXZ 10257270 f   Game_network.obj
 0002:0008d530       ?ClientProcessReliableMessage@idGameLocal@@UAEXHABVidBitMsg@@@Z 10257530 f   Game_network.obj
 0002:0008e060       ?ClientPrediction@idGameLocal@@UAE?AUgameReturn_t@@HPBVusercmd_t@@@Z 10258060 f   Game_network.obj
 0002:0008e330       ?Tokenize@idGameLocal@@QAEXAAV?$idList@VidStr@@@@PBD@Z 10258330 f   Game_network.obj
 0002:0008e510       ?ToLower@idStr@@SAPADPAD@Z 10258510 f i Game_network.obj
 0002:0008e5c0       ?CharIsUpper@idStr@@SA_NH@Z 102585c0 f i Game_network.obj
 0002:0008e640       ?DownloadRequest@idGameLocal@@UAE_NPBD00QAD@Z 10258640 f   Game_network.obj
 0002:0008ebe0       ??AidStr@@QAEAADH@Z        10258be0 f i Game_network.obj
 0002:0008ec80       ?Alloc@idEventQueue@@QAEPAUentityNetEvent_s@@XZ 10258c80 f   Game_network.obj
 0002:0008ed00       ?Free@idEventQueue@@QAEXPAUentityNetEvent_s@@@Z 10258d00 f   Game_network.obj
 0002:0008edb0       ?Shutdown@idEventQueue@@QAEXXZ 10258db0 f   Game_network.obj
 0002:0008ee10       ?Init@idEventQueue@@QAEXXZ 10258e10 f   Game_network.obj
 0002:0008ee60       ?Dequeue@idEventQueue@@QAEPAUentityNetEvent_s@@XZ 10258e60 f   Game_network.obj
 0002:0008ef10       ?RemoveLast@idEventQueue@@QAEPAUentityNetEvent_s@@XZ 10258f10 f   Game_network.obj
 0002:0008efc0       ?Enqueue@idEventQueue@@QAEXPAUentityNetEvent_s@@W4outOfOrderBehaviour_t@1@@Z 10258fc0 f   Game_network.obj
 0002:0008f1e0       ?Alloc@?$idBlockAlloc@UentityNetEvent_s@@$0CA@@@QAEPAUentityNetEvent_s@@XZ 102591e0 f i Game_network.obj
 0002:0008f320       ?Free@?$idBlockAlloc@UentityNetEvent_s@@$0CA@@@QAEXPAUentityNetEvent_s@@@Z 10259320 f i Game_network.obj
 0002:0008f390       ?SetSpawnId@?$idEntityPtr@VidEntity@@@@QAE_NH@Z 10259390 f i Game_network.obj
 0002:0008f410       ?Alloc@?$idBlockAlloc@UentityState_s@@$0BAA@@@QAEPAUentityState_s@@XZ 10259410 f i Game_network.obj
 0002:0008f5d0       ?Free@?$idBlockAlloc@UentityState_s@@$0BAA@@@QAEXPAUentityState_s@@@Z 102595d0 f i Game_network.obj
 0002:0008f640       ?Alloc@?$idBlockAlloc@Usnapshot_s@@$0EA@@@QAEPAUsnapshot_s@@XZ 10259640 f i Game_network.obj
 0002:0008f780       ?Free@?$idBlockAlloc@Usnapshot_s@@$0EA@@@QAEXPAUsnapshot_s@@@Z 10259780 f i Game_network.obj
 0002:0008f7f0       ??$Max@H@@YAHHH@Z          102597f0 f i Game_network.obj
 0002:0008f850       ??$Min@H@@YAHHH@Z          10259850 f i Game_network.obj
 0002:0008f8b0       ??0block_s@?$idBlockAlloc@UentityState_s@@$0BAA@@@QAE@XZ 102598b0 f i Game_network.obj
 0002:0008f920       ??0element_s@?$idBlockAlloc@UentityState_s@@$0BAA@@@QAE@XZ 10259920 f i Game_network.obj
 0002:0008f980       ??0entityState_s@@QAE@XZ   10259980 f i Game_network.obj
 0002:0008f9e0       ??0idCVar@@QAE@PBD0H0MMP6AXABVidCmdArgs@@P6AX0@Z@Z@Z 102599e0 f i Game_network.obj
 0002:0008fa70       ??$ArgCompletion_Integer@$0A@$02@idCmdSystem@@SAXABVidCmdArgs@@P6AXPBD@Z@Z 10259a70 f i Game_network.obj
 0002:0008fb10       ?CreateInstance@idCursor3D@@SAPAVidClass@@XZ 10259b10 f   GameEdit.obj
 0002:0008fc40       ?GetType@idCursor3D@@UBEPAVidTypeInfo@@XZ 10259c40 f   GameEdit.obj
 0002:0008fc80       ??0idCursor3D@@QAE@XZ      10259c80 f   GameEdit.obj
 0002:0008fd50       ??_GidCursor3D@@UAEPAXI@Z  10259d50 f i GameEdit.obj
 0002:0008fd50       ??_EidCursor3D@@UAEPAXI@Z  10259d50 f i GameEdit.obj
 0002:0008fdc0       ??1idCursor3D@@UAE@XZ      10259dc0 f   GameEdit.obj
 0002:0008fe70       ?Spawn@idCursor3D@@QAEXXZ  10259e70 f   GameEdit.obj
 0002:0008feb0       ?Present@idCursor3D@@UAEXXZ 10259eb0 f   GameEdit.obj
 0002:00090080       ?Think@idCursor3D@@UAEXXZ  1025a080 f   GameEdit.obj
 0002:00090120       ??0idDragEntity@@QAE@XZ    1025a120 f   GameEdit.obj
 0002:00090200       ??1idDragEntity@@QAE@XZ    1025a200 f   GameEdit.obj
 0002:00090320       ?Clear@idDragEntity@@QAEXXZ 1025a320 f   GameEdit.obj
 0002:000903d0       ?StopDrag@idDragEntity@@AAEXXZ 1025a3d0 f   GameEdit.obj
 0002:00090440       ?Update@idDragEntity@@QAEXPAVidPlayer@@@Z 1025a440 f   GameEdit.obj
 0002:00091100       ??0idBox@@QAE@ABVidBounds@@ABVidVec3@@ABVidMat3@@@Z 1025b100 f i GameEdit.obj
 0002:00091240       ?IsActiveAF@idAFEntity_Base@@QBE_NXZ 1025b240 f i GameEdit.obj
 0002:000912a0       ?SetSelected@idDragEntity@@QAEXPAVidEntity@@@Z 1025b2a0 f   GameEdit.obj
 0002:00091310       ?DeleteSelected@idDragEntity@@QAEXXZ 1025b310 f   GameEdit.obj
 0002:000913e0       ?BindSelected@idDragEntity@@QAEXXZ 1025b3e0 f   GameEdit.obj
 0002:000919b0       ?UnbindSelected@idDragEntity@@QAEXXZ 1025b9b0 f   GameEdit.obj
 0002:00091b10       ??0idEditEntities@@QAE@XZ  1025bb10 f   GameEdit.obj
 0002:00091bd0       ?SelectEntity@idEditEntities@@QAE_NABVidVec3@@0PBVidEntity@@@Z 1025bbd0 f   GameEdit.obj
 0002:00091e30       ?AddSelectedEntity@idEditEntities@@QAEXPAVidEntity@@@Z 1025be30 f   GameEdit.obj
 0002:00091eb0       ?RemoveSelectedEntity@idEditEntities@@QAEXPAVidEntity@@@Z 1025beb0 f   GameEdit.obj
 0002:00091f30       ?ClearSelectedEntities@idEditEntities@@QAEXXZ 1025bf30 f   GameEdit.obj
 0002:00092000       ?EntityIsSelectable@idEditEntities@@QAE_NPAVidEntity@@PAVidVec4@@PAVidStr@@@Z 1025c000 f   GameEdit.obj
 0002:00092200       ?DisplayEntities@idEditEntities@@QAEXXZ 1025c200 f   GameEdit.obj
 0002:000931e0       ?Set@idVec4@@QAEXMMMM@Z    1025d1e0 f i GameEdit.obj
 0002:00093250       ?ContainsPoint@idBounds@@QBE_NABVidVec3@@@Z 1025d250 f i GameEdit.obj
 0002:000933e0       ??0selectedTypeInfo_s@@QAE@XZ 1025d3e0 f i GameEdit.obj
 0002:00093440       ?GetSelectedEntities@idGameEdit@@UAEHQAPAVidEntity@@H@Z 1025d440 f   GameEdit.obj
 0002:00093510       ?TriggerSelected@idGameEdit@@UAEXXZ 1025d510 f   GameEdit.obj
 0002:000935d0       ?ClearEntitySelection@idGameEdit@@UAEXXZ 1025d5d0 f   GameEdit.obj
 0002:00093670       ?AddSelectedEntity@idGameEdit@@UAEXPAVidEntity@@@Z 1025d670 f   GameEdit.obj
 0002:000936e0       ?FindEntityDefDict@idGameEdit@@UBEPBVidDict@@PBD_N@Z 1025d6e0 f   GameEdit.obj
 0002:00093740       ?SpawnEntityDef@idGameEdit@@UAEXABVidDict@@PAPAVidEntity@@@Z 1025d740 f   GameEdit.obj
 0002:000937a0       ?FindEntity@idGameEdit@@UBEPAVidEntity@@PBD@Z 1025d7a0 f   GameEdit.obj
 0002:00093800       ?GetUniqueEntityName@idGameEdit@@UBEPBDPBD@Z 1025d800 f   GameEdit.obj
 0002:000938e0       ?EntityGetOrigin@idGameEdit@@UBEXPAVidEntity@@AAVidVec3@@@Z 1025d8e0 f   GameEdit.obj
 0002:00093980       ?EntityGetAxis@idGameEdit@@UBEXPAVidEntity@@AAVidMat3@@@Z 1025d980 f   GameEdit.obj
 0002:00093a20       ?EntitySetOrigin@idGameEdit@@UAEXPAVidEntity@@ABVidVec3@@@Z 1025da20 f   GameEdit.obj
 0002:00093a80       ?EntitySetAxis@idGameEdit@@UAEXPAVidEntity@@ABVidMat3@@@Z 1025da80 f   GameEdit.obj
 0002:00093ae0       ?EntitySetColor@idGameEdit@@UAEXPAVidEntity@@VidVec3@@@Z 1025dae0 f   GameEdit.obj
 0002:00093b50       ?EntityTranslate@idGameEdit@@UAEXPAVidEntity@@ABVidVec3@@@Z 1025db50 f   GameEdit.obj
 0002:00093be0       ?EntityGetSpawnArgs@idGameEdit@@UBEPBVidDict@@PAVidEntity@@@Z 1025dbe0 f   GameEdit.obj
 0002:00093c30       ?EntityUpdateChangeableSpawnArgs@idGameEdit@@UAEXPAVidEntity@@PBVidDict@@@Z 1025dc30 f   GameEdit.obj
 0002:00093ca0       ?EntityChangeSpawnArgs@idGameEdit@@UAEXPAVidEntity@@PBVidDict@@@Z 1025dca0 f   GameEdit.obj
 0002:00093db0       ?EntityUpdateVisuals@idGameEdit@@UAEXPAVidEntity@@@Z 1025ddb0 f   GameEdit.obj
 0002:00093e10       ?EntitySetModel@idGameEdit@@UAEXPAVidEntity@@PBD@Z 1025de10 f   GameEdit.obj
 0002:00093ea0       ?EntityStopSound@idGameEdit@@UAEXPAVidEntity@@@Z 1025dea0 f   GameEdit.obj
 0002:00093f00       ?EntityDelete@idGameEdit@@UAEXPAVidEntity@@@Z 1025df00 f   GameEdit.obj
 0002:00093fb0       ?PlayerIsValid@idGameEdit@@UBE_NXZ 1025dfb0 f   GameEdit.obj
 0002:00094010       ?PlayerGetOrigin@idGameEdit@@UBEXAAVidVec3@@@Z 1025e010 f   GameEdit.obj
 0002:000940b0       ?PlayerGetAxis@idGameEdit@@UBEXAAVidMat3@@@Z 1025e0b0 f   GameEdit.obj
 0002:00094150       ?PlayerGetViewAngles@idGameEdit@@UBEXAAVidAngles@@@Z 1025e150 f   GameEdit.obj
 0002:000941c0       ?PlayerGetEyePosition@idGameEdit@@UBEXAAVidVec3@@@Z 1025e1c0 f   GameEdit.obj
 0002:00094230       ?MapGetEntityDict@idGameEdit@@UBEPBVidDict@@PBD@Z 1025e230 f   GameEdit.obj
 0002:000942d0       ?MapSave@idGameEdit@@UBEXPBD@Z 1025e2d0 f   GameEdit.obj
 0002:00094380       ?MapSetEntityKeyVal@idGameEdit@@UBEXPBD00@Z 1025e380 f   GameEdit.obj
 0002:00094430       ?MapCopyDictToEntity@idGameEdit@@UBEXPBDPBVidDict@@@Z 1025e430 f   GameEdit.obj
 0002:00094550       ?MapGetUniqueMatchingKeyVals@idGameEdit@@UBEHPBDQAPBDH@Z 1025e550 f   GameEdit.obj
 0002:00094650       ?MapAddEntity@idGameEdit@@UBEXPBVidDict@@@Z 1025e650 f   GameEdit.obj
 0002:00094770       ??0idMapEntity@@QAE@XZ     1025e770 f i GameEdit.obj
 0002:00094820       ?SetHashSize@idDict@@QAEXH@Z 1025e820 f i GameEdit.obj
 0002:00094890       ?MapRemoveEntity@idGameEdit@@UBEXPBD@Z 1025e890 f   GameEdit.obj
 0002:00094920       ?MapGetEntitiesMatchingClassWithString@idGameEdit@@UBEHPBD0QAPBDH@Z 1025e920 f   GameEdit.obj
 0002:00094b70       ?MapEntityTranslate@idGameEdit@@UBEXPBDABVidVec3@@@Z 1025eb70 f   GameEdit.obj
 0002:00094c80       ?SetVector@idDict@@QAEXPBDABVidVec3@@@Z 1025ec80 f i GameEdit.obj
 0002:00094cf0       ??0?$idList@PAVidMapPrimitive@@@@QAE@H@Z 1025ecf0 f i GameEdit.obj
 0002:00094d90       ??0?$idList@UselectedTypeInfo_s@@@@QAE@H@Z 1025ed90 f i GameEdit.obj
 0002:00094e30       ?Num@?$idList@UselectedTypeInfo_s@@@@QBEHXZ 1025ee30 f i GameEdit.obj
 0002:00094e70       ??A?$idList@UselectedTypeInfo_s@@@@QAEAAUselectedTypeInfo_s@@H@Z 1025ee70 f i GameEdit.obj
 0002:00094f30       ?Append@?$idList@UselectedTypeInfo_s@@@@QAEHABUselectedTypeInfo_s@@@Z 1025ef30 f i GameEdit.obj
 0002:00095030       ?AddUnique@?$idList@PAVidEntity@@@@QAEHABQAVidEntity@@@Z 1025f030 f i GameEdit.obj
 0002:000950b0       ?Find@?$idList@PAVidEntity@@@@QBEPAPAVidEntity@@ABQAV2@@Z 1025f0b0 f i GameEdit.obj
 0002:00095130       ?Remove@?$idList@PAVidEntity@@@@QAE_NABQAVidEntity@@@Z 1025f130 f i GameEdit.obj
 0002:000951b0       ??4selectedTypeInfo_s@@QAEAAU0@ABU0@@Z 1025f1b0 f i GameEdit.obj
 0002:00095220       ?Resize@?$idList@UselectedTypeInfo_s@@@@QAEXH@Z 1025f220 f i GameEdit.obj
 0002:00095480       ?FindIndex@?$idList@PAVidEntity@@@@QBEHABQAVidEntity@@@Z 1025f480 f i GameEdit.obj
 0002:00095500       ?RemoveIndex@?$idList@PAVidEntity@@@@QAE_NH@Z 1025f500 f i GameEdit.obj
 0002:00095650       ??0idGameEdit@@QAE@XZ      1025f650 f i GameEdit.obj
 0002:000956a0       ??_EidGameEdit@@UAEPAXI@Z  1025f6a0 f i GameEdit.obj
 0002:000956a0       ??_GidGameEdit@@UAEPAXI@Z  1025f6a0 f i GameEdit.obj
 0002:00095710       ??1idGameEdit@@UAE@XZ      1025f710 f i GameEdit.obj
 0002:00095750       ??0idIK@@QAE@XZ            1025f750 f   IK.obj
 0002:00095800       ??_GidIK@@UAEPAXI@Z        1025f800 f i IK.obj
 0002:00095800       ??_EidIK@@UAEPAXI@Z        1025f800 f i IK.obj
 0002:00095870       ??1idIK@@UAE@XZ            1025f870 f   IK.obj
 0002:000958b0       ?Save@idIK@@QBEXPAVidSaveGame@@@Z 1025f8b0 f   IK.obj
 0002:000959c0       ?Restore@idIK@@QAEXPAVidRestoreGame@@@Z 1025f9c0 f   IK.obj
 0002:00095c80       ?IsInitialized@idIK@@QBE_NXZ 1025fc80 f   IK.obj
 0002:00095d10       ?Init@idIK@@UAE_NPAVidEntity@@PBDABVidVec3@@@Z 1025fd10 f   IK.obj
 0002:00095ff0       ?Evaluate@idIK@@UAEXXZ     1025fff0 f   IK.obj
 0002:00096030       ?ClearJointMods@idIK@@UAEXXZ 10260030 f   IK.obj
 0002:00096070       ?SolveTwoBones@idIK@@QAE_NABVidVec3@@00MMAAV2@@Z 10260070 f   IK.obj
 0002:00096360       ?GetBoneAxis@idIK@@QAEMABVidVec3@@00AAVidMat3@@@Z 10260360 f   IK.obj
 0002:000964c0       ?Cross@idVec3@@QAEAAV1@ABV1@0@Z 102604c0 f i IK.obj
 0002:00096570       ??0idIK_Walk@@QAE@XZ       10260570 f   IK.obj
 0002:00096910       ??_EidIK_Walk@@UAEPAXI@Z   10260910 f i IK.obj
 0002:00096910       ??_GidIK_Walk@@UAEPAXI@Z   10260910 f i IK.obj
 0002:00096980       ??1idIK_Walk@@UAE@XZ       10260980 f   IK.obj
 0002:00096a70       ?Save@idIK_Walk@@QBEXPAVidSaveGame@@@Z 10260a70 f   IK.obj
 0002:00096f50       ?Restore@idIK_Walk@@QAEXPAVidRestoreGame@@@Z 10260f50 f   IK.obj
 0002:00097420       ?Init@idIK_Walk@@UAE_NPAVidEntity@@PBDABVidVec3@@@Z 10261420 f   IK.obj
 0002:00098230       ?Evaluate@idIK_Walk@@UAEXXZ 10262230 f   IK.obj
 0002:00099b50       ?AngleNormalize180@idMath@@SAMM@Z 10263b50 f i IK.obj
 0002:00099bd0       ?AngleNormalize360@idMath@@SAMM@Z 10263bd0 f i IK.obj
 0002:00099c70       ?floor@@YAMM@Z             10263c70 f i IK.obj
 0002:00099cc0       ??YidWinding@@QAEAAV0@ABVidVec3@@@Z 10263cc0 f i IK.obj
 0002:00099d20       ?ClearJointMods@idIK_Walk@@UAEXXZ 10263d20 f   IK.obj
 0002:00099e70       ?EnableAll@idIK_Walk@@QAEXXZ 10263e70 f   IK.obj
 0002:00099ed0       ?DisableAll@idIK_Walk@@QAEXXZ 10263ed0 f   IK.obj
 0002:00099f20       ?EnableLeg@idIK_Walk@@QAEXH@Z 10263f20 f   IK.obj
 0002:00099f80       ?DisableLeg@idIK_Walk@@QAEXH@Z 10263f80 f   IK.obj
 0002:00099fe0       ??0idIK_Reach@@QAE@XZ      10263fe0 f   IK.obj
 0002:0009a200       ??_GidIK_Reach@@UAEPAXI@Z  10264200 f i IK.obj
 0002:0009a200       ??_EidIK_Reach@@UAEPAXI@Z  10264200 f i IK.obj
 0002:0009a270       ??1idIK_Reach@@UAE@XZ      10264270 f   IK.obj
 0002:0009a2d0       ?Save@idIK_Reach@@QBEXPAVidSaveGame@@@Z 102642d0 f   IK.obj
 0002:0009a5a0       ?Restore@idIK_Reach@@QAEXPAVidRestoreGame@@@Z 102645a0 f   IK.obj
 0002:0009a870       ?Init@idIK_Reach@@UAE_NPAVidEntity@@PBDABVidVec3@@@Z 10264870 f   IK.obj
 0002:0009b1a0       ?Evaluate@idIK_Reach@@UAEXXZ 102651a0 f   IK.obj
 0002:0009b990       ?ClearJointMods@idIK_Reach@@UAEXXZ 10265990 f   IK.obj
 0002:0009ba90       ?CreateInstance@idItem@@SAPAVidClass@@XZ 10265a90 f   Item.obj
 0002:0009bbc0       ?GetType@idItem@@UBEPAVidTypeInfo@@XZ 10265bc0 f   Item.obj
 0002:0009bc00       ??0idItem@@QAE@XZ          10265c00 f   Item.obj
 0002:0009bd50       ??_EidItem@@UAEPAXI@Z      10265d50 f i Item.obj
 0002:0009bd50       ??_GidItem@@UAEPAXI@Z      10265d50 f i Item.obj
 0002:0009bdc0       ??1idItem@@UAE@XZ          10265dc0 f   Item.obj
 0002:0009be90       ?Save@idItem@@QBEXPAVidSaveGame@@@Z 10265e90 f   Item.obj
 0002:0009bfa0       ?Restore@idItem@@QAEXPAVidRestoreGame@@@Z 10265fa0 f   Item.obj
 0002:0009c0c0       ?UpdateRenderEntity@idItem@@ABE_NPAUrenderEntity_s@@PBUrenderView_s@@@Z 102660c0 f   Item.obj
 0002:0009c390       ?ModelCallback@idItem@@CA_NPAUrenderEntity_s@@PBUrenderView_s@@@Z 10266390 f   Item.obj
 0002:0009c430       ?Think@idItem@@UAEXXZ      10266430 f   Item.obj
 0002:0009c5f0       ?Present@idItem@@UAEXXZ    102665f0 f   Item.obj
 0002:0009c780       ?Spawn@idItem@@QAEXXZ      10266780 f   Item.obj
 0002:0009cc80       ?GetAttributes@idItem@@QAEXAAVidDict@@@Z 10266c80 f   Item.obj
 0002:0009ce60       ?GiveToPlayer@idItem@@UAE_NPAVidPlayer@@@Z 10266e60 f   Item.obj
 0002:0009cf00       ?Pickup@idItem@@UAE_NPAVidPlayer@@@Z 10266f00 f   Item.obj
 0002:0009d200       ?ClientPredictionThink@idItem@@UAEXXZ 10267200 f   Item.obj
 0002:0009d270       ?WriteToSnapshot@idItem@@UBEXAAVidBitMsgDelta@@@Z 10267270 f   Item.obj
 0002:0009d2e0       ?ReadFromSnapshot@idItem@@UAEXABVidBitMsgDelta@@@Z 102672e0 f   Item.obj
 0002:0009d370       ?ClientReceiveEvent@idItem@@UAE_NHHABVidBitMsg@@@Z 10267370 f   Item.obj
 0002:0009d4b0       ?Event_DropToFloor@idItem@@AAEXXZ 102674b0 f   Item.obj
 0002:0009d5d0       ?TraceBounds@idClip@@QAE_NAAUtrace_s@@ABVidVec3@@1ABVidBounds@@HPBVidEntity@@@Z 102675d0 f i Item.obj
 0002:0009d6b0       ?Event_Touch@idItem@@AAEXPAVidEntity@@PAUtrace_s@@@Z 102676b0 f   Item.obj
 0002:0009d750       ?Event_Trigger@idItem@@AAEXPAVidEntity@@@Z 10267750 f   Item.obj
 0002:0009d820       ?Event_Respawn@idItem@@AAEXXZ 10267820 f   Item.obj
 0002:0009d950       ?Event_RespawnFx@idItem@@AAEXXZ 10267950 f   Item.obj
 0002:0009da10       ?CreateInstance@idItemPowerup@@SAPAVidClass@@XZ 10267a10 f   Item.obj
 0002:0009db40       ?GetType@idItemPowerup@@UBEPAVidTypeInfo@@XZ 10267b40 f   Item.obj
 0002:0009db80       ??0idItemPowerup@@QAE@XZ   10267b80 f   Item.obj
 0002:0009dc00       ??_GidItemPowerup@@UAEPAXI@Z 10267c00 f i Item.obj
 0002:0009dc00       ??_EidItemPowerup@@UAEPAXI@Z 10267c00 f i Item.obj
 0002:0009dc70       ??1idItemPowerup@@UAE@XZ   10267c70 f i Item.obj
 0002:0009dcc0       ?Save@idItemPowerup@@QBEXPAVidSaveGame@@@Z 10267cc0 f   Item.obj
 0002:0009dd40       ?Restore@idItemPowerup@@QAEXPAVidRestoreGame@@@Z 10267d40 f   Item.obj
 0002:0009ddc0       ?Spawn@idItemPowerup@@QAEXXZ 10267dc0 f   Item.obj
 0002:0009de50       ?GiveToPlayer@idItemPowerup@@UAE_NPAVidPlayer@@@Z 10267e50 f   Item.obj
 0002:0009dee0       ?CreateInstance@idObjective@@SAPAVidClass@@XZ 10267ee0 f   Item.obj
 0002:0009e010       ?GetType@idObjective@@UBEPAVidTypeInfo@@XZ 10268010 f   Item.obj
 0002:0009e050       ??0idObjective@@QAE@XZ     10268050 f   Item.obj
 0002:0009e110       ??_GidObjective@@UAEPAXI@Z 10268110 f i Item.obj
 0002:0009e110       ??_EidObjective@@UAEPAXI@Z 10268110 f i Item.obj
 0002:0009e180       ??1idObjective@@UAE@XZ     10268180 f i Item.obj
 0002:0009e1d0       ?Save@idObjective@@QBEXPAVidSaveGame@@@Z 102681d0 f   Item.obj
 0002:0009e230       ?Restore@idObjective@@QAEXPAVidRestoreGame@@@Z 10268230 f   Item.obj
 0002:0009e2b0       ?Spawn@idObjective@@QAEXXZ 102682b0 f   Item.obj
 0002:0009e360       ?Event_CamShot@idObjective@@AAEXXZ 10268360 f   Item.obj
 0002:0009e640       ?Event_Trigger@idObjective@@AAEXPAVidEntity@@@Z 10268640 f   Item.obj
 0002:0009ea20       ?Event_GetPlayerPos@idObjective@@AAEXXZ 10268a20 f   Item.obj
 0002:0009eaf0       ?Event_HideObjective@idObjective@@AAEXPAVidEntity@@@Z 10268af0 f   Item.obj
 0002:0009ec40       ?CreateInstance@idVideoCDItem@@SAPAVidClass@@XZ 10268c40 f   Item.obj
 0002:0009ed70       ??0idVideoCDItem@@QAE@XZ   10268d70 f i Item.obj
 0002:0009edd0       ??_EidVideoCDItem@@UAEPAXI@Z 10268dd0 f i Item.obj
 0002:0009edd0       ??_GidVideoCDItem@@UAEPAXI@Z 10268dd0 f i Item.obj
 0002:0009ee40       ??1idVideoCDItem@@UAE@XZ   10268e40 f i Item.obj
 0002:0009ee90       ?GetType@idVideoCDItem@@UBEPAVidTypeInfo@@XZ 10268e90 f   Item.obj
 0002:0009eed0       ?Spawn@idVideoCDItem@@QAEXXZ 10268ed0 f   Item.obj
 0002:0009ef10       ?GiveToPlayer@idVideoCDItem@@UAE_NPAVidPlayer@@@Z 10268f10 f   Item.obj
 0002:0009f050       ?CreateInstance@idPDAItem@@SAPAVidClass@@XZ 10269050 f   Item.obj
 0002:0009f180       ??0idPDAItem@@QAE@XZ       10269180 f i Item.obj
 0002:0009f1e0       ??_GidPDAItem@@UAEPAXI@Z   102691e0 f i Item.obj
 0002:0009f1e0       ??_EidPDAItem@@UAEPAXI@Z   102691e0 f i Item.obj
 0002:0009f250       ??1idPDAItem@@UAE@XZ       10269250 f i Item.obj
 0002:0009f2a0       ?GetType@idPDAItem@@UBEPAVidTypeInfo@@XZ 102692a0 f   Item.obj
 0002:0009f2e0       ?GiveToPlayer@idPDAItem@@UAE_NPAVidPlayer@@@Z 102692e0 f   Item.obj
 0002:0009f370       ?CreateInstance@idMoveableItem@@SAPAVidClass@@XZ 10269370 f   Item.obj
 0002:0009f4a0       ?GetType@idMoveableItem@@UBEPAVidTypeInfo@@XZ 102694a0 f   Item.obj
 0002:0009f4e0       ??0idMoveableItem@@QAE@XZ  102694e0 f   Item.obj
 0002:0009f5c0       ??_EidMoveableItem@@UAEPAXI@Z 102695c0 f i Item.obj
 0002:0009f5c0       ??_GidMoveableItem@@UAEPAXI@Z 102695c0 f i Item.obj
 0002:0009f630       ??1idMoveableItem@@UAE@XZ  10269630 f   Item.obj
 0002:0009f740       ?Save@idMoveableItem@@QBEXPAVidSaveGame@@@Z 10269740 f   Item.obj
 0002:0009f7e0       ?Restore@idMoveableItem@@QAEXPAVidRestoreGame@@@Z 102697e0 f   Item.obj
 0002:0009f8a0       ?Spawn@idMoveableItem@@QAEXXZ 102698a0 f   Item.obj
 0002:000a00f0       ?Think@idMoveableItem@@UAEXXZ 1026a0f0 f   Item.obj
 0002:000a02c0       ?Pickup@idMoveableItem@@UAE_NPAVidPlayer@@@Z 1026a2c0 f   Item.obj
 0002:000a0340       ?DropItem@idMoveableItem@@SAPAVidEntity@@PBDABVidVec3@@ABVidMat3@@1HH@Z 1026a340 f   Item.obj
 0002:000a05c0       ?DropItems@idMoveableItem@@SAXPAVidAnimatedEntity@@PBDPAV?$idList@PAVidEntity@@@@@Z 1026a5c0 f   Item.obj
 0002:000a0bf0       ?WriteToSnapshot@idMoveableItem@@UBEXAAVidBitMsgDelta@@@Z 1026abf0 f   Item.obj
 0002:000a0c70       ?ReadFromSnapshot@idMoveableItem@@UAEXABVidBitMsgDelta@@@Z 1026ac70 f   Item.obj
 0002:000a0d10       ?Gib@idMoveableItem@@AAEXABVidVec3@@PBD@Z 1026ad10 f   Item.obj
 0002:000a0e10       ?Event_DropToFloor@idMoveableItem@@AAEXXZ 1026ae10 f   Item.obj
 0002:000a0e50       ?Event_Gib@idMoveableItem@@AAEXPBD@Z 1026ae50 f   Item.obj
 0002:000a0ec0       ?CreateInstance@idMoveablePDAItem@@SAPAVidClass@@XZ 1026aec0 f   Item.obj
 0002:000a0ff0       ??0idMoveablePDAItem@@QAE@XZ 1026aff0 f i Item.obj
 0002:000a1050       ??_GidMoveablePDAItem@@UAEPAXI@Z 1026b050 f i Item.obj
 0002:000a1050       ??_EidMoveablePDAItem@@UAEPAXI@Z 1026b050 f i Item.obj
 0002:000a10c0       ??1idMoveablePDAItem@@UAE@XZ 1026b0c0 f i Item.obj
 0002:000a1110       ?GetType@idMoveablePDAItem@@UBEPAVidTypeInfo@@XZ 1026b110 f   Item.obj
 0002:000a1150       ?GiveToPlayer@idMoveablePDAItem@@UAE_NPAVidPlayer@@@Z 1026b150 f   Item.obj
 0002:000a11e0       ?CreateInstance@idItemRemover@@SAPAVidClass@@XZ 1026b1e0 f   Item.obj
 0002:000a1310       ??0idItemRemover@@QAE@XZ   1026b310 f i Item.obj
 0002:000a1370       ??_EidItemRemover@@UAEPAXI@Z 1026b370 f i Item.obj
 0002:000a1370       ??_GidItemRemover@@UAEPAXI@Z 1026b370 f i Item.obj
 0002:000a13e0       ??1idItemRemover@@UAE@XZ   1026b3e0 f i Item.obj
 0002:000a1430       ?GetType@idItemRemover@@UBEPAVidTypeInfo@@XZ 1026b430 f   Item.obj
 0002:000a1470       ?Spawn@idItemRemover@@QAEXXZ 1026b470 f   Item.obj
 0002:000a14b0       ?RemoveItem@idItemRemover@@QAEXPAVidPlayer@@@Z 1026b4b0 f   Item.obj
 0002:000a1530       ?Event_Trigger@idItemRemover@@AAEXPAVidEntity@@@Z 1026b530 f   Item.obj
 0002:000a15a0       ?CreateInstance@idObjectiveComplete@@SAPAVidClass@@XZ 1026b5a0 f   Item.obj
 0002:000a16d0       ?GetType@idObjectiveComplete@@UBEPAVidTypeInfo@@XZ 1026b6d0 f   Item.obj
 0002:000a1710       ??0idObjectiveComplete@@QAE@XZ 1026b710 f   Item.obj
 0002:000a17d0       ??_GidObjectiveComplete@@UAEPAXI@Z 1026b7d0 f i Item.obj
 0002:000a17d0       ??_EidObjectiveComplete@@UAEPAXI@Z 1026b7d0 f i Item.obj
 0002:000a1840       ??1idObjectiveComplete@@UAE@XZ 1026b840 f i Item.obj
 0002:000a1890       ?Save@idObjectiveComplete@@QBEXPAVidSaveGame@@@Z 1026b890 f   Item.obj
 0002:000a18f0       ?Restore@idObjectiveComplete@@QAEXPAVidRestoreGame@@@Z 1026b8f0 f   Item.obj
 0002:000a1950       ?Spawn@idObjectiveComplete@@QAEXXZ 1026b950 f   Item.obj
 0002:000a19d0       ?Event_Trigger@idObjectiveComplete@@AAEXPAVidEntity@@@Z 1026b9d0 f   Item.obj
 0002:000a1bb0       ?Event_GetPlayerPos@idObjectiveComplete@@AAEXXZ 1026bbb0 f   Item.obj
 0002:000a1c80       ?Event_HideObjective@idObjectiveComplete@@AAEXPAVidEntity@@@Z 1026bc80 f   Item.obj
 0002:000a1e00       ?CreateInstance@idLight@@SAPAVidClass@@XZ 1026be00 f   Light.obj
 0002:000a1f30       ?GetType@idLight@@UBEPAVidTypeInfo@@XZ 1026bf30 f   Light.obj
 0002:000a1f70       ?ParseSpawnArgsToRenderLight@idGameEdit@@UAEXPBVidDict@@PAUrenderLight_s@@@Z 1026bf70 f   Light.obj
 0002:000a2690       ?FixDegenerateNormal@idVec3@@QAE_NXZ 1026c690 f i Light.obj
 0002:000a2a60       ?UpdateChangeableSpawnArgs@idLight@@UAEXPBVidDict@@@Z 1026ca60 f   Light.obj
 0002:000a2be0       ??0idLight@@QAE@XZ         1026cbe0 f   Light.obj
 0002:000a2e50       ??_GidLight@@UAEPAXI@Z     1026ce50 f i Light.obj
 0002:000a2e50       ??_EidLight@@UAEPAXI@Z     1026ce50 f i Light.obj
 0002:000a2ec0       ??1idLight@@UAE@XZ         1026cec0 f   Light.obj
 0002:000a2fb0       ?Save@idLight@@QBEXPAVidSaveGame@@@Z 1026cfb0 f   Light.obj
 0002:000a3180       ?Restore@idLight@@QAEXPAVidRestoreGame@@@Z 1026d180 f   Light.obj
 0002:000a3480       ?Spawn@idLight@@QAEXXZ     1026d480 f   Light.obj
 0002:000a3c80       ?Left@idStr@@QBEPBDHAAV1@@Z 1026dc80 f i Light.obj
 0002:000a3ce0       ?SetLightLevel@idLight@@QAEXXZ 1026dce0 f   Light.obj
 0002:000a3e60       ?GetColor@idLight@@UBEXAAVidVec3@@@Z 1026de60 f   Light.obj
 0002:000a3f00       ?GetColor@idLight@@UBEXAAVidVec4@@@Z 1026df00 f   Light.obj
 0002:000a3fb0       ?SetColor@idLight@@UAEXMMM@Z 1026dfb0 f   Light.obj
 0002:000a4030       ?SetColor@idLight@@UAEXABVidVec4@@@Z 1026e030 f   Light.obj
 0002:000a40d0       ?ToVec3@idVec4@@QBEABVidVec3@@XZ 1026e0d0 f i Light.obj
 0002:000a4110       ?SetShader@idLight@@QAEXPBD@Z 1026e110 f   Light.obj
 0002:000a41a0       ?SetLightParm@idLight@@QAEXHM@Z 1026e1a0 f   Light.obj
 0002:000a4230       ?SetLightParms@idLight@@QAEXMMMM@Z 1026e230 f   Light.obj
 0002:000a4310       ?SetRadiusXYZ@idLight@@QAEXMMM@Z 1026e310 f   Light.obj
 0002:000a43b0       ?SetRadius@idLight@@QAEXM@Z 1026e3b0 f   Light.obj
 0002:000a4450       ?On@idLight@@QAEXXZ        1026e450 f   Light.obj
 0002:000a4540       ?Off@idLight@@QAEXXZ       1026e540 f   Light.obj
 0002:000a4610       ?Fade@idLight@@QAEXABVidVec4@@M@Z 1026e610 f   Light.obj
 0002:000a4700       ?FadeOut@idLight@@QAEXM@Z  1026e700 f   Light.obj
 0002:000a4760       ?FadeIn@idLight@@QAEXM@Z   1026e760 f   Light.obj
 0002:000a4880       ?Killed@idLight@@UAEXPAVidEntity@@0HABVidVec3@@H@Z 1026e880 f   Light.obj
 0002:000a48e0       ?BecomeBroken@idLight@@QAEXPAVidEntity@@@Z 1026e8e0 f   Light.obj
 0002:000a4e40       ?PresentLightDefChange@idLight@@AAEXXZ 1026ee40 f   Light.obj
 0002:000a4f10       ?PresentModelDefChange@idLight@@AAEXXZ 1026ef10 f   Light.obj
 0002:000a5000       ?Present@idLight@@UAEXXZ   1026f000 f   Light.obj
 0002:000a5210       ?Think@idLight@@UAEXXZ     1026f210 f   Light.obj
 0002:000a53d0       ?GetPhysicsToSoundTransform@idLight@@UAE_NAAVidVec3@@AAVidMat3@@@Z 1026f3d0 f   Light.obj
 0002:000a54b0       ?FreeLightDef@idLight@@UAEXXZ 1026f4b0 f   Light.obj
 0002:000a5550       ?SaveState@idLight@@QAEXPAVidDict@@@Z 1026f550 f   Light.obj
 0002:000a5670       ?ShowEditingDialog@idLight@@UAEXXZ 1026f670 f   Light.obj
 0002:000a5730       ?Event_SetShader@idLight@@AAEXPBD@Z 1026f730 f   Light.obj
 0002:000a5790       ?Event_GetLightParm@idLight@@AAEXH@Z 1026f790 f   Light.obj
 0002:000a5820       ?Event_SetLightParm@idLight@@AAEXHM@Z 1026f820 f   Light.obj
 0002:000a5880       ?Event_SetLightParms@idLight@@AAEXMMMM@Z 1026f880 f   Light.obj
 0002:000a58f0       ?Event_SetRadiusXYZ@idLight@@AAEXMMM@Z 1026f8f0 f   Light.obj
 0002:000a5950       ?Event_SetRadius@idLight@@AAEXM@Z 1026f950 f   Light.obj
 0002:000a59b0       ?Event_Hide@idLight@@AAEXXZ 1026f9b0 f   Light.obj
 0002:000a5a30       ?Event_Show@idLight@@AAEXXZ 1026fa30 f   Light.obj
 0002:000a5ab0       ?Event_On@idLight@@AAEXXZ  1026fab0 f   Light.obj
 0002:000a5b00       ?Event_Off@idLight@@AAEXXZ 1026fb00 f   Light.obj
 0002:000a5b50       ?Event_ToggleOnOff@idLight@@AAEXPAVidEntity@@@Z 1026fb50 f   Light.obj
 0002:000a5c70       ?Event_SetSoundHandles@idLight@@AAEXXZ 1026fc70 f   Light.obj
 0002:000a5d90       ?Event_FadeOut@idLight@@AAEXM@Z 1026fd90 f   Light.obj
 0002:000a5df0       ?Event_FadeIn@idLight@@AAEXM@Z 1026fdf0 f   Light.obj
 0002:000a5e50       ?ClientPredictionThink@idLight@@UAEXXZ 1026fe50 f   Light.obj
 0002:000a5eb0       ?WriteToSnapshot@idLight@@UBEXAAVidBitMsgDelta@@@Z 1026feb0 f   Light.obj
 0002:000a60b0       ?WriteShort@idBitMsgDelta@@QAEXH@Z 102700b0 f i Light.obj
 0002:000a6110       ?WriteFloat@idBitMsgDelta@@QAEXMHH@Z 10270110 f i Light.obj
 0002:000a6190       ?ReadFromSnapshot@idLight@@UAEXABVidBitMsgDelta@@@Z 10270190 f   Light.obj
 0002:000a6520       ?ReadShort@idBitMsgDelta@@QBEHXZ 10270520 f i Light.obj
 0002:000a6580       ?ReadFloat@idBitMsgDelta@@QBEMHH@Z 10270580 f i Light.obj
 0002:000a6600       ?ClientReceiveEvent@idLight@@UAE_NHHABVidBitMsg@@@Z 10270600 f   Light.obj
 0002:000a6690       ?CreateInstance@idSpawnableEntity@@SAPAVidClass@@XZ 10270690 f   Misc.obj
 0002:000a67c0       ??0idSpawnableEntity@@QAE@XZ 102707c0 f i Misc.obj
 0002:000a6820       ??_EidSpawnableEntity@@UAEPAXI@Z 10270820 f i Misc.obj
 0002:000a6820       ??_GidSpawnableEntity@@UAEPAXI@Z 10270820 f i Misc.obj
 0002:000a6890       ??1idSpawnableEntity@@UAE@XZ 10270890 f i Misc.obj
 0002:000a68e0       ?GetType@idSpawnableEntity@@UBEPAVidTypeInfo@@XZ 102708e0 f   Misc.obj
 0002:000a6920       ?Spawn@idSpawnableEntity@@QAEXXZ 10270920 f   Misc.obj
 0002:000a6960       ?CreateInstance@idPlayerStart@@SAPAVidClass@@XZ 10270960 f   Misc.obj
 0002:000a6a90       ?GetType@idPlayerStart@@UBEPAVidTypeInfo@@XZ 10270a90 f   Misc.obj
 0002:000a6ad0       ??0idPlayerStart@@QAE@XZ   10270ad0 f   Misc.obj
 0002:000a6b40       ??_GidPlayerStart@@UAEPAXI@Z 10270b40 f i Misc.obj
 0002:000a6b40       ??_EidPlayerStart@@UAEPAXI@Z 10270b40 f i Misc.obj
 0002:000a6bb0       ??1idPlayerStart@@UAE@XZ   10270bb0 f i Misc.obj
 0002:000a6c00       ?Spawn@idPlayerStart@@QAEXXZ 10270c00 f   Misc.obj
 0002:000a6c50       ?Save@idPlayerStart@@QBEXPAVidSaveGame@@@Z 10270c50 f   Misc.obj
 0002:000a6cb0       ?Restore@idPlayerStart@@QAEXPAVidRestoreGame@@@Z 10270cb0 f   Misc.obj
 0002:000a6d10       ?ClientReceiveEvent@idPlayerStart@@UAE_NHHABVidBitMsg@@@Z 10270d10 f   Misc.obj
 0002:000a6de0       ?Event_TeleportStage@idPlayerStart@@AAEXPAVidEntity@@@Z 10270de0 f   Misc.obj
 0002:000a70b0       ?TeleportPlayer@idPlayerStart@@AAEXPAVidPlayer@@@Z 102710b0 f   Misc.obj
 0002:000a73b0       ?Event_TeleportPlayer@idPlayerStart@@AAEXPAVidEntity@@@Z 102713b0 f   Misc.obj
 0002:000a75a0       ?CreateInstance@idActivator@@SAPAVidClass@@XZ 102715a0 f   Misc.obj
 0002:000a76d0       ??0idActivator@@QAE@XZ     102716d0 f i Misc.obj
 0002:000a7730       ??_EidActivator@@UAEPAXI@Z 10271730 f i Misc.obj
 0002:000a7730       ??_GidActivator@@UAEPAXI@Z 10271730 f i Misc.obj
 0002:000a77a0       ??1idActivator@@UAE@XZ     102717a0 f i Misc.obj
 0002:000a77f0       ?GetType@idActivator@@UBEPAVidTypeInfo@@XZ 102717f0 f   Misc.obj
 0002:000a7830       ?Save@idActivator@@QBEXPAVidSaveGame@@@Z 10271830 f   Misc.obj
 0002:000a7890       ?Restore@idActivator@@QAEXPAVidRestoreGame@@@Z 10271890 f   Misc.obj
 0002:000a7910       ?Spawn@idActivator@@QAEXXZ 10271910 f   Misc.obj
 0002:000a7a90       ?Think@idActivator@@UAEXXZ 10271a90 f   Misc.obj
 0002:000a7b40       ?Event_Activate@idActivator@@AAEXPAVidEntity@@@Z 10271b40 f   Misc.obj
 0002:000a7bc0       ?CreateInstance@idPathCorner@@SAPAVidClass@@XZ 10271bc0 f   Misc.obj
 0002:000a7cf0       ??0idPathCorner@@QAE@XZ    10271cf0 f i Misc.obj
 0002:000a7d50       ??_GidPathCorner@@UAEPAXI@Z 10271d50 f i Misc.obj
 0002:000a7d50       ??_EidPathCorner@@UAEPAXI@Z 10271d50 f i Misc.obj
 0002:000a7dc0       ??1idPathCorner@@UAE@XZ    10271dc0 f i Misc.obj
 0002:000a7e10       ?GetType@idPathCorner@@UBEPAVidTypeInfo@@XZ 10271e10 f   Misc.obj
 0002:000a7e50       ?Spawn@idPathCorner@@QAEXXZ 10271e50 f   Misc.obj
 0002:000a7e90       ?DrawDebugInfo@idPathCorner@@SAXXZ 10271e90 f   Misc.obj
 0002:000a8040       ?RandomPath@idPathCorner@@SAPAV1@PBVidEntity@@0@Z 10272040 f   Misc.obj
 0002:000a81a0       ?Event_RandomPath@idPathCorner@@AAEXXZ 102721a0 f   Misc.obj
 0002:000a8210       ?CreateInstance@idDamagable@@SAPAVidClass@@XZ 10272210 f   Misc.obj
 0002:000a8340       ?GetType@idDamagable@@UBEPAVidTypeInfo@@XZ 10272340 f   Misc.obj
 0002:000a8380       ??0idDamagable@@QAE@XZ     10272380 f   Misc.obj
 0002:000a8400       ??_GidDamagable@@UAEPAXI@Z 10272400 f i Misc.obj
 0002:000a8400       ??_EidDamagable@@UAEPAXI@Z 10272400 f i Misc.obj
 0002:000a8470       ??1idDamagable@@UAE@XZ     10272470 f i Misc.obj
 0002:000a84c0       ?Save@idDamagable@@QBEXPAVidSaveGame@@@Z 102724c0 f   Misc.obj
 0002:000a8540       ?Restore@idDamagable@@QAEXPAVidRestoreGame@@@Z 10272540 f   Misc.obj
 0002:000a85c0       ?Spawn@idDamagable@@QAEXXZ 102725c0 f   Misc.obj
 0002:000a8820       ?BecomeBroken@idDamagable@@AAEXPAVidEntity@@@Z 10272820 f   Misc.obj
 0002:000a8c60       ?Killed@idDamagable@@UAEXPAVidEntity@@0HABVidVec3@@H@Z 10272c60 f   Misc.obj
 0002:000a8cf0       ?Event_BecomeBroken@idDamagable@@AAEXPAVidEntity@@@Z 10272cf0 f   Misc.obj
 0002:000a8d50       ?Event_RestoreDamagable@idDamagable@@AAEXXZ 10272d50 f   Misc.obj
 0002:000a8de0       ?CreateInstance@idExplodable@@SAPAVidClass@@XZ 10272de0 f   Misc.obj
 0002:000a8f10       ??0idExplodable@@QAE@XZ    10272f10 f i Misc.obj
 0002:000a8f70       ??_EidExplodable@@UAEPAXI@Z 10272f70 f i Misc.obj
 0002:000a8f70       ??_GidExplodable@@UAEPAXI@Z 10272f70 f i Misc.obj
 0002:000a8fe0       ??1idExplodable@@UAE@XZ    10272fe0 f i Misc.obj
 0002:000a9030       ?GetType@idExplodable@@UBEPAVidTypeInfo@@XZ 10273030 f   Misc.obj
 0002:000a9070       ?Spawn@idExplodable@@QAEXXZ 10273070 f   Misc.obj
 0002:000a90d0       ?Event_Explode@idExplodable@@AAEXPAVidEntity@@@Z 102730d0 f   Misc.obj
 0002:000a92a0       ?CreateInstance@idSpring@@SAPAVidClass@@XZ 102732a0 f   Misc.obj
 0002:000a93d0       ??0idSpring@@QAE@XZ        102733d0 f i Misc.obj
 0002:000a94a0       ??_EidSpring@@UAEPAXI@Z    102734a0 f i Misc.obj
 0002:000a94a0       ??_GidSpring@@UAEPAXI@Z    102734a0 f i Misc.obj
 0002:000a9510       ??1idSpring@@UAE@XZ        10273510 f i Misc.obj
 0002:000a95b0       ?GetType@idSpring@@UBEPAVidTypeInfo@@XZ 102735b0 f   Misc.obj
 0002:000a95f0       ?Think@idSpring@@UAEXXZ    102735f0 f   Misc.obj
 0002:000a99a0       ?Event_LinkSpring@idSpring@@AAEXXZ 102739a0 f   Misc.obj
 0002:000a9d10       ?Spawn@idSpring@@QAEXXZ    10273d10 f   Misc.obj
 0002:000a9f10       ?CreateInstance@idForceField@@SAPAVidClass@@XZ 10273f10 f   Misc.obj
 0002:000aa040       ??0idForceField@@QAE@XZ    10274040 f i Misc.obj
 0002:000aa0f0       ??_EidForceField@@UAEPAXI@Z 102740f0 f i Misc.obj
 0002:000aa0f0       ??_GidForceField@@UAEPAXI@Z 102740f0 f i Misc.obj
 0002:000aa160       ??1idForceField@@UAE@XZ    10274160 f i Misc.obj
 0002:000aa200       ?GetType@idForceField@@UBEPAVidTypeInfo@@XZ 10274200 f   Misc.obj
 0002:000aa240       ?Toggle@idForceField@@AAEXXZ 10274240 f   Misc.obj
 0002:000aa2c0       ?Think@idForceField@@UAEXXZ 102742c0 f   Misc.obj
 0002:000aa360       ?Save@idForceField@@QBEXPAVidSaveGame@@@Z 10274360 f   Misc.obj
 0002:000aa3c0       ?Restore@idForceField@@QAEXPAVidRestoreGame@@@Z 102743c0 f   Misc.obj
 0002:000aa420       ?Spawn@idForceField@@QAEXXZ 10274420 f   Misc.obj
 0002:000aa830       ?SetApplyType@idForce_Field@@QAEXW4forceFieldApplyType@@@Z 10274830 f i Misc.obj
 0002:000aa880       ?SetPlayerOnly@idForce_Field@@QAEX_N@Z 10274880 f i Misc.obj
 0002:000aa8d0       ?SetMonsterOnly@idForce_Field@@QAEX_N@Z 102748d0 f i Misc.obj
 0002:000aa920       ?Event_Toggle@idForceField@@AAEXXZ 10274920 f   Misc.obj
 0002:000aa970       ?Event_Activate@idForceField@@AAEXPAVidEntity@@@Z 10274970 f   Misc.obj
 0002:000aaa40       ?Event_FindTargets@idForceField@@AAEXXZ 10274a40 f   Misc.obj
 0002:000aab70       ?CreateInstance@idAnimated@@SAPAVidClass@@XZ 10274b70 f   Misc.obj
 0002:000aaca0       ?GetType@idAnimated@@UBEPAVidTypeInfo@@XZ 10274ca0 f   Misc.obj
 0002:000aace0       ??0idAnimated@@QAE@XZ      10274ce0 f   Misc.obj
 0002:000aae10       ??_EidAnimated@@UAEPAXI@Z  10274e10 f i Misc.obj
 0002:000aae10       ??_GidAnimated@@UAEPAXI@Z  10274e10 f i Misc.obj
 0002:000aae80       ??1idAnimated@@UAE@XZ      10274e80 f   Misc.obj
 0002:000aaf80       ?Save@idAnimated@@QBEXPAVidSaveGame@@@Z 10274f80 f   Misc.obj
 0002:000ab070       ?Restore@idAnimated@@QAEXPAVidRestoreGame@@@Z 10275070 f   Misc.obj
 0002:000ab150       ?Spawn@idAnimated@@QAEXXZ  10275150 f   Misc.obj
 0002:000ab7a0       ?LoadAF@idAnimated@@UAE_NXZ 102757a0 f   Misc.obj
 0002:000ab930       ?GetPhysicsToSoundTransform@idAnimated@@UAE_NAAVidVec3@@AAVidMat3@@@Z 10275930 f   Misc.obj
 0002:000ab9c0       ?StartRagdoll@idAnimated@@QAE_NXZ 102759c0 f   Misc.obj
 0002:000abab0       ?PlayNextAnim@idAnimated@@AAEXXZ 10275ab0 f   Misc.obj
 0002:000abea0       ?Event_StartRagdoll@idAnimated@@AAEXXZ 10275ea0 f   Misc.obj
 0002:000abef0       ?Event_AnimDone@idAnimated@@AAEXH@Z 10275ef0 f   Misc.obj
 0002:000ac090       ?Event_Activate@idAnimated@@AAEXPAVidEntity@@@Z 10276090 f   Misc.obj
 0002:000ac150       ?Event_Start@idAnimated@@AAEXXZ 10276150 f   Misc.obj
 0002:000ac3e0       ?Event_Footstep@idAnimated@@AAEXXZ 102763e0 f   Misc.obj
 0002:000ac440       ?Event_LaunchMissilesUpdate@idAnimated@@AAEXHHHH@Z 10276440 f   Misc.obj
 0002:000ac8d0       ?Event_LaunchMissiles@idAnimated@@AAEXPBD000HH@Z 102768d0 f   Misc.obj
 0002:000acb90       ?Event_SetAnimation@idAnimated@@AAEXPBD@Z 10276b90 f   Misc.obj
 0002:000acc80       ?Event_GetAnimationLength@idAnimated@@AAEXXZ 10276c80 f   Misc.obj
 0002:000acd30       ?CreateInstance@idStaticEntity@@SAPAVidClass@@XZ 10276d30 f   Misc.obj
 0002:000ace60       ?GetType@idStaticEntity@@UBEPAVidTypeInfo@@XZ 10276e60 f   Misc.obj
 0002:000acea0       ??0idStaticEntity@@QAE@XZ  10276ea0 f   Misc.obj
 0002:000ad000       ??_EidStaticEntity@@UAEPAXI@Z 10277000 f i Misc.obj
 0002:000ad000       ??_GidStaticEntity@@UAEPAXI@Z 10277000 f i Misc.obj
 0002:000ad070       ??1idStaticEntity@@UAE@XZ  10277070 f i Misc.obj
 0002:000ad0c0       ?Save@idStaticEntity@@QBEXPAVidSaveGame@@@Z 102770c0 f   Misc.obj
 0002:000ad1b0       ?Restore@idStaticEntity@@QAEXPAVidRestoreGame@@@Z 102771b0 f   Misc.obj
 0002:000ad290       ?Spawn@idStaticEntity@@QAEXXZ 10277290 f   Misc.obj
 0002:000ad5e0       ?ShowEditingDialog@idStaticEntity@@UAEXXZ 102775e0 f   Misc.obj
 0002:000ad660       ?Think@idStaticEntity@@UAEXXZ 10277660 f   Misc.obj
 0002:000ad920       ?Fade@idStaticEntity@@QAEXABVidVec4@@M@Z 10277920 f   Misc.obj
 0002:000ada10       ?Hide@idStaticEntity@@UAEXXZ 10277a10 f   Misc.obj
 0002:000adaa0       ?Show@idStaticEntity@@UAEXXZ 10277aa0 f   Misc.obj
 0002:000adb50       ?Event_Activate@idStaticEntity@@AAEXPAVidEntity@@@Z 10277b50 f   Misc.obj
 0002:000add70       ?WriteToSnapshot@idStaticEntity@@UBEXAAVidBitMsgDelta@@@Z 10277d70 f   Misc.obj
 0002:000ade50       ?ReadFromSnapshot@idStaticEntity@@UAEXABVidBitMsgDelta@@@Z 10277e50 f   Misc.obj
 0002:000adf90       ?CreateInstance@idFuncEmitter@@SAPAVidClass@@XZ 10277f90 f   Misc.obj
 0002:000ae0c0       ?GetType@idFuncEmitter@@UBEPAVidTypeInfo@@XZ 102780c0 f   Misc.obj
 0002:000ae100       ??0idFuncEmitter@@QAE@XZ   10278100 f   Misc.obj
 0002:000ae170       ??_GidFuncEmitter@@UAEPAXI@Z 10278170 f i Misc.obj
 0002:000ae170       ??_EidFuncEmitter@@UAEPAXI@Z 10278170 f i Misc.obj
 0002:000ae1e0       ??1idFuncEmitter@@UAE@XZ   102781e0 f i Misc.obj
 0002:000ae230       ?Spawn@idFuncEmitter@@QAEXXZ 10278230 f   Misc.obj
 0002:000ae2e0       ?Save@idFuncEmitter@@QBEXPAVidSaveGame@@@Z 102782e0 f   Misc.obj
 0002:000ae340       ?Restore@idFuncEmitter@@QAEXPAVidRestoreGame@@@Z 10278340 f   Misc.obj
 0002:000ae3a0       ?Event_Activate@idFuncEmitter@@QAEXPAVidEntity@@@Z 102783a0 f   Misc.obj
 0002:000ae490       ?WriteToSnapshot@idFuncEmitter@@UBEXAAVidBitMsgDelta@@@Z 10278490 f   Misc.obj
 0002:000ae530       ?ReadFromSnapshot@idFuncEmitter@@UAEXABVidBitMsgDelta@@@Z 10278530 f   Misc.obj
 0002:000ae5e0       ?CreateInstance@idFuncSplat@@SAPAVidClass@@XZ 102785e0 f   Misc.obj
 0002:000ae710       ?GetType@idFuncSplat@@UBEPAVidTypeInfo@@XZ 10278710 f   Misc.obj
 0002:000ae750       ??0idFuncSplat@@QAE@XZ     10278750 f   Misc.obj
 0002:000ae7b0       ??_GidFuncSplat@@UAEPAXI@Z 102787b0 f i Misc.obj
 0002:000ae7b0       ??_EidFuncSplat@@UAEPAXI@Z 102787b0 f i Misc.obj
 0002:000ae820       ??1idFuncSplat@@UAE@XZ     10278820 f i Misc.obj
 0002:000ae870       ?Spawn@idFuncSplat@@QAEXXZ 10278870 f   Misc.obj
 0002:000ae8b0       ?Event_Splat@idFuncSplat@@AAEXXZ 102788b0 f   Misc.obj
 0002:000aeaa0       ?Event_Activate@idFuncSplat@@AAEXPAVidEntity@@@Z 10278aa0 f   Misc.obj
 0002:000aeb40       ?CreateInstance@idFuncSmoke@@SAPAVidClass@@XZ 10278b40 f   Misc.obj
 0002:000aec70       ?GetType@idFuncSmoke@@UBEPAVidTypeInfo@@XZ 10278c70 f   Misc.obj
 0002:000aecb0       ??0idFuncSmoke@@QAE@XZ     10278cb0 f   Misc.obj
 0002:000aed40       ??_GidFuncSmoke@@UAEPAXI@Z 10278d40 f i Misc.obj
 0002:000aed40       ??_EidFuncSmoke@@UAEPAXI@Z 10278d40 f i Misc.obj
 0002:000aedb0       ??1idFuncSmoke@@UAE@XZ     10278db0 f i Misc.obj
 0002:000aee00       ?Save@idFuncSmoke@@QBEXPAVidSaveGame@@@Z 10278e00 f   Misc.obj
 0002:000aee90       ?Restore@idFuncSmoke@@QAEXPAVidRestoreGame@@@Z 10278e90 f   Misc.obj
 0002:000aef20       ?Spawn@idFuncSmoke@@QAEXXZ 10278f20 f   Misc.obj
 0002:000af090       ?Event_Activate@idFuncSmoke@@QAEXPAVidEntity@@@Z 10279090 f   Misc.obj
 0002:000af130       ?Think@idFuncSmoke@@UAEXXZ 10279130 f   Misc.obj
 0002:000af2e0       ?CreateInstance@idTextEntity@@SAPAVidClass@@XZ 102792e0 f   Misc.obj
 0002:000af410       ??0idTextEntity@@QAE@XZ    10279410 f i Misc.obj
 0002:000af4c0       ??_EidTextEntity@@UAEPAXI@Z 102794c0 f i Misc.obj
 0002:000af4c0       ??_GidTextEntity@@UAEPAXI@Z 102794c0 f i Misc.obj
 0002:000af530       ??1idTextEntity@@UAE@XZ    10279530 f i Misc.obj
 0002:000af5d0       ?GetType@idTextEntity@@UBEPAVidTypeInfo@@XZ 102795d0 f   Misc.obj
 0002:000af610       ?Spawn@idTextEntity@@QAEXXZ 10279610 f   Misc.obj
 0002:000af700       ?Save@idTextEntity@@QBEXPAVidSaveGame@@@Z 10279700 f   Misc.obj
 0002:000af780       ?Restore@idTextEntity@@QAEXPAVidRestoreGame@@@Z 10279780 f   Misc.obj
 0002:000af800       ?Think@idTextEntity@@UAEXXZ 10279800 f   Misc.obj
 0002:000afac0       ?CreateInstance@idVacuumSeparatorEntity@@SAPAVidClass@@XZ 10279ac0 f   Misc.obj
 0002:000afbf0       ?GetType@idVacuumSeparatorEntity@@UBEPAVidTypeInfo@@XZ 10279bf0 f   Misc.obj
 0002:000afc30       ??0idVacuumSeparatorEntity@@QAE@XZ 10279c30 f   Misc.obj
 0002:000afca0       ??_GidVacuumSeparatorEntity@@UAEPAXI@Z 10279ca0 f i Misc.obj
 0002:000afca0       ??_EidVacuumSeparatorEntity@@UAEPAXI@Z 10279ca0 f i Misc.obj
 0002:000afd10       ??1idVacuumSeparatorEntity@@UAE@XZ 10279d10 f i Misc.obj
 0002:000afd60       ?Save@idVacuumSeparatorEntity@@QBEXPAVidSaveGame@@@Z 10279d60 f   Misc.obj
 0002:000afe00       ?Restore@idVacuumSeparatorEntity@@QAEXPAVidRestoreGame@@@Z 10279e00 f   Misc.obj
 0002:000afec0       ?Spawn@idVacuumSeparatorEntity@@QAEXXZ 10279ec0 f   Misc.obj
 0002:000b0020       ?Event_Activate@idVacuumSeparatorEntity@@QAEXPAVidEntity@@@Z 1027a020 f   Misc.obj
 0002:000b00a0       ?CreateInstance@idLocationSeparatorEntity@@SAPAVidClass@@XZ 1027a0a0 f   Misc.obj
 0002:000b01d0       ??0idLocationSeparatorEntity@@QAE@XZ 1027a1d0 f i Misc.obj
 0002:000b0230       ??_GidLocationSeparatorEntity@@UAEPAXI@Z 1027a230 f i Misc.obj
 0002:000b0230       ??_EidLocationSeparatorEntity@@UAEPAXI@Z 1027a230 f i Misc.obj
 0002:000b02a0       ??1idLocationSeparatorEntity@@UAE@XZ 1027a2a0 f i Misc.obj
 0002:000b02f0       ?GetType@idLocationSeparatorEntity@@UBEPAVidTypeInfo@@XZ 1027a2f0 f   Misc.obj
 0002:000b0330       ?Spawn@idLocationSeparatorEntity@@QAEXXZ 1027a330 f   Misc.obj
 0002:000b0480       ?CreateInstance@idVacuumEntity@@SAPAVidClass@@XZ 1027a480 f   Misc.obj
 0002:000b05b0       ??0idVacuumEntity@@QAE@XZ  1027a5b0 f i Misc.obj
 0002:000b0610       ??_GidVacuumEntity@@UAEPAXI@Z 1027a610 f i Misc.obj
 0002:000b0610       ??_EidVacuumEntity@@UAEPAXI@Z 1027a610 f i Misc.obj
 0002:000b0680       ??1idVacuumEntity@@UAE@XZ  1027a680 f i Misc.obj
 0002:000b06d0       ?GetType@idVacuumEntity@@UBEPAVidTypeInfo@@XZ 1027a6d0 f   Misc.obj
 0002:000b0710       ?Spawn@idVacuumEntity@@QAEXXZ 1027a710 f   Misc.obj
 0002:000b0800       ?CreateInstance@idLocationEntity@@SAPAVidClass@@XZ 1027a800 f   Misc.obj
 0002:000b0930       ??0idLocationEntity@@QAE@XZ 1027a930 f i Misc.obj
 0002:000b0990       ??_EidLocationEntity@@UAEPAXI@Z 1027a990 f i Misc.obj
 0002:000b0990       ??_GidLocationEntity@@UAEPAXI@Z 1027a990 f i Misc.obj
 0002:000b0a00       ??1idLocationEntity@@UAE@XZ 1027aa00 f i Misc.obj
 0002:000b0a50       ?GetType@idLocationEntity@@UBEPAVidTypeInfo@@XZ 1027aa50 f   Misc.obj
 0002:000b0a90       ?Spawn@idLocationEntity@@QAEXXZ 1027aa90 f   Misc.obj
 0002:000b0bc0       ?GetLocation@idLocationEntity@@QBEPBDXZ 1027abc0 f   Misc.obj
 0002:000b0c20       ?CreateInstance@idBeam@@SAPAVidClass@@XZ 1027ac20 f   Misc.obj
 0002:000b0d50       ?GetType@idBeam@@UBEPAVidTypeInfo@@XZ 1027ad50 f   Misc.obj
 0002:000b0d90       ??0idBeam@@QAE@XZ          1027ad90 f   Misc.obj
 0002:000b0e80       ??_GidBeam@@UAEPAXI@Z      1027ae80 f i Misc.obj
 0002:000b0e80       ??_EidBeam@@UAEPAXI@Z      1027ae80 f i Misc.obj
 0002:000b0ef0       ??1idBeam@@UAE@XZ          1027aef0 f i Misc.obj
 0002:000b0f40       ?Save@idBeam@@QBEXPAVidSaveGame@@@Z 1027af40 f   Misc.obj
 0002:000b0fc0       ?Restore@idBeam@@QAEXPAVidRestoreGame@@@Z 1027afc0 f   Misc.obj
 0002:000b1040       ?Spawn@idBeam@@QAEXXZ      1027b040 f   Misc.obj
 0002:000b1140       ?Think@idBeam@@UAEXXZ      1027b140 f   Misc.obj
 0002:000b1260       ?SetMaster@idBeam@@QAEXPAV1@@Z 1027b260 f   Misc.obj
 0002:000b12c0       ?SetBeamTarget@idBeam@@QAEXABVidVec3@@@Z 1027b2c0 f   Misc.obj
 0002:000b13b0       ?Show@idBeam@@UAEXXZ       1027b3b0 f   Misc.obj
 0002:000b1470       ?Event_MatchTarget@idBeam@@AAEXXZ 1027b470 f   Misc.obj
 0002:000b15f0       ?Event_Activate@idBeam@@AAEXPAVidEntity@@@Z 1027b5f0 f   Misc.obj
 0002:000b1680       ?WriteToSnapshot@idBeam@@UBEXAAVidBitMsgDelta@@@Z 1027b680 f   Misc.obj
 0002:000b1770       ?ReadFromSnapshot@idBeam@@UAEXABVidBitMsgDelta@@@Z 1027b770 f   Misc.obj
 0002:000b1870       ?CreateInstance@idLiquid@@SAPAVidClass@@XZ 1027b870 f   Misc.obj
 0002:000b19a0       ??0idLiquid@@QAE@XZ        1027b9a0 f i Misc.obj
 0002:000b1a00       ??_GidLiquid@@UAEPAXI@Z    1027ba00 f i Misc.obj
 0002:000b1a00       ??_EidLiquid@@UAEPAXI@Z    1027ba00 f i Misc.obj
 0002:000b1a70       ??1idLiquid@@UAE@XZ        1027ba70 f i Misc.obj
 0002:000b1ac0       ?GetType@idLiquid@@UBEPAVidTypeInfo@@XZ 1027bac0 f   Misc.obj
 0002:000b1b00       ?Save@idLiquid@@QBEXPAVidSaveGame@@@Z 1027bb00 f   Misc.obj
 0002:000b1b40       ?Restore@idLiquid@@QAEXPAVidRestoreGame@@@Z 1027bb40 f   Misc.obj
 0002:000b1ba0       ?Spawn@idLiquid@@QAEXXZ    1027bba0 f   Misc.obj
 0002:000b1be0       ?Event_Touch@idLiquid@@AAEXPAVidEntity@@PAUtrace_s@@@Z 1027bbe0 f   Misc.obj
 0002:000b1c20       ?CreateInstance@idShaking@@SAPAVidClass@@XZ 1027bc20 f   Misc.obj
 0002:000b1d50       ?GetType@idShaking@@UBEPAVidTypeInfo@@XZ 1027bd50 f   Misc.obj
 0002:000b1d90       ??0idShaking@@QAE@XZ       1027bd90 f   Misc.obj
 0002:000b1e50       ??_GidShaking@@UAEPAXI@Z   1027be50 f i Misc.obj
 0002:000b1e50       ??_EidShaking@@UAEPAXI@Z   1027be50 f i Misc.obj
 0002:000b1ec0       ??1idShaking@@UAE@XZ       1027bec0 f i Misc.obj
 0002:000b1f60       ?Save@idShaking@@QBEXPAVidSaveGame@@@Z 1027bf60 f   Misc.obj
 0002:000b1fe0       ?Restore@idShaking@@QAEXPAVidRestoreGame@@@Z 1027bfe0 f   Misc.obj
 0002:000b2070       ?Spawn@idShaking@@QAEXXZ   1027c070 f   Misc.obj
 0002:000b2320       ?BeginShaking@idShaking@@AAEXXZ 1027c320 f   Misc.obj
 0002:000b24b0       ?Event_Activate@idShaking@@AAEXPAVidEntity@@@Z 1027c4b0 f   Misc.obj
 0002:000b2590       ?CreateInstance@idEarthQuake@@SAPAVidClass@@XZ 1027c590 f   Misc.obj
 0002:000b26c0       ?GetType@idEarthQuake@@UBEPAVidTypeInfo@@XZ 1027c6c0 f   Misc.obj
 0002:000b2700       ??0idEarthQuake@@QAE@XZ    1027c700 f   Misc.obj
 0002:000b27e0       ??_GidEarthQuake@@UAEPAXI@Z 1027c7e0 f i Misc.obj
 0002:000b27e0       ??_EidEarthQuake@@UAEPAXI@Z 1027c7e0 f i Misc.obj
 0002:000b2850       ??1idEarthQuake@@UAE@XZ    1027c850 f i Misc.obj
 0002:000b28a0       ?Save@idEarthQuake@@QBEXPAVidSaveGame@@@Z 1027c8a0 f   Misc.obj
 0002:000b29a0       ?Restore@idEarthQuake@@QAEXPAVidRestoreGame@@@Z 1027c9a0 f   Misc.obj
 0002:000b2ac0       ?Spawn@idEarthQuake@@QAEXXZ 1027cac0 f   Misc.obj
 0002:000b2c50       ?Event_Activate@idEarthQuake@@AAEXPAVidEntity@@@Z 1027cc50 f   Misc.obj
 0002:000b2f90       ?Think@idEarthQuake@@UAEXXZ 1027cf90 f   Misc.obj
 0002:000b3100       ?CreateInstance@idFuncPortal@@SAPAVidClass@@XZ 1027d100 f   Misc.obj
 0002:000b3230       ?GetType@idFuncPortal@@UBEPAVidTypeInfo@@XZ 1027d230 f   Misc.obj
 0002:000b3270       ??0idFuncPortal@@QAE@XZ    1027d270 f   Misc.obj
 0002:000b32f0       ??_EidFuncPortal@@UAEPAXI@Z 1027d2f0 f i Misc.obj
 0002:000b32f0       ??_GidFuncPortal@@UAEPAXI@Z 1027d2f0 f i Misc.obj
 0002:000b3360       ??1idFuncPortal@@UAE@XZ    1027d360 f i Misc.obj
 0002:000b33b0       ?Save@idFuncPortal@@QBEXPAVidSaveGame@@@Z 1027d3b0 f   Misc.obj
 0002:000b3430       ?Restore@idFuncPortal@@QAEXPAVidRestoreGame@@@Z 1027d430 f   Misc.obj
 0002:000b34e0       ?Spawn@idFuncPortal@@QAEXXZ 1027d4e0 f   Misc.obj
 0002:000b3600       ?Event_Activate@idFuncPortal@@AAEXPAVidEntity@@@Z 1027d600 f   Misc.obj
 0002:000b36b0       ?CreateInstance@idFuncAASPortal@@SAPAVidClass@@XZ 1027d6b0 f   Misc.obj
 0002:000b37e0       ?GetType@idFuncAASPortal@@UBEPAVidTypeInfo@@XZ 1027d7e0 f   Misc.obj
 0002:000b3820       ??0idFuncAASPortal@@QAE@XZ 1027d820 f   Misc.obj
 0002:000b3890       ??_EidFuncAASPortal@@UAEPAXI@Z 1027d890 f i Misc.obj
 0002:000b3890       ??_GidFuncAASPortal@@UAEPAXI@Z 1027d890 f i Misc.obj
 0002:000b3900       ??1idFuncAASPortal@@UAE@XZ 1027d900 f i Misc.obj
 0002:000b3950       ?Save@idFuncAASPortal@@QBEXPAVidSaveGame@@@Z 1027d950 f   Misc.obj
 0002:000b39b0       ?Restore@idFuncAASPortal@@QAEXPAVidRestoreGame@@@Z 1027d9b0 f   Misc.obj
 0002:000b3a60       ?Spawn@idFuncAASPortal@@QAEXXZ 1027da60 f   Misc.obj
 0002:000b3b20       ?Event_Activate@idFuncAASPortal@@AAEXPAVidEntity@@@Z 1027db20 f   Misc.obj
 0002:000b3be0       ?CreateInstance@idFuncAASObstacle@@SAPAVidClass@@XZ 1027dbe0 f   Misc.obj
 0002:000b3d10       ?GetType@idFuncAASObstacle@@UBEPAVidTypeInfo@@XZ 1027dd10 f   Misc.obj
 0002:000b3d50       ??0idFuncAASObstacle@@QAE@XZ 1027dd50 f   Misc.obj
 0002:000b3dc0       ??_EidFuncAASObstacle@@UAEPAXI@Z 1027ddc0 f i Misc.obj
 0002:000b3dc0       ??_GidFuncAASObstacle@@UAEPAXI@Z 1027ddc0 f i Misc.obj
 0002:000b3e30       ??1idFuncAASObstacle@@UAE@XZ 1027de30 f i Misc.obj
 0002:000b3e80       ?Save@idFuncAASObstacle@@QBEXPAVidSaveGame@@@Z 1027de80 f   Misc.obj
 0002:000b3ee0       ?Restore@idFuncAASObstacle@@QAEXPAVidRestoreGame@@@Z 1027dee0 f   Misc.obj
 0002:000b3f90       ?Spawn@idFuncAASObstacle@@QAEXXZ 1027df90 f   Misc.obj
 0002:000b4050       ?Event_Activate@idFuncAASObstacle@@AAEXPAVidEntity@@@Z 1027e050 f   Misc.obj
 0002:000b4110       ?CreateInstance@idFuncRadioChatter@@SAPAVidClass@@XZ 1027e110 f   Misc.obj
 0002:000b4240       ?GetType@idFuncRadioChatter@@UBEPAVidTypeInfo@@XZ 1027e240 f   Misc.obj
 0002:000b4280       ??0idFuncRadioChatter@@QAE@XZ 1027e280 f   Misc.obj
 0002:000b42f0       ??_GidFuncRadioChatter@@UAEPAXI@Z 1027e2f0 f i Misc.obj
 0002:000b42f0       ??_EidFuncRadioChatter@@UAEPAXI@Z 1027e2f0 f i Misc.obj
 0002:000b4360       ??1idFuncRadioChatter@@UAE@XZ 1027e360 f i Misc.obj
 0002:000b43b0       ?Save@idFuncRadioChatter@@QBEXPAVidSaveGame@@@Z 1027e3b0 f   Misc.obj
 0002:000b4410       ?Restore@idFuncRadioChatter@@QAEXPAVidRestoreGame@@@Z 1027e410 f   Misc.obj
 0002:000b4470       ?Spawn@idFuncRadioChatter@@QAEXXZ 1027e470 f   Misc.obj
 0002:000b44e0       ?Event_Activate@idFuncRadioChatter@@AAEXPAVidEntity@@@Z 1027e4e0 f   Misc.obj
 0002:000b46a0       ?Event_ResetRadioHud@idFuncRadioChatter@@AAEXPAVidEntity@@@Z 1027e6a0 f   Misc.obj
 0002:000b4770       ?CreateInstance@idPhantomObjects@@SAPAVidClass@@XZ 1027e770 f   Misc.obj
 0002:000b48a0       ?GetType@idPhantomObjects@@UBEPAVidTypeInfo@@XZ 1027e8a0 f   Misc.obj
 0002:000b48e0       ??0idPhantomObjects@@QAE@XZ 1027e8e0 f   Misc.obj
 0002:000b4a70       ??_EidPhantomObjects@@UAEPAXI@Z 1027ea70 f i Misc.obj
 0002:000b4a70       ??_GidPhantomObjects@@UAEPAXI@Z 1027ea70 f i Misc.obj
 0002:000b4ae0       ??1idPhantomObjects@@UAE@XZ 1027eae0 f i Misc.obj
 0002:000b4b90       ?Save@idPhantomObjects@@QBEXPAVidSaveGame@@@Z 1027eb90 f   Misc.obj
 0002:000b4d50       ?Restore@idPhantomObjects@@QAEXPAVidRestoreGame@@@Z 1027ed50 f   Misc.obj
 0002:000b4fc0       ?Spawn@idPhantomObjects@@QAEXXZ 1027efc0 f   Misc.obj
 0002:000b51c0       ?Event_Activate@idPhantomObjects@@AAEXPAVidEntity@@@Z 1027f1c0 f   Misc.obj
 0002:000b5580       ?Think@idPhantomObjects@@UAEXXZ 1027f580 f   Misc.obj
 0002:000b5bb0       ?SetGranularity@?$idList@VidVec3@@@@QAEXH@Z 1027fbb0 f i Misc.obj
 0002:000b5c90       ??A?$idList@VidVec3@@@@QAEAAVidVec3@@H@Z 1027fc90 f i Misc.obj
 0002:000b5d50       ?SetNum@?$idList@VidVec3@@@@QAEXH_N@Z 1027fd50 f i Misc.obj
 0002:000b5e00       ??0?$idEntityPtr@VidBeam@@@@QAE@XZ 1027fe00 f i Misc.obj
 0002:000b5e50       ?Save@?$idEntityPtr@VidBeam@@@@QBEXPAVidSaveGame@@@Z 1027fe50 f i Misc.obj
 0002:000b5eb0       ?Restore@?$idEntityPtr@VidBeam@@@@QAEXPAVidRestoreGame@@@Z 1027feb0 f i Misc.obj
 0002:000b5f10       ??4?$idEntityPtr@VidBeam@@@@QAEAAV0@PAVidBeam@@@Z 1027ff10 f i Misc.obj
 0002:000b5f90       ?GetEntity@?$idEntityPtr@VidBeam@@@@QBEPAVidBeam@@XZ 1027ff90 f i Misc.obj
 0002:000b6000       ?CreateInstance@idMoveable@@SAPAVidClass@@XZ 10280000 f   Moveable.obj
 0002:000b6130       ?GetType@idMoveable@@UBEPAVidTypeInfo@@XZ 10280130 f   Moveable.obj
 0002:000b6170       ??0idMoveable@@QAE@XZ      10280170 f   Moveable.obj
 0002:000b6320       ??_EidMoveable@@UAEPAXI@Z  10280320 f i Moveable.obj
 0002:000b6320       ??_GidMoveable@@UAEPAXI@Z  10280320 f i Moveable.obj
 0002:000b6390       ??1idMoveable@@UAE@XZ      10280390 f   Moveable.obj
 0002:000b6500       ?Spawn@idMoveable@@QAEXXZ  10280500 f   Moveable.obj
 0002:000b6fd0       ?SetMaterial@idClipModel@@QAEXPBVidMaterial@@@Z 10280fd0 f i Moveable.obj
 0002:000b7020       ?Save@idMoveable@@QBEXPAVidSaveGame@@@Z 10281020 f   Moveable.obj
 0002:000b7210       ?Restore@idMoveable@@QAEXPAVidRestoreGame@@@Z 10281210 f   Moveable.obj
 0002:000b7420       ?Hide@idMoveable@@UAEXXZ   10281420 f   Moveable.obj
 0002:000b74a0       ?Show@idMoveable@@UAEXXZ   102814a0 f   Moveable.obj
 0002:000b7540       ?Collide@idMoveable@@UAE_NABUtrace_s@@ABVidVec3@@@Z 10281540 f   Moveable.obj
 0002:000b7930       ?Killed@idMoveable@@UAEXPAVidEntity@@0HABVidVec3@@H@Z 10281930 f   Moveable.obj
 0002:000b7a80       ?AllowStep@idMoveable@@QBE_NXZ 10281a80 f   Moveable.obj
 0002:000b7ac0       ?BecomeNonSolid@idMoveable@@IAEXXZ 10281ac0 f   Moveable.obj
 0002:000b7b70       ?EnableDamage@idMoveable@@QAEX_NM@Z 10281b70 f   Moveable.obj
 0002:000b7c30       ??0idEventArg@@QAE@M@Z     10281c30 f i Moveable.obj
 0002:000b7c90       ?InitInitialSpline@idMoveable@@IAEXH@Z 10281c90 f   Moveable.obj
 0002:000b7e40       ??X@YAAAVidVec3@@AAV0@ABVidMat3@@@Z 10281e40 f i Moveable.obj
 0002:000b7fd0       ?FollowInitialSplinePath@idMoveable@@IAE_NXZ 10281fd0 f   Moveable.obj
 0002:000b8380       ?ACos16@idMath@@SAMM@Z     10282380 f i Moveable.obj
 0002:000b84d0       ?Think@idMoveable@@UAEXXZ  102824d0 f   Moveable.obj
 0002:000b8550       ?GetRenderModelMaterial@idMoveable@@IBEPBVidMaterial@@XZ 10282550 f   Moveable.obj
 0002:000b8630       ?WriteToSnapshot@idMoveable@@UBEXAAVidBitMsgDelta@@@Z 10282630 f   Moveable.obj
 0002:000b86b0       ?ReadFromSnapshot@idMoveable@@UAEXABVidBitMsgDelta@@@Z 102826b0 f   Moveable.obj
 0002:000b8750       ?Event_BecomeNonSolid@idMoveable@@IAEXXZ 10282750 f   Moveable.obj
 0002:000b87a0       ?Event_Activate@idMoveable@@IAEXPAVidEntity@@@Z 102827a0 f   Moveable.obj
 0002:000b8a40       ?Event_SetOwnerFromSpawnArgs@idMoveable@@IAEXXZ 10282a40 f   Moveable.obj
 0002:000b8b80       ?Event_IsAtRest@idMoveable@@IAEXXZ 10282b80 f   Moveable.obj
 0002:000b8c00       ?Event_EnableDamage@idMoveable@@IAEXM@Z 10282c00 f   Moveable.obj
 0002:000b8c80       ?CreateInstance@idBarrel@@SAPAVidClass@@XZ 10282c80 f   Moveable.obj
 0002:000b8db0       ?GetType@idBarrel@@UBEPAVidTypeInfo@@XZ 10282db0 f   Moveable.obj
 0002:000b8df0       ??0idBarrel@@QAE@XZ        10282df0 f   Moveable.obj
 0002:000b8f40       ??_GidBarrel@@UAEPAXI@Z    10282f40 f i Moveable.obj
 0002:000b8f40       ??_EidBarrel@@UAEPAXI@Z    10282f40 f i Moveable.obj
 0002:000b8fb0       ??1idBarrel@@UAE@XZ        10282fb0 f i Moveable.obj
 0002:000b9000       ?Save@idBarrel@@QBEXPAVidSaveGame@@@Z 10283000 f   Moveable.obj
 0002:000b90d0       ?Restore@idBarrel@@QAEXPAVidRestoreGame@@@Z 102830d0 f   Moveable.obj
 0002:000b91a0       ?BarrelThink@idBarrel@@QAEXXZ 102831a0 f   Moveable.obj
 0002:000b9770       ?ACos@idMath@@SAMM@Z       10283770 f i Moveable.obj
 0002:000b9800       _acosf                     10283800 f i Moveable.obj
 0002:000b9860       ?Think@idBarrel@@UAEXXZ    10283860 f   Moveable.obj
 0002:000b98e0       ?GetPhysicsToVisualTransform@idBarrel@@UAE_NAAVidVec3@@AAVidMat3@@@Z 102838e0 f   Moveable.obj
 0002:000b9950       ?Spawn@idBarrel@@QAEXXZ    10283950 f   Moveable.obj
 0002:000b9af0       ?ClientPredictionThink@idBarrel@@UAEXXZ 10283af0 f   Moveable.obj
 0002:000b9b50       ?CreateInstance@idExplodingBarrel@@SAPAVidClass@@XZ 10283b50 f   Moveable.obj
 0002:000b9c80       ?GetType@idExplodingBarrel@@UBEPAVidTypeInfo@@XZ 10283c80 f   Moveable.obj
 0002:000b9cc0       ??0idExplodingBarrel@@QAE@XZ 10283cc0 f   Moveable.obj
 0002:000b9e60       ?Zero@idMat3@@QAEXXZ       10283e60 f i Moveable.obj
 0002:000b9ec0       ??_EidExplodingBarrel@@UAEPAXI@Z 10283ec0 f i Moveable.obj
 0002:000b9ec0       ??_GidExplodingBarrel@@UAEPAXI@Z 10283ec0 f i Moveable.obj
 0002:000b9f30       ??1idExplodingBarrel@@UAE@XZ 10283f30 f   Moveable.obj
 0002:000ba040       ?Save@idExplodingBarrel@@QBEXPAVidSaveGame@@@Z 10284040 f   Moveable.obj
 0002:000ba170       ?Restore@idExplodingBarrel@@QAEXPAVidRestoreGame@@@Z 10284170 f   Moveable.obj
 0002:000ba290       ?Spawn@idExplodingBarrel@@QAEXXZ 10284290 f   Moveable.obj
 0002:000ba460       ?Think@idExplodingBarrel@@UAEXXZ 10284460 f   Moveable.obj
 0002:000ba750       ?AddParticles@idExplodingBarrel@@AAEXPBD_N@Z 10284750 f   Moveable.obj
 0002:000baa40       ?AddLight@idExplodingBarrel@@AAEXPBD_N@Z 10284a40 f   Moveable.obj
 0002:000bac80       ?ExplodingEffects@idExplodingBarrel@@AAEXXZ 10284c80 f   Moveable.obj
 0002:000bae80       ?Killed@idExplodingBarrel@@UAEXPAVidEntity@@0HABVidVec3@@H@Z 10284e80 f   Moveable.obj
 0002:000bb530       ?Damage@idExplodingBarrel@@UAEXPAVidEntity@@0ABVidVec3@@PBDMH@Z 10285530 f   Moveable.obj
 0002:000bb650       ?Event_TriggerTargets@idExplodingBarrel@@AAEXXZ 10285650 f   Moveable.obj
 0002:000bb6b0       ?Event_Explode@idExplodingBarrel@@AAEXXZ 102856b0 f   Moveable.obj
 0002:000bb750       ?Event_Respawn@idExplodingBarrel@@AAEXXZ 10285750 f   Moveable.obj
 0002:000bbae0       ?Event_Activate@idExplodingBarrel@@AAEXPAVidEntity@@@Z 10285ae0 f   Moveable.obj
 0002:000bbb60       ?WriteToSnapshot@idExplodingBarrel@@UBEXAAVidBitMsgDelta@@@Z 10285b60 f   Moveable.obj
 0002:000bbbe0       ?ReadFromSnapshot@idExplodingBarrel@@UAEXABVidBitMsgDelta@@@Z 10285be0 f   Moveable.obj
 0002:000bbc80       ?ClientReceiveEvent@idExplodingBarrel@@UAE_NHHABVidBitMsg@@@Z 10285c80 f   Moveable.obj
 0002:000bbd40       ?GetNumValues@?$idCurve@VidVec3@@@@QBEHXZ 10285d40 f i Moveable.obj
 0002:000bbda0       ?GetTime@?$idCurve@VidVec3@@@@QBEMH@Z 10285da0 f i Moveable.obj
 0002:000bbe00       ?MakeUniform@?$idCurve@VidVec3@@@@QAEXM@Z 10285e00 f i Moveable.obj
 0002:000bbec0       ?ShiftTime@?$idCurve@VidVec3@@@@QAEXM@Z 10285ec0 f i Moveable.obj
 0002:000bbf70       ?CreateInstance@idMover@@SAPAVidClass@@XZ 10285f70 f   Mover.obj
 0002:000bc0a0       ?GetType@idMover@@UBEPAVidTypeInfo@@XZ 102860a0 f   Mover.obj
 0002:000bc0e0       ??0idMover@@QAE@XZ         102860e0 f   Mover.obj
 0002:000bc360       ??_GidMover@@UAEPAXI@Z     10286360 f i Mover.obj
 0002:000bc360       ??_EidMover@@UAEPAXI@Z     10286360 f i Mover.obj
 0002:000bc3d0       ??0moveState_t@idMover@@QAE@XZ 102863d0 f i Mover.obj
 0002:000bc430       ??0rotationState_t@idMover@@QAE@XZ 10286430 f i Mover.obj
 0002:000bc490       ??1idMover@@UAE@XZ         10286490 f i Mover.obj
 0002:000bc540       ?Save@idMover@@QBEXPAVidSaveGame@@@Z 10286540 f   Mover.obj
 0002:000bca00       ?Restore@idMover@@QAEXPAVidRestoreGame@@@Z 10286a00 f   Mover.obj
 0002:000bcf50       ?Event_PostRestore@idMover@@AAEXHHHHH@Z 10286f50 f   Mover.obj
 0002:000bd090       ?Spawn@idMover@@QAEXXZ     10287090 f   Mover.obj
 0002:000bd6c0       ?Hide@idMover@@UAEXXZ      102876c0 f   Mover.obj
 0002:000bd740       ?Show@idMover@@UAEXXZ      10287740 f   Mover.obj
 0002:000bd800       ?Killed@idMover@@UAEXPAVidEntity@@0HABVidVec3@@H@Z 10287800 f   Mover.obj
 0002:000bd870       ?Event_SetCallback@idMover@@AAEXXZ 10287870 f   Mover.obj
 0002:000bd970       ?VectorForDir@idMover@@AAEXMAAVidVec3@@@Z 10287970 f   Mover.obj
 0002:000bdd80       ?Set@idAngles@@QAEXMMM@Z   10287d80 f i Mover.obj
 0002:000bdde0       ?FindGuiTargets@idMover@@IAEXXZ 10287de0 f   Mover.obj
 0002:000bde50       ?SetGuiState@idMover@@IBEXPBD0@Z 10287e50 f   Mover.obj
 0002:000be060       ?Event_FindGuiTargets@idMover@@AAEXXZ 10288060 f   Mover.obj
 0002:000be0b0       ?SetGuiStates@idMover@@IAEXPBD@Z 102880b0 f   Mover.obj
 0002:000be1e0       ?Event_InitGuiTargets@idMover@@AAEXXZ 102881e0 f   Mover.obj
 0002:000be240       ?Event_StopMoving@idMover@@AAEXXZ 10288240 f   Mover.obj
 0002:000be2c0       ?DoneMoving@idMover@@MAEXXZ 102882c0 f   Mover.obj
 0002:000be390       ?UpdateMoveSound@idMover@@IAEXW4moveStage_t@1@@Z 10288390 f   Mover.obj
 0002:000be4a0       ?Event_UpdateMove@idMover@@AAEXXZ 102884a0 f   Mover.obj
 0002:000be760       ?BeginMove@idMover@@MAEXPAVidThread@@@Z 10288760 f   Mover.obj
 0002:000bebb0       ?Event_StopRotating@idMover@@AAEXXZ 10288bb0 f   Mover.obj
 0002:000bec60       ?DoneRotating@idMover@@MAEXXZ 10288c60 f   Mover.obj
 0002:000becf0       ?UpdateRotationSound@idMover@@IAEXW4moveStage_t@1@@Z 10288cf0 f   Mover.obj
 0002:000bee00       ?Event_UpdateRotation@idMover@@AAEXXZ 10288e00 f   Mover.obj
 0002:000bf1e0       ?BeginRotation@idMover@@MAEXPAVidThread@@_N@Z 102891e0 f   Mover.obj
 0002:000bf620       ??GidAngles@@QBE?AV0@ABV0@@Z 10289620 f i Mover.obj
 0002:000bf6b0       ??DidAngles@@QBE?AV0@M@Z   102896b0 f i Mover.obj
 0002:000bf740       ??8idAngles@@QBE_NABV0@@Z  10289740 f i Mover.obj
 0002:000bf7a0       ?Compare@idAngles@@QBE_NABV1@@Z 102897a0 f i Mover.obj
 0002:000bf850       ?Event_TeamBlocked@idMover@@AAEXPAVidEntity@@0@Z 10289850 f   Mover.obj
 0002:000bf900       ?Event_PartBlocked@idMover@@IAEXPAVidEntity@@@Z 10289900 f   Mover.obj
 0002:000bfa00       ?Event_SetMoveSpeed@idMover@@AAEXM@Z 10289a00 f   Mover.obj
 0002:000bfaa0       ?Event_SetMoveTime@idMover@@AAEXM@Z 10289aa0 f   Mover.obj
 0002:000bfb50       ?Event_SetAccellerationTime@idMover@@AAEXM@Z 10289b50 f   Mover.obj
 0002:000bfbf0       ?Event_SetDecelerationTime@idMover@@AAEXM@Z 10289bf0 f   Mover.obj
 0002:000bfc90       ?Event_MoveTo@idMover@@AAEXPAVidEntity@@@Z 10289c90 f   Mover.obj
 0002:000bfd80       ?MoveToPos@idMover@@IAEXABVidVec3@@@Z 10289d80 f   Mover.obj
 0002:000bfe20       ?Event_MoveToPos@idMover@@AAEXAAVidVec3@@@Z 10289e20 f   Mover.obj
 0002:000bfe80       ?Event_MoveDir@idMover@@AAEXMM@Z 10289e80 f   Mover.obj
 0002:000bffb0       ?Event_MoveAccelerateTo@idMover@@AAEXMM@Z 10289fb0 f   Mover.obj
 0002:000c0230       ?Event_MoveDecelerateTo@idMover@@AAEXMM@Z 1028a230 f   Mover.obj
 0002:000c04b0       ?Event_RotateDownTo@idMover@@AAEXHM@Z 1028a4b0 f   Mover.obj
 0002:000c0630       ?Event_RotateUpTo@idMover@@AAEXHM@Z 1028a630 f   Mover.obj
 0002:000c07b0       ?Event_RotateTo@idMover@@AAEXAAVidAngles@@@Z 1028a7b0 f   Mover.obj
 0002:000c0840       ?Event_Rotate@idMover@@AAEXAAVidAngles@@@Z 1028a840 f   Mover.obj
 0002:000c09c0       ??HidAngles@@QBE?AV0@ABV0@@Z 1028a9c0 f i Mover.obj
 0002:000c0a50       ?Event_RotateOnce@idMover@@AAEXAAVidAngles@@@Z 1028aa50 f   Mover.obj
 0002:000c0b70       ?Event_Bob@idMover@@AAEXMMAAVidVec3@@@Z 1028ab70 f   Mover.obj
 0002:000c0c70       ?Event_Sway@idMover@@AAEXMMAAVidAngles@@@Z 1028ac70 f   Mover.obj
 0002:000c0e80       ??KidAngles@@QBE?AV0@M@Z   1028ae80 f i Mover.obj
 0002:000c0f20       ?Event_OpenPortal@idMover@@IAEXXZ 1028af20 f   Mover.obj
 0002:000c0f80       ?Event_ClosePortal@idMover@@IAEXXZ 1028af80 f   Mover.obj
 0002:000c0fe0       ?Event_SetAccelSound@idMover@@AAEXPBD@Z 1028afe0 f   Mover.obj
 0002:000c1020       ?Event_SetDecelSound@idMover@@AAEXPBD@Z 1028b020 f   Mover.obj
 0002:000c1060       ?Event_SetMoveSound@idMover@@AAEXPBD@Z 1028b060 f   Mover.obj
 0002:000c10a0       ?Event_EnableSplineAngles@idMover@@AAEXXZ 1028b0a0 f   Mover.obj
 0002:000c10f0       ?Event_DisableSplineAngles@idMover@@AAEXXZ 1028b0f0 f   Mover.obj
 0002:000c1140       ?Event_RemoveInitialSplineAngles@idMover@@AAEXXZ 1028b140 f   Mover.obj
 0002:000c1260       ??GidAngles@@QBE?AV0@XZ    1028b260 f i Mover.obj
 0002:000c12e0       ?Event_StartSpline@idMover@@AAEXPAVidEntity@@@Z 1028b2e0 f   Mover.obj
 0002:000c1500       ?Event_StopSpline@idMover@@AAEXXZ 1028b500 f   Mover.obj
 0002:000c1580       ?Event_Activate@idMover@@AAEXPAVidEntity@@@Z 1028b580 f   Mover.obj
 0002:000c15f0       ?Event_IsMoving@idMover@@AAEXXZ 1028b5f0 f   Mover.obj
 0002:000c1670       ?Event_IsRotating@idMover@@AAEXXZ 1028b670 f   Mover.obj
 0002:000c16f0       ?WriteToSnapshot@idMover@@UBEXAAVidBitMsgDelta@@@Z 1028b6f0 f   Mover.obj
 0002:000c17c0       ?ReadFromSnapshot@idMover@@UAEXABVidBitMsgDelta@@@Z 1028b7c0 f   Mover.obj
 0002:000c1900       ?SetPortalState@idMover@@QAEX_N@Z 1028b900 f   Mover.obj
 0002:000c19b0       ?CreateInstance@idSplinePath@@SAPAVidClass@@XZ 1028b9b0 f   Mover.obj
 0002:000c1ae0       ?GetType@idSplinePath@@UBEPAVidTypeInfo@@XZ 1028bae0 f   Mover.obj
 0002:000c1b20       ??0idSplinePath@@QAE@XZ    1028bb20 f   Mover.obj
 0002:000c1b80       ??_GidSplinePath@@UAEPAXI@Z 1028bb80 f i Mover.obj
 0002:000c1b80       ??_EidSplinePath@@UAEPAXI@Z 1028bb80 f i Mover.obj
 0002:000c1bf0       ??1idSplinePath@@UAE@XZ    1028bbf0 f i Mover.obj
 0002:000c1c40       ?Spawn@idSplinePath@@QAEXXZ 1028bc40 f   Mover.obj
 0002:000c1c80       ?CreateInstance@idElevator@@SAPAVidClass@@XZ 1028bc80 f   Mover.obj
 0002:000c1db0       ?GetType@idElevator@@UBEPAVidTypeInfo@@XZ 1028bdb0 f   Mover.obj
 0002:000c1df0       ??0idElevator@@QAE@XZ      1028bdf0 f   Mover.obj
 0002:000c1f30       ??_GidElevator@@UAEPAXI@Z  1028bf30 f i Mover.obj
 0002:000c1f30       ??_EidElevator@@UAEPAXI@Z  1028bf30 f i Mover.obj
 0002:000c1fa0       ??1idElevator@@UAE@XZ      1028bfa0 f i Mover.obj
 0002:000c2040       ?Save@idElevator@@QBEXPAVidSaveGame@@@Z 1028c040 f   Mover.obj
 0002:000c2200       ?Restore@idElevator@@QAEXPAVidRestoreGame@@@Z 1028c200 f   Mover.obj
 0002:000c2410       ??0floorInfo_s@@QAE@XZ     1028c410 f i Mover.obj
 0002:000c2470       ??1floorInfo_s@@QAE@XZ     1028c470 f i Mover.obj
 0002:000c24d0       ?Spawn@idElevator@@QAEXXZ  1028c4d0 f   Mover.obj
 0002:000c2880       ?Event_Touch@idElevator@@IAEXPAVidEntity@@PAUtrace_s@@@Z 1028c880 f   Mover.obj
 0002:000c29b0       ?Think@idElevator@@EAEXXZ  1028c9b0 f   Mover.obj
 0002:000c2ce0       ?Event_Activate@idElevator@@AAEXPAVidEntity@@@Z 1028cce0 f   Mover.obj
 0002:000c2d90       ?Event_TeamBlocked@idElevator@@AAEXPAVidEntity@@0@Z 1028cd90 f   Mover.obj
 0002:000c2ea0       ?GetMoveMaster@idMover_Binary@@QBEPAV1@XZ 1028cea0 f i Mover.obj
 0002:000c2ee0       ?HandleSingleGuiCommand@idElevator@@UAE_NPAVidEntity@@PAVidLexer@@@Z 1028cee0 f   Mover.obj
 0002:000c31f0       ?OpenFloorDoor@idElevator@@AAEXH@Z 1028d1f0 f   Mover.obj
 0002:000c3280       ?OpenInnerDoor@idElevator@@AAEXXZ 1028d280 f   Mover.obj
 0002:000c3300       ?GetFloorInfo@idElevator@@QAEPAUfloorInfo_s@@H@Z 1028d300 f   Mover.obj
 0002:000c33c0       ?Event_GotoFloor@idElevator@@QAEXH@Z 1028d3c0 f   Mover.obj
 0002:000c34e0       ?BeginMove@idElevator@@MAEXPAVidThread@@@Z 1028d4e0 f   Mover.obj
 0002:000c3750       ?GetDoor@idElevator@@AAEPAVidDoor@@PBD@Z 1028d750 f   Mover.obj
 0002:000c3840       ?Event_PostFloorArrival@idElevator@@AAEXXZ 1028d840 f   Mover.obj
 0002:000c3960       ?Event_SetGuiStates@idElevator@@AAEXXZ 1028d960 f   Mover.obj
 0002:000c39f0       ?DoneMoving@idElevator@@MAEXXZ 1028d9f0 f   Mover.obj
 0002:000c3c80       ?CloseAllDoors@idElevator@@AAEXXZ 1028dc80 f   Mover.obj
 0002:000c3d80       ?DisableAllDoors@idElevator@@AAEXXZ 1028dd80 f   Mover.obj
 0002:000c3e80       ?EnableProperDoors@idElevator@@AAEXXZ 1028de80 f   Mover.obj
 0002:000c3fb0       ?CreateInstance@idMover_Binary@@SAPAVidClass@@XZ 1028dfb0 f   Mover.obj
 0002:000c40e0       ?GetType@idMover_Binary@@UBEPAVidTypeInfo@@XZ 1028e0e0 f   Mover.obj
 0002:000c4120       ??0idMover_Binary@@QAE@XZ  1028e120 f   Mover.obj
 0002:000c43e0       ??_GidMover_Binary@@UAEPAXI@Z 1028e3e0 f i Mover.obj
 0002:000c43e0       ??_EidMover_Binary@@UAEPAXI@Z 1028e3e0 f i Mover.obj
 0002:000c4450       ??1idMover_Binary@@UAE@XZ  1028e450 f   Mover.obj
 0002:000c45f0       ?Save@idMover_Binary@@QBEXPAVidSaveGame@@@Z 1028e5f0 f   Mover.obj
 0002:000c4990       ?Restore@idMover_Binary@@QAEXPAVidRestoreGame@@@Z 1028e990 f   Mover.obj
 0002:000c4dd0       ?Spawn@idMover_Binary@@QAEXXZ 1028edd0 f   Mover.obj
 0002:000c54f0       ?GetMovedir@idMover_Binary@@KAXMAAVidVec3@@@Z 1028f4f0 f   Mover.obj
 0002:000c55b0       ?Event_SetCallback@idMover_Binary@@IAEXXZ 1028f5b0 f   Mover.obj
 0002:000c5640       ?UpdateMoverSound@idMover_Binary@@IAEXW4moverState_t@@@Z 1028f640 f   Mover.obj
 0002:000c5700       ?SetMoverState@idMover_Binary@@IAEXW4moverState_t@@H@Z 1028f700 f   Mover.obj
 0002:000c5b40       ?MatchActivateTeam@idMover_Binary@@IAEXW4moverState_t@@H@Z 1028fb40 f   Mover.obj
 0002:000c5bc0       ?Enable@idMover_Binary@@QAEX_N@Z 1028fbc0 f   Mover.obj
 0002:000c5c10       ?Event_MatchActivateTeam@idMover_Binary@@IAEXW4moverState_t@@H@Z 1028fc10 f   Mover.obj
 0002:000c5c70       ?BindTeam@idMover_Binary@@QAEXPAVidEntity@@@Z 1028fc70 f   Mover.obj
 0002:000c5cf0       ?JoinActivateTeam@idMover_Binary@@IAEXPAV1@@Z 1028fcf0 f   Mover.obj
 0002:000c5d50       ?Event_Enable@idMover_Binary@@IAEXXZ 1028fd50 f   Mover.obj
 0002:000c5dd0       ?Event_Disable@idMover_Binary@@IAEXXZ 1028fdd0 f   Mover.obj
 0002:000c5e50       ?Event_OpenPortal@idMover_Binary@@IAEXXZ 1028fe50 f   Mover.obj
 0002:000c5ee0       ?Event_ClosePortal@idMover_Binary@@IAEXXZ 1028fee0 f   Mover.obj
 0002:000c5f80       ?Event_ReturnToPos1@idMover_Binary@@IAEXXZ 1028ff80 f   Mover.obj
 0002:000c5fe0       ?Event_Reached_BinaryMover@idMover_Binary@@IAEXXZ 1028ffe0 f   Mover.obj
 0002:000c62a0       ?GotoPosition1@idMover_Binary@@QAEXXZ 102902a0 f   Mover.obj
 0002:000c64c0       ?GotoPosition2@idMover_Binary@@QAEXXZ 102904c0 f   Mover.obj
 0002:000c66a0       ?UpdateBuddies@idMover_Binary@@QAEXH@Z 102906a0 f   Mover.obj
 0002:000c6790       ?SetGuiStates@idMover_Binary@@QAEXPBD@Z 10290790 f   Mover.obj
 0002:000c6860       ?Use_BinaryMover@idMover_Binary@@QAEXPAVidEntity@@@Z 10290860 f   Mover.obj
 0002:000c6a70       ?Event_Use_BinaryMover@idMover_Binary@@IAEXPAVidEntity@@@Z 10290a70 f   Mover.obj
 0002:000c6ad0       ?PreBind@idMover_Binary@@UAEXXZ 10290ad0 f   Mover.obj
 0002:000c6b80       ?PostBind@idMover_Binary@@UAEXXZ 10290b80 f   Mover.obj
 0002:000c6c30       ?FindGuiTargets@idMover_Binary@@IAEXXZ 10290c30 f   Mover.obj
 0002:000c6ca0       ?SetGuiState@idMover_Binary@@IBEXPBD0@Z 10290ca0 f   Mover.obj
 0002:000c6e90       ?Event_FindGuiTargets@idMover_Binary@@IAEXXZ 10290e90 f   Mover.obj
 0002:000c6ee0       ?Event_InitGuiTargets@idMover_Binary@@IAEXXZ 10290ee0 f   Mover.obj
 0002:000c6f60       ?InitSpeed@idMover_Binary@@QAEXAAVidVec3@@0MMM@Z 10290f60 f   Mover.obj
 0002:000c71d0       ?InitTime@idMover_Binary@@QAEXAAVidVec3@@0MMM@Z 102911d0 f   Mover.obj
 0002:000c7390       ?SetBlocked@idMover_Binary@@QAEX_N@Z 10291390 f   Mover.obj
 0002:000c74d0       ?IsBlocked@idMover_Binary@@QAE_NXZ 102914d0 f   Mover.obj
 0002:000c7510       ?GetActivator@idMover_Binary@@QBEPAVidEntity@@XZ 10291510 f   Mover.obj
 0002:000c7570       ?WriteToSnapshot@idMover_Binary@@UBEXAAVidBitMsgDelta@@@Z 10291570 f   Mover.obj
 0002:000c7610       ?ReadFromSnapshot@idMover_Binary@@UAEXABVidBitMsgDelta@@@Z 10291610 f   Mover.obj
 0002:000c7700       ?SetPortalState@idMover_Binary@@QAEX_N@Z 10291700 f   Mover.obj
 0002:000c77b0       ?CreateInstance@idDoor@@SAPAVidClass@@XZ 102917b0 f   Mover.obj
 0002:000c78e0       ?GetType@idDoor@@UBEPAVidTypeInfo@@XZ 102918e0 f   Mover.obj
 0002:000c7920       ??0idDoor@@QAE@XZ          10291920 f   Mover.obj
 0002:000c7b10       ??_GidDoor@@UAEPAXI@Z      10291b10 f i Mover.obj
 0002:000c7b10       ??_EidDoor@@UAEPAXI@Z      10291b10 f i Mover.obj
 0002:000c7b80       ??1idDoor@@UAE@XZ          10291b80 f   Mover.obj
 0002:000c7d20       ?Save@idDoor@@QBEXPAVidSaveGame@@@Z 10291d20 f   Mover.obj
 0002:000c7ed0       ?Restore@idDoor@@QAEXPAVidRestoreGame@@@Z 10291ed0 f   Mover.obj
 0002:000c8070       ?Spawn@idDoor@@QAEXXZ      10292070 f   Mover.obj
 0002:000c8940       ?Think@idDoor@@UAEXXZ      10292940 f   Mover.obj
 0002:000c8b50       ?PreBind@idDoor@@UAEXXZ    10292b50 f   Mover.obj
 0002:000c8ba0       ?PostBind@idDoor@@UAEXXZ   10292ba0 f   Mover.obj
 0002:000c8c40       ?SetAASAreaState@idDoor@@AAEX_N@Z 10292c40 f   Mover.obj
 0002:000c8ce0       ?Hide@idDoor@@UAEXXZ       10292ce0 f   Mover.obj
 0002:000c8eb0       ?Disable@idClipModel@@QAEXXZ 10292eb0 f i Mover.obj
 0002:000c8ef0       ?GetActivateChain@idMover_Binary@@QBEPAV1@XZ 10292ef0 f i Mover.obj
 0002:000c8f30       ?Show@idDoor@@UAEXXZ       10292f30 f   Mover.obj
 0002:000c9140       ?Enable@idClipModel@@QAEXXZ 10293140 f i Mover.obj
 0002:000c9180       ?GetLocalTriggerPosition@idDoor@@AAEXPBVidClipModel@@@Z 10293180 f   Mover.obj
 0002:000c92f0       ?Use@idDoor@@QAEXPAVidEntity@@0@Z 102932f0 f   Mover.obj
 0002:000c9400       ?Open@idDoor@@QAEXXZ       10293400 f   Mover.obj
 0002:000c9450       ?Close@idDoor@@QAEXXZ      10293450 f   Mover.obj
 0002:000c94a0       ?Lock@idDoor@@QAEXH@Z      102934a0 f   Mover.obj
 0002:000c9650       ?IsLocked@idDoor@@QAEHXZ   10293650 f   Mover.obj
 0002:000c96b0       ?IsOpen@idDoor@@QAE_NXZ    102936b0 f   Mover.obj
 0002:000c9700       ?IsNoTouch@idDoor@@QAE_NXZ 10293700 f   Mover.obj
 0002:000c9740       ?CalcTriggerBounds@idDoor@@AAEXMAAVidBounds@@@Z 10293740 f   Mover.obj
 0002:000c9a70       ?Event_StartOpen@idDoor@@AAEXXZ 10293a70 f   Mover.obj
 0002:000c9c10       ?Event_SpawnDoorTrigger@idDoor@@AAEXXZ 10293c10 f   Mover.obj
 0002:000c9f70       ?Event_SpawnSoundTrigger@idDoor@@AAEXXZ 10293f70 f   Mover.obj
 0002:000ca180       ?Event_Reached_BinaryMover@idDoor@@AAEXXZ 10294180 f   Mover.obj
 0002:000ca350       ?Event_TeamBlocked@idDoor@@AAEXPAVidEntity@@0@Z 10294350 f   Mover.obj
 0002:000ca420       ?SetCompanion@idDoor@@QAEXPAV1@@Z 10294420 f   Mover.obj
 0002:000ca470       ?Event_PartBlocked@idDoor@@AAEXPAVidEntity@@@Z 10294470 f   Mover.obj
 0002:000ca520       ?Event_Touch@idDoor@@AAEXPAVidEntity@@PAUtrace_s@@@Z 10294520 f   Mover.obj
 0002:000ca7a0       ?GetMoverState@idMover_Binary@@IBE?AW4moverState_t@@XZ 102947a0 f i Mover.obj
 0002:000ca7e0       ?Event_SpectatorTouch@idDoor@@AAEXPAVidEntity@@PAUtrace_s@@@Z 102947e0 f   Mover.obj
 0002:000cab60       ?Event_Activate@idDoor@@AAEXPAVidEntity@@@Z 10294b60 f   Mover.obj
 0002:000cad30       ?Event_Open@idDoor@@AAEXXZ 10294d30 f   Mover.obj
 0002:000cad80       ?Event_Close@idDoor@@AAEXXZ 10294d80 f   Mover.obj
 0002:000cadd0       ?Event_Lock@idDoor@@AAEXH@Z 10294dd0 f   Mover.obj
 0002:000cae30       ?Event_IsOpen@idDoor@@AAEXXZ 10294e30 f   Mover.obj
 0002:000caeb0       ?Event_Locked@idDoor@@AAEXXZ 10294eb0 f   Mover.obj
 0002:000caf30       ?Event_OpenPortal@idDoor@@AAEXXZ 10294f30 f   Mover.obj
 0002:000cafe0       ?Event_ClosePortal@idDoor@@AAEXXZ 10294fe0 f   Mover.obj
 0002:000cb0f0       ?CreateInstance@idPlat@@SAPAVidClass@@XZ 102950f0 f   Mover.obj
 0002:000cb220       ?GetType@idPlat@@UBEPAVidTypeInfo@@XZ 10295220 f   Mover.obj
 0002:000cb260       ??0idPlat@@QAE@XZ          10295260 f   Mover.obj
 0002:000cb350       ??_EidPlat@@UAEPAXI@Z      10295350 f i Mover.obj
 0002:000cb350       ??_GidPlat@@UAEPAXI@Z      10295350 f i Mover.obj
 0002:000cb3c0       ??1idPlat@@UAE@XZ          102953c0 f   Mover.obj
 0002:000cb4c0       ?Save@idPlat@@QBEXPAVidSaveGame@@@Z 102954c0 f   Mover.obj
 0002:000cb550       ?Restore@idPlat@@QAEXPAVidRestoreGame@@@Z 10295550 f   Mover.obj
 0002:000cb5e0       ?Spawn@idPlat@@QAEXXZ      102955e0 f   Mover.obj
 0002:000cba10       ?Think@idPlat@@UAEXXZ      10295a10 f   Mover.obj
 0002:000cbb90       ?PreBind@idPlat@@UAEXXZ    10295b90 f   Mover.obj
 0002:000cbbe0       ?PostBind@idPlat@@UAEXXZ   10295be0 f   Mover.obj
 0002:000cbc50       ?GetLocalTriggerPosition@idPlat@@AAEXPBVidClipModel@@@Z 10295c50 f   Mover.obj
 0002:000cbdc0       ?SpawnPlatTrigger@idPlat@@AAEXAAVidVec3@@@Z 10295dc0 f   Mover.obj
 0002:000cc2f0       ?Event_Touch@idPlat@@AAEXPAVidEntity@@PAUtrace_s@@@Z 102962f0 f   Mover.obj
 0002:000cc3b0       ?Event_TeamBlocked@idPlat@@AAEXPAVidEntity@@0@Z 102963b0 f   Mover.obj
 0002:000cc420       ?Event_PartBlocked@idPlat@@AAEXPAVidEntity@@@Z 10296420 f   Mover.obj
 0002:000cc4d0       ?CreateInstance@idMover_Periodic@@SAPAVidClass@@XZ 102964d0 f   Mover.obj
 0002:000cc600       ?GetType@idMover_Periodic@@UBEPAVidTypeInfo@@XZ 10296600 f   Mover.obj
 0002:000cc640       ??0idMover_Periodic@@QAE@XZ 10296640 f   Mover.obj
 0002:000cc720       ??_GidMover_Periodic@@UAEPAXI@Z 10296720 f i Mover.obj
 0002:000cc720       ??_EidMover_Periodic@@UAEPAXI@Z 10296720 f i Mover.obj
 0002:000cc790       ??1idMover_Periodic@@UAE@XZ 10296790 f i Mover.obj
 0002:000cc830       ?Spawn@idMover_Periodic@@QAEXXZ 10296830 f   Mover.obj
 0002:000cc900       ?Save@idMover_Periodic@@QBEXPAVidSaveGame@@@Z 10296900 f   Mover.obj
 0002:000cc980       ?Restore@idMover_Periodic@@QAEXPAVidRestoreGame@@@Z 10296980 f   Mover.obj
 0002:000cca10       ?Think@idMover_Periodic@@UAEXXZ 10296a10 f   Mover.obj
 0002:000cca90       ?Event_TeamBlocked@idMover_Periodic@@IAEXPAVidEntity@@0@Z 10296a90 f   Mover.obj
 0002:000ccad0       ?Event_PartBlocked@idMover_Periodic@@IAEXPAVidEntity@@@Z 10296ad0 f   Mover.obj
 0002:000ccb80       ?WriteToSnapshot@idMover_Periodic@@UBEXAAVidBitMsgDelta@@@Z 10296b80 f   Mover.obj
 0002:000ccc10       ?ReadFromSnapshot@idMover_Periodic@@UAEXABVidBitMsgDelta@@@Z 10296c10 f   Mover.obj
 0002:000cccc0       ?CreateInstance@idRotater@@SAPAVidClass@@XZ 10296cc0 f   Mover.obj
 0002:000ccdf0       ?GetType@idRotater@@UBEPAVidTypeInfo@@XZ 10296df0 f   Mover.obj
 0002:000cce30       ??0idRotater@@QAE@XZ       10296e30 f   Mover.obj
 0002:000ccef0       ??_EidRotater@@UAEPAXI@Z   10296ef0 f i Mover.obj
 0002:000ccef0       ??_GidRotater@@UAEPAXI@Z   10296ef0 f i Mover.obj
 0002:000ccf60       ??1idRotater@@UAE@XZ       10296f60 f i Mover.obj
 0002:000ccfb0       ?Spawn@idRotater@@QAEXXZ   10296fb0 f   Mover.obj
 0002:000cd380       ?Save@idRotater@@QBEXPAVidSaveGame@@@Z 10297380 f   Mover.obj
 0002:000cd3e0       ?Restore@idRotater@@QAEXPAVidRestoreGame@@@Z 102973e0 f   Mover.obj
 0002:000cd440       ?Event_Activate@idRotater@@AAEXPAVidEntity@@@Z 10297440 f   Mover.obj
 0002:000cd6b0       ?CreateInstance@idBobber@@SAPAVidClass@@XZ 102976b0 f   Mover.obj
 0002:000cd7e0       ?GetType@idBobber@@UBEPAVidTypeInfo@@XZ 102977e0 f   Mover.obj
 0002:000cd820       ??0idBobber@@QAE@XZ        10297820 f   Mover.obj
 0002:000cd880       ??_EidBobber@@UAEPAXI@Z    10297880 f i Mover.obj
 0002:000cd880       ??_GidBobber@@UAEPAXI@Z    10297880 f i Mover.obj
 0002:000cd8f0       ??1idBobber@@UAE@XZ        102978f0 f i Mover.obj
 0002:000cd940       ?Spawn@idBobber@@QAEXXZ    10297940 f   Mover.obj
 0002:000cde30       ?CreateInstance@idPendulum@@SAPAVidClass@@XZ 10297e30 f   Mover.obj
 0002:000cdf60       ?GetType@idPendulum@@UBEPAVidTypeInfo@@XZ 10297f60 f   Mover.obj
 0002:000cdfa0       ??0idPendulum@@QAE@XZ      10297fa0 f   Mover.obj
 0002:000ce000       ??_EidPendulum@@UAEPAXI@Z  10298000 f i Mover.obj
 0002:000ce000       ??_GidPendulum@@UAEPAXI@Z  10298000 f i Mover.obj
 0002:000ce070       ??1idPendulum@@UAE@XZ      10298070 f i Mover.obj
 0002:000ce0c0       ?Spawn@idPendulum@@QAEXXZ  102980c0 f   Mover.obj
 0002:000ce640       ?CreateInstance@idRiser@@SAPAVidClass@@XZ 10298640 f   Mover.obj
 0002:000ce770       ?GetType@idRiser@@UBEPAVidTypeInfo@@XZ 10298770 f   Mover.obj
 0002:000ce7b0       ??0idRiser@@QAE@XZ         102987b0 f   Mover.obj
 0002:000ce810       ??_GidRiser@@UAEPAXI@Z     10298810 f i Mover.obj
 0002:000ce810       ??_EidRiser@@UAEPAXI@Z     10298810 f i Mover.obj
 0002:000ce880       ??1idRiser@@UAE@XZ         10298880 f i Mover.obj
 0002:000ce8d0       ?Spawn@idRiser@@QAEXXZ     102988d0 f   Mover.obj
 0002:000cec30       ?Event_Activate@idRiser@@AAEXPAVidEntity@@@Z 10298c30 f   Mover.obj
 0002:000cee20       ??0?$idList@UfloorInfo_s@@@@QAE@H@Z 10298e20 f i Mover.obj
 0002:000ceec0       ??1?$idList@UfloorInfo_s@@@@QAE@XZ 10298ec0 f i Mover.obj
 0002:000cef10       ?Clear@?$idList@UfloorInfo_s@@@@QAEXXZ 10298f10 f i Mover.obj
 0002:000cefe0       ?Num@?$idList@UfloorInfo_s@@@@QBEHXZ 10298fe0 f i Mover.obj
 0002:000cf020       ??A?$idList@UfloorInfo_s@@@@QAEAAUfloorInfo_s@@H@Z 10299020 f i Mover.obj
 0002:000cf0e0       ??A?$idList@UfloorInfo_s@@@@QBEABUfloorInfo_s@@H@Z 102990e0 f i Mover.obj
 0002:000cf1a0       ?Append@?$idList@UfloorInfo_s@@@@QAEHABUfloorInfo_s@@@Z 102991a0 f i Mover.obj
 0002:000cf2a0       ??_EfloorInfo_s@@QAEPAXI@Z 102992a0 f i Mover.obj
 0002:000cf360       ??4floorInfo_s@@QAEAAU0@ABU0@@Z 10299360 f i Mover.obj
 0002:000cf3e0       ?Resize@?$idList@UfloorInfo_s@@@@QAEXH@Z 102993e0 f i Mover.obj
 0002:000cf640       ??0idMultiplayerGame@@QAE@XZ 10299640 f   MultiplayerGame.obj
 0002:000cf7b0       ??0mpChatLine_s@@QAE@XZ    102997b0 f i MultiplayerGame.obj
 0002:000cf810       ?Shutdown@idMultiplayerGame@@QAEXXZ 10299810 f   MultiplayerGame.obj
 0002:000cf860       ?SetMenuSkin@idMultiplayerGame@@QAEXXZ 10299860 f   MultiplayerGame.obj
 0002:000cfc50       ?Reset@idMultiplayerGame@@QAEXXZ 10299c50 f   MultiplayerGame.obj
 0002:000cffb0       ?ServerClientConnect@idMultiplayerGame@@QAEXH@Z 10299fb0 f   MultiplayerGame.obj
 0002:000d0020       ?SpawnPlayer@idMultiplayerGame@@QAEXH@Z 1029a020 f   MultiplayerGame.obj
 0002:000d0160       ?Clear@idMultiplayerGame@@AAEXXZ 1029a160 f   MultiplayerGame.obj
 0002:000d0420       ?ClearGuis@idMultiplayerGame@@AAEXXZ 1029a420 f   MultiplayerGame.obj
 0002:000d0840       ?UpdatePlayerRanks@idMultiplayerGame@@AAEXXZ 1029a840 f   MultiplayerGame.obj
 0002:000d0c40       ?UpdateRankColor@idMultiplayerGame@@AAEXPAVidUserInterface@@PBDHABVidVec3@@@Z 1029ac40 f   MultiplayerGame.obj
 0002:000d0d00       ?UpdateScoreboard@idMultiplayerGame@@AAEXPAVidUserInterface@@PAVidPlayer@@@Z 1029ad00 f   MultiplayerGame.obj
 0002:000d1f50       ?ClampInt@idMath@@SAHHHH@Z 1029bf50 f i MultiplayerGame.obj
 0002:000d1fb0       ?IsReady@idPlayer@@QAE_NXZ 1029bfb0 f i MultiplayerGame.obj
 0002:000d2030       ?GameTime@idMultiplayerGame@@AAEPBDXZ 1029c030 f   MultiplayerGame.obj
 0002:000d21f0       ?NumActualClients@idMultiplayerGame@@QAEH_NPAH@Z 1029c1f0 f   MultiplayerGame.obj
 0002:000d2350       ?EnoughClientsToPlay@idMultiplayerGame@@AAE_NXZ 1029c350 f   MultiplayerGame.obj
 0002:000d2440       ?AllPlayersReady@idMultiplayerGame@@AAE_NXZ 1029c440 f   MultiplayerGame.obj
 0002:000d2620       ?FragLimitHit@idMultiplayerGame@@AAEPAVidPlayer@@XZ 1029c620 f   MultiplayerGame.obj
 0002:000d2800       ?TimeLimitHit@idMultiplayerGame@@AAE_NXZ 1029c800 f   MultiplayerGame.obj
 0002:000d28a0       ?FragLeader@idMultiplayerGame@@AAEPAVidPlayer@@XZ 1029c8a0 f   MultiplayerGame.obj
 0002:000d2cd0       ?SetLeader@idPlayer@@QAEX_N@Z 1029ccd0 f i MultiplayerGame.obj
 0002:000d2d20       ?UpdateWinsLosses@idMultiplayerGame@@AAEXPAVidPlayer@@@Z 1029cd20 f   MultiplayerGame.obj
 0002:000d3030       ?TeamScore@idMultiplayerGame@@AAEXHHH@Z 1029d030 f   MultiplayerGame.obj
 0002:000d3140       ?PlayerDeath@idMultiplayerGame@@QAEXPAVidPlayer@@0_N@Z 1029d140 f   MultiplayerGame.obj
 0002:000d33f0       ?PlayerStats@idMultiplayerGame@@QAEXHPADH@Z 1029d3f0 f   MultiplayerGame.obj
 0002:000d34e0       ?PlayerVote@idMultiplayerGame@@QAEXHW4playerVote_t@@@Z 1029d4e0 f   MultiplayerGame.obj
 0002:000d3530       ?DumpTourneyLine@idMultiplayerGame@@AAEXXZ 1029d530 f   MultiplayerGame.obj
 0002:000d3620       ?NewState@idMultiplayerGame@@AAEXW4gameState_t@1@PAVidPlayer@@@Z 1029d620 f   MultiplayerGame.obj
 0002:000d3d00       ?FillTourneySlots@idMultiplayerGame@@AAEXXZ 1029dd00 f   MultiplayerGame.obj
 0002:000d3ef0       ?UpdateTourneyLine@idMultiplayerGame@@AAEXXZ 1029def0 f   MultiplayerGame.obj
 0002:000d41b0       ?CycleTourneyPlayers@idMultiplayerGame@@AAEXXZ 1029e1b0 f   MultiplayerGame.obj
 0002:000d4350       ?ExecuteVote@idMultiplayerGame@@QAEXXZ 1029e350 f   MultiplayerGame.obj
 0002:000d46b0       ?CheckVote@idMultiplayerGame@@AAEXXZ 1029e6b0 f   MultiplayerGame.obj
 0002:000d4930       ?Warmup@idMultiplayerGame@@AAE_NXZ 1029e930 f   MultiplayerGame.obj
 0002:000d4980       ?Run@idMultiplayerGame@@QAEXXZ 1029e980 f   MultiplayerGame.obj
 0002:000d5120       ?UpdateMainGui@idMultiplayerGame@@QAEXXZ 1029f120 f   MultiplayerGame.obj
 0002:000d56c0       ?StartMenu@idMultiplayerGame@@QAEPAVidUserInterface@@XZ 1029f6c0 f   MultiplayerGame.obj
 0002:000d5c00       ?DisableMenu@idMultiplayerGame@@AAEXXZ 1029fc00 f   MultiplayerGame.obj
 0002:000d5d30       ?SetMapShot@idMultiplayerGame@@AAEXXZ 1029fd30 f   MultiplayerGame.obj
 0002:000d5f00       ?HandleGuiCommands@idMultiplayerGame@@QAEPBDPBD@Z 1029ff00 f   MultiplayerGame.obj
 0002:000d73f0       ??0idCmdArgs@@QAE@XZ       102a13f0 f i MultiplayerGame.obj
 0002:000d7440       ?Argc@idCmdArgs@@QBEHXZ    102a1440 f i MultiplayerGame.obj
 0002:000d7480       ?Draw@idMultiplayerGame@@QAE_NH@Z 102a1480 f   MultiplayerGame.obj
 0002:000d7cd0       ?UpdateHud@idMultiplayerGame@@AAEXPAVidPlayer@@PAVidUserInterface@@@Z 102a1cd0 f   MultiplayerGame.obj
 0002:000d8260       ?DrawScoreBoard@idMultiplayerGame@@AAEXPAVidPlayer@@@Z 102a2260 f   MultiplayerGame.obj
 0002:000d83b0       ?ClearChatData@idMultiplayerGame@@AAEXXZ 102a23b0 f   MultiplayerGame.obj
 0002:000d8420       ?AddChatLine@idMultiplayerGame@@QAAXPBDZZ 102a2420 f   MultiplayerGame.obj
 0002:000d8600       ?DrawChat@idMultiplayerGame@@AAEXXZ 102a2600 f   MultiplayerGame.obj
 0002:000d8980       ?WriteToSnapshot@idMultiplayerGame@@QBEXAAVidBitMsgDelta@@@Z 102a2980 f   MultiplayerGame.obj
 0002:000d8b40       ?ReadFromSnapshot@idMultiplayerGame@@QAEXABVidBitMsgDelta@@@Z 102a2b40 f   MultiplayerGame.obj
 0002:000d8d70       ?PlayGlobalSound@idMultiplayerGame@@QAEXHW4snd_evt_t@@PBD@Z 102a2d70 f   MultiplayerGame.obj
 0002:000d8fe0       ?PrintMessageEvent@idMultiplayerGame@@QAEXHW4msg_evt_t@1@HH@Z 102a2fe0 f   MultiplayerGame.obj
 0002:000d99c0       ?SuddenRespawn@idMultiplayerGame@@AAEXXZ 102a39c0 f   MultiplayerGame.obj
 0002:000d9ad0       ?CheckRespawns@idMultiplayerGame@@AAEXPAVidPlayer@@@Z 102a3ad0 f   MultiplayerGame.obj
 0002:000da050       ?IsLeader@idPlayer@@QAE_NXZ 102a4050 f i MultiplayerGame.obj
 0002:000da090       ?ForceReady@idMultiplayerGame@@AAEXXZ 102a4090 f   MultiplayerGame.obj
 0002:000da170       ?ForceReady_f@idMultiplayerGame@@SAXABVidCmdArgs@@@Z 102a4170 f   MultiplayerGame.obj
 0002:000da210       ?DropWeapon@idMultiplayerGame@@QAEXH@Z 102a4210 f   MultiplayerGame.obj
 0002:000da2d0       ?DropWeapon_f@idMultiplayerGame@@SAXABVidCmdArgs@@@Z 102a42d0 f   MultiplayerGame.obj
 0002:000da430       ?MessageMode_f@idMultiplayerGame@@SAXABVidCmdArgs@@@Z 102a4430 f   MultiplayerGame.obj
 0002:000da480       ?MessageMode@idMultiplayerGame@@AAEXABVidCmdArgs@@@Z 102a4480 f   MultiplayerGame.obj
 0002:000da640       ?Vote_f@idMultiplayerGame@@SAXABVidCmdArgs@@@Z 102a4640 f   MultiplayerGame.obj
 0002:000da670       ?CallVote_f@idMultiplayerGame@@SAXABVidCmdArgs@@@Z 102a4670 f   MultiplayerGame.obj
 0002:000da6a0       ?ServerStartVote@idMultiplayerGame@@QAEXHW4vote_flags_t@1@PBD@Z 102a46a0 f   MultiplayerGame.obj
 0002:000da810       ?ClientStartVote@idMultiplayerGame@@QAEXHPBD@Z 102a4810 f   MultiplayerGame.obj
 0002:000daa90       ?ClientUpdateVote@idMultiplayerGame@@QAEXW4vote_result_t@1@HH@Z 102a4a90 f   MultiplayerGame.obj
 0002:000dae20       ?ClientCallVote@idMultiplayerGame@@QAEXW4vote_flags_t@1@PBD@Z 102a4e20 f   MultiplayerGame.obj
 0002:000daf80       ?CastVote@idMultiplayerGame@@QAEXH_N@Z 102a4f80 f   MultiplayerGame.obj
 0002:000db300       ?ServerCallVote@idMultiplayerGame@@QAEXHABVidBitMsg@@@Z 102a5300 f   MultiplayerGame.obj
 0002:000dc270       ?GetMinValue@idCVar@@QBEMXZ 102a6270 f i MultiplayerGame.obj
 0002:000dc2b0       ?GetMaxValue@idCVar@@QBEMXZ 102a62b0 f i MultiplayerGame.obj
 0002:000dc2f0       ?DisconnectClient@idMultiplayerGame@@QAEXH@Z 102a62f0 f   MultiplayerGame.obj
 0002:000dc370       ?CheckAbortGame@idMultiplayerGame@@AAEXXZ 102a6370 f   MultiplayerGame.obj
 0002:000dc520       ?WantKilled@idMultiplayerGame@@QAEXH@Z 102a6520 f   MultiplayerGame.obj
 0002:000dc5b0       ?MapRestart@idMultiplayerGame@@QAEXXZ 102a65b0 f   MultiplayerGame.obj
 0002:000dc770       ?SwitchToTeam@idMultiplayerGame@@QAEXHHH@Z 102a6770 f   MultiplayerGame.obj
 0002:000dc9d0       ?IsInGame@idMultiplayerGame@@QAE_NH@Z 102a69d0 f i MultiplayerGame.obj
 0002:000dca20       ?ProcessChatMessage@idMultiplayerGame@@QAEXH_NPBD11@Z 102a6a20 f   MultiplayerGame.obj
 0002:000dcfa0       ?Precache@idMultiplayerGame@@QAEXXZ 102a6fa0 f   MultiplayerGame.obj
 0002:000dd3a0       ?ToggleSpectate@idMultiplayerGame@@QAEXXZ 102a73a0 f   MultiplayerGame.obj
 0002:000dd540       ?ToggleReady@idMultiplayerGame@@QAEXXZ 102a7540 f   MultiplayerGame.obj
 0002:000dd680       ?ToggleTeam@idMultiplayerGame@@QAEXXZ 102a7680 f   MultiplayerGame.obj
 0002:000dd7c0       ?ThrottleUserInfo@idMultiplayerGame@@QAEXXZ 102a77c0 f   MultiplayerGame.obj
 0002:000dda30       ?CanPlay@idMultiplayerGame@@QAE_NPAVidPlayer@@@Z 102a7a30 f   MultiplayerGame.obj
 0002:000ddac0       ?EnterGame@idMultiplayerGame@@QAEXH@Z 102a7ac0 f   MultiplayerGame.obj
 0002:000ddc20       ?WantRespawn@idMultiplayerGame@@QAE_NPAVidPlayer@@@Z 102a7c20 f   MultiplayerGame.obj
 0002:000ddcc0       ?VoiceChat_f@idMultiplayerGame@@SAXABVidCmdArgs@@@Z 102a7cc0 f   MultiplayerGame.obj
 0002:000ddd20       ?VoiceChatTeam_f@idMultiplayerGame@@SAXABVidCmdArgs@@@Z 102a7d20 f   MultiplayerGame.obj
 0002:000ddd80       ?VoiceChat@idMultiplayerGame@@AAEXABVidCmdArgs@@_N@Z 102a7d80 f   MultiplayerGame.obj
 0002:000de0f0       ?ProcessVoiceChat@idMultiplayerGame@@QAEXH_NH@Z 102a80f0 f   MultiplayerGame.obj
 0002:000de580       ?ServerWriteInitialReliableMessages@idMultiplayerGame@@QAEXH@Z 102a8580 f   MultiplayerGame.obj
 0002:000de870       ?ClientReadStartState@idMultiplayerGame@@QAEXABVidBitMsg@@@Z 102a8870 f   MultiplayerGame.obj
 0002:000dea00       ?ClientReadWarmupTime@idMultiplayerGame@@QAEXABVidBitMsg@@@Z 102a8a00 f   MultiplayerGame.obj
 0002:000dea60       ?IsGametypeTeamBased@idMultiplayerGame@@QAE_NXZ 102a8a60 f   MultiplayerGame.obj
 0002:000deb30       ?IsGametypeFlagBased@idMultiplayerGame@@QAE_NXZ 102a8b30 f   MultiplayerGame.obj
 0002:000debe0       ?CreateInstance@idPlayer@@SAPAVidClass@@XZ 102a8be0 f   Player.obj
 0002:000ded10       ?GetType@idPlayer@@UBEPAVidTypeInfo@@XZ 102a8d10 f   Player.obj
 0002:000ded50       ?Clear@idInventory@@QAEXXZ 102a8d50 f   Player.obj
 0002:000defc0       ?GivePowerUp@idInventory@@QAEXPAVidPlayer@@HH@Z 102a8fc0 f   Player.obj
 0002:000df150       ?ClearPowerUps@idInventory@@QAEXXZ 102a9150 f   Player.obj
 0002:000df1d0       ?GetPersistantData@idInventory@@QAEXAAVidDict@@@Z 102a91d0 f   Player.obj
 0002:000df840       ?RestoreInventory@idInventory@@QAEXPAVidPlayer@@ABVidDict@@@Z 102a9840 f   Player.obj
 0002:000e0160       ??0idLevelTriggerInfo@@QAE@XZ 102aa160 f i Player.obj
 0002:000e0200       ??1idLevelTriggerInfo@@QAE@XZ 102aa200 f i Player.obj
 0002:000e02a0       ?Save@idInventory@@QBEXPAVidSaveGame@@@Z 102aa2a0 f   Player.obj
 0002:000e0a60       ?Restore@idInventory@@QAEXPAVidRestoreGame@@@Z 102aaa60 f   Player.obj
 0002:000e1390       ??0idItemInfo@@QAE@XZ      102ab390 f i Player.obj
 0002:000e1430       ??1idItemInfo@@QAE@XZ      102ab430 f i Player.obj
 0002:000e14d0       ??0idObjectiveInfo@@QAE@XZ 102ab4d0 f i Player.obj
 0002:000e1580       ??1idObjectiveInfo@@QAE@XZ 102ab580 f i Player.obj
 0002:000e1630       ?AmmoIndexForAmmoClass@idInventory@@QBEHPBD@Z 102ab630 f   Player.obj
 0002:000e1690       ?MaxAmmoForAmmoClass@idInventory@@QBEHPAVidPlayer@@PBD@Z 102ab690 f   Player.obj
 0002:000e1710       ?AmmoPickupNameForIndex@idInventory@@QBEPBDH@Z 102ab710 f   Player.obj
 0002:000e1770       ?WeaponIndexForAmmoClass@idInventory@@QBEHABVidDict@@PBD@Z 102ab770 f   Player.obj
 0002:000e1870       ?AmmoIndexForWeaponClass@idInventory@@QAEHPBDPAH@Z 102ab870 f   Player.obj
 0002:000e1950       ?AddPickupName@idInventory@@QAEXPBD0PAVidPlayer@@@Z 102ab950 f   Player.obj
 0002:000e1a70       ?Give@idInventory@@QAE_NPAVidPlayer@@ABVidDict@@PBD2PAH_N@Z 102aba70 f   Player.obj
 0002:000e2430       ??0idStr@@QAE@PBDHH@Z      102ac430 f i Player.obj
 0002:000e2560       ?Drop@idInventory@@QAEXABVidDict@@PBDH@Z 102ac560 f   Player.obj
 0002:000e2700       ?HasAmmo@idInventory@@QAEHHH@Z 102ac700 f   Player.obj
 0002:000e2780       ?HasAmmo@idInventory@@QAEHPBD_NPAVidPlayer@@@Z 102ac780 f   Player.obj
 0002:000e2840       ?UseAmmo@idInventory@@QAE_NHH@Z 102ac840 f   Player.obj
 0002:000e28f0       ?UpdateArmor@idInventory@@QAEXXZ 102ac8f0 f   Player.obj
 0002:000e2a30       ??0idPlayer@@QAE@XZ        102aca30 f   Player.obj
 0002:000e38c0       ??0idInventory@@QAE@XZ     102ad8c0 f i Player.obj
 0002:000e3a10       ??1idInventory@@QAE@XZ     102ada10 f i Player.obj
 0002:000e3b50       ??_GidPlayer@@UAEPAXI@Z    102adb50 f i Player.obj
 0002:000e3b50       ??_EidPlayer@@UAEPAXI@Z    102adb50 f i Player.obj
 0002:000e3bc0       ??1idPhysics_Player@@UAE@XZ 102adbc0 f i Player.obj
 0002:000e3c10       ??0loggedAccel_t@@QAE@XZ   102adc10 f i Player.obj
 0002:000e3c70       ?LinkScriptVariables@idPlayer@@QAEXXZ 102adc70 f   Player.obj
 0002:000e3f50       ?SetupWeaponEntity@idPlayer@@QAEXXZ 102adf50 f   Player.obj
 0002:000e40c0       ?Init@idPlayer@@QAEXXZ     102ae0c0 f   Player.obj
 0002:000e4fc0       ?Spawn@idPlayer@@QAEXXZ    102aefc0 f   Player.obj
 0002:000e5a90       ??1idPlayer@@UAE@XZ        102afa90 f   Player.obj
 0002:000e5c70       ?Save@idPlayer@@QBEXPAVidSaveGame@@@Z 102afc70 f   Player.obj
 0002:000e6b80       ?Restore@idPlayer@@QAEXPAVidRestoreGame@@@Z 102b0b80 f   Player.obj
 0002:000e7b90       ?PrepareForRestart@idPlayer@@QAEXXZ 102b1b90 f   Player.obj
 0002:000e7c10       ?Restart@idPlayer@@UAEXXZ  102b1c10 f   Player.obj
 0002:000e7ce0       ?ServerSpectate@idPlayer@@QAEX_N@Z 102b1ce0 f   Player.obj
 0002:000e7dd0       ?ClearFrags@idMultiplayerGame@@QAEXH@Z 102b1dd0 f i Player.obj
 0002:000e7e20       ?SelectInitialSpawnPoint@idPlayer@@QAEXAAVidVec3@@AAVidAngles@@@Z 102b1e20 f   Player.obj
 0002:000e8050       ?SpawnFromSpawnSpot@idPlayer@@QAEXXZ 102b2050 f   Player.obj
 0002:000e8130       ?SpawnToPoint@idPlayer@@QAEXABVidVec3@@ABVidAngles@@@Z 102b2130 f   Player.obj
 0002:000e8640       ?SavePersistantInfo@idPlayer@@QAEXXZ 102b2640 f   Player.obj
 0002:000e8700       ?RestorePersistantInfo@idPlayer@@QAEXXZ 102b2700 f   Player.obj
 0002:000e8810       ?GetUserInfo@idPlayer@@QAEPAVidDict@@XZ 102b2810 f   Player.obj
 0002:000e8860       ?UpdateSkinSetup@idPlayer@@QAEX_N@Z 102b2860 f   Player.obj
 0002:000e8d40       ?BalanceTDM@idPlayer@@QAE_NXZ 102b2d40 f   Player.obj
 0002:000e8f70       ?UserInfoChanged@idPlayer@@QAE_N_N@Z 102b2f70 f   Player.obj
 0002:000e9420       ?GetGameState@idMultiplayerGame@@QBE?AW4gameState_t@1@XZ 102b3420 f i Player.obj
 0002:000e9460       ?UpdateHudAmmo@idPlayer@@QAEXPAVidUserInterface@@@Z 102b3460 f   Player.obj
 0002:000e9890       ?UpdateHudStats@idPlayer@@QAEXPAVidUserInterface@@@Z 102b3890 f   Player.obj
 0002:000e9c10       ?UpdateHudWeapon@idPlayer@@QAEX_N@Z 102b3c10 f   Player.obj
 0002:000e9e70       ?DrawHUD@idPlayer@@QAEXPAVidUserInterface@@@Z 102b3e70 f   Player.obj
 0002:000ea060       ?GuiActive@idPlayer@@QAE_NXZ 102b4060 f i Player.obj
 0002:000ea0b0       ?EnterCinematic@idPlayer@@QAEXXZ 102b40b0 f   Player.obj
 0002:000ea510       ?ExitCinematic@idPlayer@@QAEXXZ 102b4510 f   Player.obj
 0002:000ea5d0       ?UpdateConditions@idPlayer@@QAEXXZ 102b45d0 f   Player.obj
 0002:000eade0       ?WeaponFireFeedback@idPlayer@@QAEXPBVidDict@@@Z 102b4de0 f   Player.obj
 0002:000eae80       ?StopFiring@idPlayer@@QAEXXZ 102b4e80 f   Player.obj
 0002:000eaf70       ?FireWeapon@idPlayer@@QAEXXZ 102b4f70 f   Player.obj
 0002:000eb230       ?CacheWeapons@idPlayer@@QAEXXZ 102b5230 f   Player.obj
 0002:000eb410       ?Give@idPlayer@@QAE_NPBD0@Z 102b5410 f   Player.obj
 0002:000eb780       ?GiveHealthPool@idPlayer@@QAEXM@Z 102b5780 f   Player.obj
 0002:000eb890       ?GiveItem@idPlayer@@QAE_NPAVidItem@@@Z 102b5890 f   Player.obj
 0002:000ebb40       ?PowerUpModifier@idPlayer@@QAEMH@Z 102b5b40 f   Player.obj
 0002:000ebc90       ?PowerUpActive@idPlayer@@QBE_NH@Z 102b5c90 f   Player.obj
 0002:000ebcf0       ?GivePowerUp@idPlayer@@QAE_NHH@Z 102b5cf0 f   Player.obj
 0002:000ec2f0       ?ClearPowerup@idPlayer@@QAEXH@Z 102b62f0 f   Player.obj
 0002:000ec500       ?UpdatePowerUps@idPlayer@@QAEXXZ 102b6500 f   Player.obj
 0002:000ec8f0       ?ClearPowerUps@idPlayer@@QAEXXZ 102b68f0 f   Player.obj
 0002:000ec990       ?GiveInventoryItem@idPlayer@@QAE_NPAVidDict@@@Z 102b6990 f   Player.obj
 0002:000ecc70       ??0idDict@@QAE@ABV0@@Z     102b6c70 f i Player.obj
 0002:000ecd30       ?UpdateObjectiveInfo@idPlayer@@QAEXXZ 102b6d30 f   Player.obj
 0002:000ed020       ?GiveObjective@idPlayer@@QAEXPBD00@Z 102b7020 f   Player.obj
 0002:000ed190       ?CompleteObjective@idPlayer@@QAEXPBD@Z 102b7190 f   Player.obj
 0002:000ed2b0       ?GiveVideo@idPlayer@@QAEXPBDPAVidDict@@@Z 102b72b0 f   Player.obj
 0002:000ed4a0       ?GiveSecurity@idPlayer@@QAEXPBD@Z 102b74a0 f   Player.obj
 0002:000ed5a0       ?GiveEmail@idPlayer@@QAEXPBD@Z 102b75a0 f   Player.obj
 0002:000ed6f0       ?GivePDA@idPlayer@@QAEXPBDPAVidDict@@@Z 102b76f0 f   Player.obj
 0002:000edc20       ?RemoveColors@idStr@@QAEAAV1@XZ 102b7c20 f i Player.obj
 0002:000edca0       ?GetPdaName@idDeclPDA@@QBEPBDXZ 102b7ca0 f i Player.obj
 0002:000edd00       ?GetSecurity@idDeclPDA@@QBEPBDXZ 102b7d00 f i Player.obj
 0002:000edd60       ?GetFrameNum@idGameLocal@@QBEHXZ 102b7d60 f i Player.obj
 0002:000edda0       ?FindInventoryItem@idPlayer@@QAEPAVidDict@@PBD@Z 102b7da0 f   Player.obj
 0002:000edea0       ?RemoveInventoryItem@idPlayer@@QAEXPBD@Z 102b7ea0 f   Player.obj
 0002:000edf60       ?RemoveInventoryItem@idPlayer@@QAEXPAVidDict@@@Z 102b7f60 f   Player.obj
 0002:000ee010       ??_GidDict@@QAEPAXI@Z      102b8010 f i Player.obj
 0002:000ee080       ?GiveItem@idPlayer@@QAEXPBD@Z 102b8080 f   Player.obj
 0002:000ee1e0       ?SlotForWeapon@idPlayer@@QAEHPBD@Z 102b81e0 f   Player.obj
 0002:000ee2a0       ?Reload@idPlayer@@QAEXXZ   102b82a0 f   Player.obj
 0002:000ee380       ?IsLinked@idWeapon@@QAE_NXZ 102b8380 f i Player.obj
 0002:000ee3c0       ?NextBestWeapon@idPlayer@@QAEXXZ 102b83c0 f   Player.obj
 0002:000ee530       ?NextWeapon@idPlayer@@QAEXXZ 102b8530 f   Player.obj
 0002:000ee770       ?PrevWeapon@idPlayer@@QAEXXZ 102b8770 f   Player.obj
 0002:000ee9b0       ?SelectWeapon@idPlayer@@QAEXH_N@Z 102b89b0 f   Player.obj
 0002:000eedc0       ?DropWeapon@idPlayer@@QAEX_N@Z 102b8dc0 f   Player.obj
 0002:000ef2d0       ?Insert@idStr@@QAEXPBDH@Z  102b92d0 f i Player.obj
 0002:000ef410       ?StealWeapon@idPlayer@@QAEXPAV1@@Z 102b9410 f   Player.obj
 0002:000ef7a0       ?ActiveGui@idPlayer@@QAEPAVidUserInterface@@XZ 102b97a0 f   Player.obj
 0002:000ef800       ?Weapon_Combat@idPlayer@@QAEXXZ 102b9800 f   Player.obj
 0002:000eff50       ?Weapon_NPC@idPlayer@@QAEXXZ 102b9f50 f   Player.obj
 0002:000f0040       ?LowerWeapon@idPlayer@@QAEXXZ 102ba040 f   Player.obj
 0002:000f00e0       ?RaiseWeapon@idPlayer@@QAEXXZ 102ba0e0 f   Player.obj
 0002:000f0180       ?WeaponLoweringCallback@idPlayer@@QAEXXZ 102ba180 f   Player.obj
 0002:000f01e0       ?WeaponRisingCallback@idPlayer@@QAEXXZ 102ba1e0 f   Player.obj
 0002:000f0240       ?Weapon_GUI@idPlayer@@QAEXXZ 102ba240 f   Player.obj
 0002:000f04d0       ?UpdateWeapon@idPlayer@@QAEXXZ 102ba4d0 f   Player.obj
 0002:000f0800       ?IsWorldModelReady@idWeapon@@QAE_NXZ 102ba800 f i Player.obj
 0002:000f0860       ?SpectateFreeFly@idPlayer@@QAEX_N@Z 102ba860 f   Player.obj
 0002:000f0d70       ?SpectateCycle@idPlayer@@QAEXXZ 102bad70 f   Player.obj
 0002:000f0ed0       ?UpdateSpectating@idPlayer@@QAEXXZ 102baed0 f   Player.obj
 0002:000f1070       ?HandleSingleGuiCommand@idPlayer@@UAE_NPAVidEntity@@PAVidLexer@@@Z 102bb070 f   Player.obj
 0002:000f18d0       ?GetNumStages@idMaterial@@QBE?BHXZ 102bb8d0 f i Player.obj
 0002:000f1910       ?GetStage@idMaterial@@QBEPBUshaderStage_t@@H@Z 102bb910 f i Player.obj
 0002:000f19b0       ?Collide@idPlayer@@UAE_NABUtrace_s@@ABVidVec3@@@Z 102bb9b0 f   Player.obj
 0002:000f1af0       ?UpdateLocation@idPlayer@@QAEXXZ 102bbaf0 f   Player.obj
 0002:000f1c20       ?ClearFocus@idPlayer@@QAEXXZ 102bbc20 f   Player.obj
 0002:000f1cb0       ?UpdateFocus@idPlayer@@QAEXXZ 102bbcb0 f   Player.obj
 0002:000f30e0       ?AddPoint@idBounds@@QAE_NABVidVec3@@@Z 102bd0e0 f i Player.obj
 0002:000f33a0       ?CrashLand@idPlayer@@QAEXABVidVec3@@0@Z 102bd3a0 f   Player.obj
 0002:000f3c10       ?GetSurfaceFlags@idMaterial@@QBE?BHXZ 102bdc10 f i Player.obj
 0002:000f3c50       ?BobCycle@idPlayer@@QAEXABVidVec3@@@Z 102bdc50 f   Player.obj
 0002:000f46e0       ?UpdateDeltaViewAngles@idPlayer@@QAEXABVidAngles@@@Z 102be6e0 f   Player.obj
 0002:000f47f0       ??AidAngles@@QBEMH@Z       102be7f0 f i Player.obj
 0002:000f4880       ?SetViewAngles@idPlayer@@QAEXABVidAngles@@@Z 102be880 f   Player.obj
 0002:000f48f0       ?UpdateViewAngles@idPlayer@@QAEXXZ 102be8f0 f   Player.obj
 0002:000f4df0       ?AngleDelta@idMath@@SAMMM@Z 102bedf0 f i Player.obj
 0002:000f4e50       ?AdjustHeartRate@idPlayer@@QAEXHMM_N@Z 102bee50 f   Player.obj
 0002:000f4f70       ?GetBaseHeartRate@idPlayer@@QAEHXZ 102bef70 f   Player.obj
 0002:000f5110       ?SetCurrentHeartRate@idPlayer@@QAEXXZ 102bf110 f   Player.obj
 0002:000f5470       ?UpdateAir@idPlayer@@QAEXXZ 102bf470 f   Player.obj
 0002:000f5890       ?AddGuiPDAData@idPlayer@@QAEHW4declType_t@@PBDPBVidDeclPDA@@PAVidUserInterface@@@Z 102bf890 f   Player.obj
 0002:000f5d40       ?GetFrom@idDeclEmail@@QBEPBDXZ 102bfd40 f i Player.obj
 0002:000f5da0       ?GetSubject@idDeclEmail@@QBEPBDXZ 102bfda0 f i Player.obj
 0002:000f5e00       ?GetDate@idDeclEmail@@QBEPBDXZ 102bfe00 f i Player.obj
 0002:000f5e60       ?GetVideoName@idDeclVideo@@QBEPBDXZ 102bfe60 f i Player.obj
 0002:000f5ec0       ?GetAudioName@idDeclAudio@@QBEPBDXZ 102bfec0 f i Player.obj
 0002:000f5f20       ?GetPDA@idPlayer@@QBEPBVidDeclPDA@@XZ 102bff20 f   Player.obj
 0002:000f5fd0       ?GetVideo@idPlayer@@QAEPBVidDeclVideo@@H@Z 102bffd0 f   Player.obj
 0002:000f6090       ?UpdatePDAInfo@idPlayer@@QAEX_N@Z 102c0090 f   Player.obj
 0002:000f73b0       ?GetBody@idDeclEmail@@QBEPBDXZ 102c13b0 f i Player.obj
 0002:000f7410       ?GetRoq@idDeclVideo@@QBEPBDXZ 102c1410 f i Player.obj
 0002:000f7470       ?GetWave@idDeclVideo@@QBEPBDXZ 102c1470 f i Player.obj
 0002:000f74d0       ?GetInfo@idDeclVideo@@QBEPBDXZ 102c14d0 f i Player.obj
 0002:000f7530       ?GetPreview@idDeclVideo@@QBEPBDXZ 102c1530 f i Player.obj
 0002:000f7590       ?GetWave@idDeclAudio@@QBEPBDXZ 102c1590 f i Player.obj
 0002:000f75f0       ?GetInfo@idDeclAudio@@QBEPBDXZ 102c15f0 f i Player.obj
 0002:000f7650       ?GetPreview@idDeclAudio@@QBEPBDXZ 102c1650 f i Player.obj
 0002:000f76b0       ?GetFullName@idDeclPDA@@QBEPBDXZ 102c16b0 f i Player.obj
 0002:000f7710       ?GetIcon@idDeclPDA@@QBEPBDXZ 102c1710 f i Player.obj
 0002:000f7770       ?GetPost@idDeclPDA@@QBEPBDXZ 102c1770 f i Player.obj
 0002:000f77d0       ?GetID@idDeclPDA@@QBEPBDXZ 102c17d0 f i Player.obj
 0002:000f7830       ?GetTitle@idDeclPDA@@QBEPBDXZ 102c1830 f i Player.obj
 0002:000f7890       ?TogglePDA@idPlayer@@QAEXXZ 102c1890 f   Player.obj
 0002:000f80e0       ?ToggleScoreboard@idPlayer@@QAEXXZ 102c20e0 f   Player.obj
 0002:000f8130       ?Spectate@idPlayer@@QAEX_N@Z 102c2130 f   Player.obj
 0002:000f8460       ?SetClipModel@idPlayer@@QAEXXZ 102c2460 f   Player.obj
 0002:000f87f0       ??0idTraceModel@@QAE@ABVidBounds@@H@Z 102c27f0 f i Player.obj
 0002:000f88d0       ?Translate@idClipModel@@QAEXABVidVec3@@@Z 102c28d0 f i Player.obj
 0002:000f8940       ?UseVehicle@idPlayer@@QAEXXZ 102c2940 f   Player.obj
 0002:000f8ba0       ?PerformImpulse@idPlayer@@QAEXH@Z 102c2ba0 f   Player.obj
 0002:000f8fe0       ?HandleESC@idPlayer@@QAE_NXZ 102c2fe0 f   Player.obj
 0002:000f9070       ?SkipCinematic@idPlayer@@QAE_NXZ 102c3070 f   Player.obj
 0002:000f90e0       ?EvaluateControls@idPlayer@@QAEXXZ 102c30e0 f   Player.obj
 0002:000f9290       ?AdjustSpeed@idPlayer@@QAEXXZ 102c3290 f   Player.obj
 0002:000f9690       ?AdjustBodyAngles@idPlayer@@QAEXXZ 102c3690 f   Player.obj
 0002:000f9e70       ?Abs@idMath@@SAHH@Z        102c3e70 f i Player.obj
 0002:000f9ec0       ?InitAASLocation@idPlayer@@QAEXXZ 102c3ec0 f   Player.obj
 0002:000fa160       ?SetAASLocation@idPlayer@@QAEXXZ 102c4160 f   Player.obj
 0002:000fa3a0       ?GetAASLocation@idPlayer@@UBEXPAVidAAS@@AAVidVec3@@AAH@Z 102c43a0 f   Player.obj
 0002:000fa4c0       ?Move@idPlayer@@QAEXXZ     102c44c0 f   Player.obj
 0002:000fafe0       ?LengthSqr@idVec2@@QBEMXZ  102c4fe0 f i Player.obj
 0002:000fb040       ?NormalizeFast@idVec2@@QAEMXZ 102c5040 f i Player.obj
 0002:000fb0f0       ??GidVec2@@QBE?AV0@ABV0@@Z 102c50f0 f i Player.obj
 0002:000fb170       ??XidVec2@@QAEAAV0@M@Z     102c5170 f i Player.obj
 0002:000fb1d0       ?ToVec2@idVec3@@QBEABVidVec2@@XZ 102c51d0 f i Player.obj
 0002:000fb210       ?ToVec2@idVec3@@QAEAAVidVec2@@XZ 102c5210 f i Player.obj
 0002:000fb250       ?UpdateHud@idPlayer@@QAEXXZ 102c5250 f   Player.obj
 0002:000fb970       ?UpdateDeathSkin@idPlayer@@QAEX_N@Z 102c5970 f   Player.obj
 0002:000fbb10       ?StartFxOnBone@idPlayer@@QAEXPBD0@Z 102c5b10 f   Player.obj
 0002:000fbd80       ?Think@idPlayer@@UAEXXZ    102c5d80 f   Player.obj
 0002:000fc9f0       ?RouteGuiMouse@idPlayer@@QAEXPAVidUserInterface@@@Z 102c69f0 f   Player.obj
 0002:000fcb80       ?LookAtKiller@idPlayer@@QAEXPAVidEntity@@0@Z 102c6b80 f   Player.obj
 0002:000fcdb0       ?Kill@idPlayer@@QAEX_N0@Z  102c6db0 f   Player.obj
 0002:000fcf30       ?Killed@idPlayer@@UAEXPAVidEntity@@0HABVidVec3@@H@Z 102c6f30 f   Player.obj
 0002:000fd3e0       ?GetAIAimTargets@idPlayer@@UAEXABVidVec3@@AAV2@1@Z 102c73e0 f   Player.obj
 0002:000fd590       ?DamageFeedback@idPlayer@@UAEXPAVidEntity@@0AAH@Z 102c7590 f   Player.obj
 0002:000fd700       ?CalcDamagePoints@idPlayer@@QAEXPAVidEntity@@0PBVidDict@@MHPAH2@Z 102c7700 f   Player.obj
 0002:000fdaf0       ?Damage@idPlayer@@UAEXPAVidEntity@@0ABVidVec3@@PBDMH@Z 102c7af0 f   Player.obj
 0002:000fe3b0       ?Teleport@idPlayer@@UAEXABVidVec3@@ABVidAngles@@PAVidEntity@@@Z 102c83b0 f   Player.obj
 0002:000fe650       ?SetPrivateCameraView@idPlayer@@QAEXPAVidCamera@@@Z 102c8650 f   Player.obj
 0002:000fe700       ?DefaultFov@idPlayer@@QBEMXZ 102c8700 f   Player.obj
 0002:000fe7b0       ?CalcFov@idPlayer@@QAEM_N@Z 102c87b0 f   Player.obj
 0002:000fe9b0       ?GunTurningOffset@idPlayer@@QAE?AVidAngles@@XZ 102c89b0 f   Player.obj
 0002:000fee70       ??YidAngles@@QAEAAV0@ABV0@@Z 102c8e70 f i Player.obj
 0002:000feef0       ?GunAcceleratingOffset@idPlayer@@QAE?AVidVec3@@XZ 102c8ef0 f   Player.obj
 0002:000ff140       ?CalculateViewWeaponPos@idPlayer@@QAEXAAVidVec3@@AAVidMat3@@@Z 102c9140 f   Player.obj
 0002:000ff5a0       ??XidAngles@@QAEAAV0@M@Z   102c95a0 f i Player.obj
 0002:000ff610       ?OffsetThirdPersonView@idPlayer@@QAEXMMM_N@Z 102c9610 f   Player.obj
 0002:000ffce0       ?SinCos@idMath@@SAXMAAM0@Z 102c9ce0 f i Player.obj
 0002:000ffd40       ?GetEyePosition@idPlayer@@QBE?AVidVec3@@XZ 102c9d40 f   Player.obj
 0002:000ffeb0       ?GetViewPos@idPlayer@@UBEXAAVidVec3@@AAVidMat3@@@Z 102c9eb0 f   Player.obj
 0002:00100160       ?CalculateFirstPersonView@idPlayer@@QAEXXZ 102ca160 f   Player.obj
 0002:00100470       ?GetRenderView@idPlayer@@UAEPAUrenderView_s@@XZ 102ca470 f   Player.obj
 0002:001004b0       ?CalculateRenderView@idPlayer@@QAEXXZ 102ca4b0 f   Player.obj
 0002:00100a60       ?AddAIKill@idPlayer@@QAEXXZ 102caa60 f   Player.obj
 0002:00100bf0       ?SetSoulCubeProjectile@idPlayer@@QAEXPAVidProjectile@@@Z 102cabf0 f   Player.obj
 0002:00100c50       ?AddProjectilesFired@idPlayer@@QAEXH@Z 102cac50 f   Player.obj
 0002:00100cb0       ?AddProjectileHits@idPlayer@@QAEXH@Z 102cacb0 f   Player.obj
 0002:00100d10       ?SetLastHitTime@idPlayer@@QAEXH@Z 102cad10 f   Player.obj
 0002:001011a0       ?SetInfluenceLevel@idPlayer@@QAEXH@Z 102cb1a0 f   Player.obj
 0002:00101330       ?SetInfluenceView@idPlayer@@QAEXPBD0MPAVidEntity@@@Z 102cb330 f   Player.obj
 0002:001014f0       ?SetInfluenceFov@idPlayer@@QAEXM@Z 102cb4f0 f   Player.obj
 0002:00101540       ?OnLadder@idPlayer@@UBE_NXZ 102cb540 f   Player.obj
 0002:001015a0       ?Event_GetButtons@idPlayer@@QAEXXZ 102cb5a0 f   Player.obj
 0002:00101600       ?Event_GetMove@idPlayer@@QAEXXZ 102cb600 f   Player.obj
 0002:00101700       ?Event_GetViewAngles@idPlayer@@QAEXXZ 102cb700 f   Player.obj
 0002:001017b0       ?Event_StopFxFov@idPlayer@@QAEXXZ 102cb7b0 f   Player.obj
 0002:00101800       ?StartFxFov@idPlayer@@QAEXM@Z 102cb800 f   Player.obj
 0002:00101870       ?Event_EnableWeapon@idPlayer@@QAEXXZ 102cb870 f   Player.obj
 0002:00101920       ?Event_DisableWeapon@idPlayer@@QAEXXZ 102cb920 f   Player.obj
 0002:001019d0       ?Event_GetCurrentWeapon@idPlayer@@QAEXXZ 102cb9d0 f   Player.obj
 0002:00101a80       ?Event_GetPreviousWeapon@idPlayer@@QAEXXZ 102cba80 f   Player.obj
 0002:00101b90       ?Event_SelectWeapon@idPlayer@@QAEXPBD@Z 102cbb90 f   Player.obj
 0002:00101d70       ?Event_GetWeaponEntity@idPlayer@@QAEXXZ 102cbd70 f   Player.obj
 0002:00101de0       ?Event_OpenPDA@idPlayer@@QAEXXZ 102cbde0 f   Player.obj
 0002:00101e40       ?Event_InPDA@idPlayer@@QAEXXZ 102cbe40 f   Player.obj
 0002:00101ea0       ?TeleportDeath@idPlayer@@QAEXH@Z 102cbea0 f   Player.obj
 0002:00101ef0       ?Event_ExitTeleporter@idPlayer@@QAEXXZ 102cbef0 f   Player.obj
 0002:00102260       ?ClientPredictionThink@idPlayer@@UAEXXZ 102cc260 f   Player.obj
 0002:00102920       ??ZidAngles@@QAEAAV0@ABV0@@Z 102cc920 f i Player.obj
 0002:001029a0       ??D@YA?AVidAngles@@MABV0@@Z 102cc9a0 f i Player.obj
 0002:00102a20       ?GetPhysicsToVisualTransform@idPlayer@@UAE_NAAVidVec3@@AAVidMat3@@@Z 102cca20 f   Player.obj
 0002:00102ea0       ??D@YA?AVidVec2@@MV0@@Z    102ccea0 f i Player.obj
 0002:00102f10       ??ZidVec2@@QAEAAV0@ABV0@@Z 102ccf10 f i Player.obj
 0002:00102f80       ?GetPhysicsToSoundTransform@idPlayer@@UAE_NAAVidVec3@@AAVidMat3@@@Z 102ccf80 f   Player.obj
 0002:001030c0       ?WriteToSnapshot@idPlayer@@UBEXAAVidBitMsgDelta@@@Z 102cd0c0 f   Player.obj
 0002:00103320       ?WriteDir@idBitMsgDelta@@QAEXABVidVec3@@H@Z 102cd320 f i Player.obj
 0002:00103390       ?WriteDeltaFloat@idBitMsgDelta@@QAEXMM@Z 102cd390 f i Player.obj
 0002:001033f0       ?ReadFromSnapshot@idPlayer@@UAEXABVidBitMsgDelta@@@Z 102cd3f0 f   Player.obj
 0002:00103c60       ?ReadDir@idBitMsgDelta@@QBE?AVidVec3@@H@Z 102cdc60 f i Player.obj
 0002:00103cd0       ?ReadDeltaFloat@idBitMsgDelta@@QBEMM@Z 102cdcd0 f i Player.obj
 0002:00103d30       ?WritePlayerStateToSnapshot@idPlayer@@QBEXAAVidBitMsgDelta@@@Z 102cdd30 f   Player.obj
 0002:00103e70       ?ReadPlayerStateFromSnapshot@idPlayer@@QAEXABVidBitMsgDelta@@@Z 102cde70 f   Player.obj
 0002:00103fc0       ?ServerReceiveEvent@idPlayer@@UAE_NHHABVidBitMsg@@@Z 102cdfc0 f   Player.obj
 0002:00104070       ?ClientReceiveEvent@idPlayer@@UAE_NHHABVidBitMsg@@@Z 102ce070 f   Player.obj
 0002:00104210       ?Hide@idPlayer@@UAEXXZ     102ce210 f   Player.obj
 0002:00104290       ?Show@idPlayer@@UAEXXZ     102ce290 f   Player.obj
 0002:00104310       ?StartAudioLog@idPlayer@@QAEXXZ 102ce310 f   Player.obj
 0002:001043a0       ?StopAudioLog@idPlayer@@QAEXXZ 102ce3a0 f   Player.obj
 0002:00104430       ?ShowTip@idPlayer@@QAEXPBD0_N@Z 102ce430 f   Player.obj
 0002:00104560       ?HideTip@idPlayer@@QAEXXZ  102ce560 f   Player.obj
 0002:001045f0       ?Event_HideTip@idPlayer@@QAEXXZ 102ce5f0 f   Player.obj
 0002:00104640       ?ShowObjective@idPlayer@@QAEXPBD@Z 102ce640 f   Player.obj
 0002:001046c0       ?HideObjective@idPlayer@@QAEXXZ 102ce6c0 f   Player.obj
 0002:00104750       ?Event_StopAudioLog@idPlayer@@QAEXXZ 102ce750 f   Player.obj
 0002:001047a0       ?SetSpectateOrigin@idPlayer@@QAEXXZ 102ce7a0 f   Player.obj
 0002:001048e0       ?RemoveWeapon@idPlayer@@QAEXPBD@Z 102ce8e0 f   Player.obj
 0002:00104980       ?CanShowWeaponViewmodel@idPlayer@@QBE_NXZ 102ce980 f   Player.obj
 0002:001049c0       ?SetLevelTrigger@idPlayer@@QAEXPBD0@Z 102ce9c0 f   Player.obj
 0002:00104b00       ?Event_LevelTrigger@idPlayer@@QAEXXZ 102ceb00 f   Player.obj
 0002:00104ce0       ?Event_Gibbed@idPlayer@@QAEXXZ 102cece0 f   Player.obj
 0002:00104d20       ?UpdatePlayerIcons@idPlayer@@UAEXXZ 102ced20 f   Player.obj
 0002:00104dd0       ?DrawPlayerIcons@idPlayer@@UAEXXZ 102cedd0 f   Player.obj
 0002:00104e60       ?HidePlayerIcons@idPlayer@@UAEXXZ 102cee60 f   Player.obj
 0002:00104ec0       ?NeedsIcon@idPlayer@@QAE_NXZ 102ceec0 f   Player.obj
 0002:00104f50       ?GetSpawnId@?$idEntityPtr@VidWeapon@@@@QBEHXZ 102cef50 f i Player.obj
 0002:00104f90       ?SetStartTime@?$idInterpolate@M@@QAEXM@Z 102cef90 f i Player.obj
 0002:00104fe0       ?SetDuration@?$idInterpolate@M@@QAEXM@Z 102cefe0 f i Player.obj
 0002:00105030       ?SetStartValue@?$idInterpolate@M@@QAEXABM@Z 102cf030 f i Player.obj
 0002:00105080       ?SetEndValue@?$idInterpolate@M@@QAEXABM@Z 102cf080 f i Player.obj
 0002:001050d0       ?IsDone@?$idInterpolate@M@@QBE_NM@Z 102cf0d0 f i Player.obj
 0002:00105150       ?GetStartTime@?$idInterpolate@M@@QBEMXZ 102cf150 f i Player.obj
 0002:00105190       ?GetDuration@?$idInterpolate@M@@QBEMXZ 102cf190 f i Player.obj
 0002:001051d0       ?GetStartValue@?$idInterpolate@M@@QBEABMXZ 102cf1d0 f i Player.obj
 0002:00105210       ?GetEndValue@?$idInterpolate@M@@QBEABMXZ 102cf210 f i Player.obj
 0002:00105250       ??0?$idScriptVariable@H$0O@H@@QAE@XZ 102cf250 f i Player.obj
 0002:001052a0       ?LinkTo@?$idScriptVariable@H$0O@H@@QAEXAAVidScriptObject@@PBD@Z 102cf2a0 f i Player.obj
 0002:00105330       ??4?$idScriptVariable@H$0O@H@@QAEAAV0@ABH@Z 102cf330 f i Player.obj
 0002:00105390       ?GetEntity@?$idEntityPtr@VidAnimatedEntity@@@@QBEPAVidAnimatedEntity@@XZ 102cf390 f i Player.obj
 0002:00105400       ??0?$idList@PAVidDict@@@@QAE@H@Z 102cf400 f i Player.obj
 0002:001054a0       ??1?$idList@PAVidDict@@@@QAE@XZ 102cf4a0 f i Player.obj
 0002:001054f0       ?Num@?$idList@PAVidDict@@@@QBEHXZ 102cf4f0 f i Player.obj
 0002:00105530       ??A?$idList@PAVidDict@@@@QAEAAPAVidDict@@H@Z 102cf530 f i Player.obj
 0002:001055f0       ??A?$idList@PAVidDict@@@@QBEABQAVidDict@@H@Z 102cf5f0 f i Player.obj
 0002:001056b0       ?SetNum@?$idList@PAVidDict@@@@QAEXH_N@Z 102cf6b0 f i Player.obj
 0002:00105760       ?Append@?$idList@PAVidDict@@@@QAEHABQAVidDict@@@Z 102cf760 f i Player.obj
 0002:00105850       ?Remove@?$idList@PAVidDict@@@@QAE_NABQAVidDict@@@Z 102cf850 f i Player.obj
 0002:001058d0       ?DeleteContents@?$idList@PAVidDict@@@@QAEX_N@Z 102cf8d0 f i Player.obj
 0002:001059e0       ??0?$idList@UidLevelTriggerInfo@@@@QAE@H@Z 102cf9e0 f i Player.obj
 0002:00105a80       ??1?$idList@UidLevelTriggerInfo@@@@QAE@XZ 102cfa80 f i Player.obj
 0002:00105ad0       ?Clear@?$idList@UidLevelTriggerInfo@@@@QAEXXZ 102cfad0 f i Player.obj
 0002:00105ba0       ?Num@?$idList@UidLevelTriggerInfo@@@@QBEHXZ 102cfba0 f i Player.obj
 0002:00105be0       ??A?$idList@UidLevelTriggerInfo@@@@QAEAAUidLevelTriggerInfo@@H@Z 102cfbe0 f i Player.obj
 0002:00105ca0       ??A?$idList@UidLevelTriggerInfo@@@@QBEABUidLevelTriggerInfo@@H@Z 102cfca0 f i Player.obj
 0002:00105d60       ?Append@?$idList@UidLevelTriggerInfo@@@@QAEHABUidLevelTriggerInfo@@@Z 102cfd60 f i Player.obj
 0002:00105e60       ??0?$idList@UidItemInfo@@@@QAE@H@Z 102cfe60 f i Player.obj
 0002:00105f00       ??1?$idList@UidItemInfo@@@@QAE@XZ 102cff00 f i Player.obj
 0002:00105f50       ?Clear@?$idList@UidItemInfo@@@@QAEXXZ 102cff50 f i Player.obj
 0002:00106020       ?Num@?$idList@UidItemInfo@@@@QBEHXZ 102d0020 f i Player.obj
 0002:00106060       ??A?$idList@UidItemInfo@@@@QAEAAUidItemInfo@@H@Z 102d0060 f i Player.obj
 0002:00106120       ??A?$idList@UidItemInfo@@@@QBEABUidItemInfo@@H@Z 102d0120 f i Player.obj
 0002:001061e0       ?Alloc@?$idList@UidItemInfo@@@@QAEAAUidItemInfo@@XZ 102d01e0 f i Player.obj
 0002:001062a0       ?Append@?$idList@UidItemInfo@@@@QAEHABUidItemInfo@@@Z 102d02a0 f i Player.obj
 0002:001063a0       ?RemoveIndex@?$idList@UidItemInfo@@@@QAE_NH@Z 102d03a0 f i Player.obj
 0002:001064f0       ??0?$idList@UidObjectiveInfo@@@@QAE@H@Z 102d04f0 f i Player.obj
 0002:00106590       ??1?$idList@UidObjectiveInfo@@@@QAE@XZ 102d0590 f i Player.obj
 0002:001065e0       ?Clear@?$idList@UidObjectiveInfo@@@@QAEXXZ 102d05e0 f i Player.obj
 0002:001066b0       ?Num@?$idList@UidObjectiveInfo@@@@QBEHXZ 102d06b0 f i Player.obj
 0002:001066f0       ??A?$idList@UidObjectiveInfo@@@@QAEAAUidObjectiveInfo@@H@Z 102d06f0 f i Player.obj
 0002:001067b0       ??A?$idList@UidObjectiveInfo@@@@QBEABUidObjectiveInfo@@H@Z 102d07b0 f i Player.obj
 0002:00106870       ?Append@?$idList@UidObjectiveInfo@@@@QAEHABUidObjectiveInfo@@@Z 102d0870 f i Player.obj
 0002:00106970       ?RemoveIndex@?$idList@UidObjectiveInfo@@@@QAE_NH@Z 102d0970 f i Player.obj
 0002:00106ac0       ??0?$idEntityPtr@VidWeapon@@@@QAE@XZ 102d0ac0 f i Player.obj
 0002:00106b10       ?Save@?$idEntityPtr@VidWeapon@@@@QBEXPAVidSaveGame@@@Z 102d0b10 f i Player.obj
 0002:00106b70       ?Restore@?$idEntityPtr@VidWeapon@@@@QAEXPAVidRestoreGame@@@Z 102d0b70 f i Player.obj
 0002:00106bd0       ??4?$idEntityPtr@VidWeapon@@@@QAEAAV0@PAVidWeapon@@@Z 102d0bd0 f i Player.obj
 0002:00106c50       ?SetSpawnId@?$idEntityPtr@VidWeapon@@@@QAE_NH@Z 102d0c50 f i Player.obj
 0002:00106cd0       ??0?$idInterpolate@M@@QAE@XZ 102d0cd0 f i Player.obj
 0002:00106d80       ?Init@?$idInterpolate@M@@QAEXMMABM0@Z 102d0d80 f i Player.obj
 0002:00106e10       ?GetCurrentValue@?$idInterpolate@M@@QBEMM@Z 102d0e10 f i Player.obj
 0002:00106f00       ??0?$idEntityPtr@VidProjectile@@@@QAE@XZ 102d0f00 f i Player.obj
 0002:00106f50       ?Save@?$idEntityPtr@VidProjectile@@@@QBEXPAVidSaveGame@@@Z 102d0f50 f i Player.obj
 0002:00106fb0       ?Restore@?$idEntityPtr@VidProjectile@@@@QAEXPAVidRestoreGame@@@Z 102d0fb0 f i Player.obj
 0002:00107010       ??4?$idEntityPtr@VidProjectile@@@@QAEAAV0@PAVidProjectile@@@Z 102d1010 f i Player.obj
 0002:00107090       ?GetEntity@?$idEntityPtr@VidProjectile@@@@QBEPAVidProjectile@@XZ 102d1090 f i Player.obj
 0002:00107100       ??0?$idList@UaasLocation_t@@@@QAE@H@Z 102d1100 f i Player.obj
 0002:001071a0       ??1?$idList@UaasLocation_t@@@@QAE@XZ 102d11a0 f i Player.obj
 0002:001071f0       ?Num@?$idList@UaasLocation_t@@@@QBEHXZ 102d11f0 f i Player.obj
 0002:00107230       ?SetGranularity@?$idList@UaasLocation_t@@@@QAEXH@Z 102d1230 f i Player.obj
 0002:00107310       ??A?$idList@UaasLocation_t@@@@QAEAAUaasLocation_t@@H@Z 102d1310 f i Player.obj
 0002:001073d0       ??A?$idList@UaasLocation_t@@@@QBEABUaasLocation_t@@H@Z 102d13d0 f i Player.obj
 0002:00107490       ?SetNum@?$idList@UaasLocation_t@@@@QAEXH_N@Z 102d1490 f i Player.obj
 0002:00107540       ??_EidLevelTriggerInfo@@QAEPAXI@Z 102d1540 f i Player.obj
 0002:00107600       ??4idLevelTriggerInfo@@QAEAAU0@ABU0@@Z 102d1600 f i Player.obj
 0002:00107670       ??_EidItemInfo@@QAEPAXI@Z  102d1670 f i Player.obj
 0002:00107730       ??4idItemInfo@@QAEAAU0@ABU0@@Z 102d1730 f i Player.obj
 0002:001077a0       ??_EidObjectiveInfo@@QAEPAXI@Z 102d17a0 f i Player.obj
 0002:00107860       ??4idObjectiveInfo@@QAEAAU0@ABU0@@Z 102d1860 f i Player.obj
 0002:001078f0       ?Clear@?$idList@PAVidDict@@@@QAEXXZ 102d18f0 f i Player.obj
 0002:00107990       ?Resize@?$idList@PAVidDict@@@@QAEXH@Z 102d1990 f i Player.obj
 0002:00107b00       ?FindIndex@?$idList@PAVidDict@@@@QBEHABQAVidDict@@@Z 102d1b00 f i Player.obj
 0002:00107b80       ?RemoveIndex@?$idList@PAVidDict@@@@QAE_NH@Z 102d1b80 f i Player.obj
 0002:00107cd0       ?Resize@?$idList@UidLevelTriggerInfo@@@@QAEXH@Z 102d1cd0 f i Player.obj
 0002:00107f30       ?Resize@?$idList@UidItemInfo@@@@QAEXH@Z 102d1f30 f i Player.obj
 0002:00108190       ?Resize@?$idList@UidObjectiveInfo@@@@QAEXH@Z 102d2190 f i Player.obj
 0002:001083f0       ?Clear@?$idList@UaasLocation_t@@@@QAEXXZ 102d23f0 f i Player.obj
 0002:00108490       ?Resize@?$idList@UaasLocation_t@@@@QAEXH@Z 102d2490 f i Player.obj
 0002:001086a0       ??0aasLocation_t@@QAE@XZ   102d26a0 f i Player.obj
 0002:00108700       ??4aasLocation_t@@QAEAAU0@ABU0@@Z 102d2700 f i Player.obj
 0002:00108770       ??0idPlayerIcon@@QAE@XZ    102d2770 f   PlayerIcon.obj
 0002:001087f0       ??1idPlayerIcon@@QAE@XZ    102d27f0 f   PlayerIcon.obj
 0002:00108840       ?Draw@idPlayerIcon@@QAEXPAVidPlayer@@W4jointHandle_t@@@Z 102d2840 f   PlayerIcon.obj
 0002:00108940       ?Draw@idPlayerIcon@@QAEXPAVidPlayer@@ABVidVec3@@@Z 102d2940 f   PlayerIcon.obj
 0002:00108b00       ?FreeIcon@idPlayerIcon@@QAEXXZ 102d2b00 f   PlayerIcon.obj
 0002:00108ba0       ?CreateIcon@idPlayerIcon@@QAE_NPAVidPlayer@@W4playerIconType_t@@ABVidVec3@@ABVidMat3@@@Z 102d2ba0 f   PlayerIcon.obj
 0002:00108c70       ?CreateIcon@idPlayerIcon@@QAE_NPAVidPlayer@@W4playerIconType_t@@PBDABVidVec3@@ABVidMat3@@@Z 102d2c70 f   PlayerIcon.obj
 0002:00108ef0       ?UpdateIcon@idPlayerIcon@@QAEXPAVidPlayer@@ABVidVec3@@ABVidMat3@@@Z 102d2ef0 f   PlayerIcon.obj
 0002:00108fd0       ??0idPlayerView@@QAE@XZ    102d2fd0 f   PlayerView.obj
 0002:00109320       ?Zero@idVec4@@QAEXXZ       102d3320 f i PlayerView.obj
 0002:00109390       ?Save@idPlayerView@@QBEXPAVidSaveGame@@@Z 102d3390 f   PlayerView.obj
 0002:001096b0       ?Restore@idPlayerView@@QAEXPAVidRestoreGame@@@Z 102d36b0 f   PlayerView.obj
 0002:001099c0       ?SetPlayerEntity@idPlayerView@@QAEXPAVidPlayer@@@Z 102d39c0 f   PlayerView.obj
 0002:00109a10       ?ClearEffects@idPlayerView@@QAEXXZ 102d3a10 f   PlayerView.obj
 0002:00109b00       ?GetScreenBlob@idPlayerView@@AAEPAUscreenBlob_t@@XZ 102d3b00 f   PlayerView.obj
 0002:00109b90       ?DamageImpulse@idPlayerView@@QAEXVidVec3@@PBVidDict@@@Z 102d3b90 f   PlayerView.obj
 0002:0010a0d0       ?AddBloodSpray@idPlayerView@@QAEXM@Z 102d40d0 f   PlayerView.obj
 0002:0010a110       ?WeaponFireFeedback@idPlayerView@@QAEXPBVidDict@@@Z 102d4110 f   PlayerView.obj
 0002:0010a250       ?CalculateShake@idPlayerView@@QAEXXZ 102d4250 f   PlayerView.obj
 0002:0010a3e0       ?ShakeAxis@idPlayerView@@QBE?AVidMat3@@XZ 102d43e0 f   PlayerView.obj
 0002:0010a450       ?AngleOffset@idPlayerView@@QBE?AVidAngles@@XZ 102d4450 f   PlayerView.obj
 0002:0010a640       ?SingleView@idPlayerView@@AAEXPAVidUserInterface@@PBUrenderView_s@@@Z 102d4640 f   PlayerView.obj
 0002:0010b0d0       ?Flash@idPlayerView@@QAEXVidVec4@@H@Z 102d50d0 f   PlayerView.obj
 0002:0010b1a0       ?Fade@idPlayerView@@QAEXVidVec4@@H@Z 102d51a0 f   PlayerView.obj
 0002:0010b330       ?ScreenFade@idPlayerView@@AAEXXZ 102d5330 f   PlayerView.obj
 0002:0010b5d0       ??HidVec4@@QBE?AV0@ABV0@@Z 102d55d0 f i PlayerView.obj
 0002:0010b680       ?RenderPlayerView@idPlayerView@@QAEXPAVidUserInterface@@@Z 102d5680 f   PlayerView.obj
 0002:0010b7e0       ?CreateInstance@idProjectile@@SAPAVidClass@@XZ 102d57e0 f   Projectile.obj
 0002:0010b910       ?GetType@idProjectile@@UBEPAVidTypeInfo@@XZ 102d5910 f   Projectile.obj
 0002:0010b950       ??0idProjectile@@QAE@XZ    102d5950 f   Projectile.obj
 0002:0010bba0       ??_GidProjectile@@UAEPAXI@Z 102d5ba0 f i Projectile.obj
 0002:0010bba0       ??_EidProjectile@@UAEPAXI@Z 102d5ba0 f i Projectile.obj
 0002:0010bc10       ?Spawn@idProjectile@@QAEXXZ 102d5c10 f   Projectile.obj
 0002:0010be10       ?Save@idProjectile@@QBEXPAVidSaveGame@@@Z 102d5e10 f   Projectile.obj
 0002:0010c010       ?Restore@idProjectile@@QAEXPAVidRestoreGame@@@Z 102d6010 f   Projectile.obj
 0002:0010c340       ?GetOwner@idProjectile@@QBEPAVidEntity@@XZ 102d6340 f   Projectile.obj
 0002:0010c3a0       ?Create@idProjectile@@QAEXPAVidEntity@@ABVidVec3@@1@Z 102d63a0 f   Projectile.obj
 0002:0010c920       ??1idProjectile@@UAE@XZ    102d6920 f   Projectile.obj
 0002:0010ca00       ?FreeLightDef@idProjectile@@UAEXXZ 102d6a00 f   Projectile.obj
 0002:0010caa0       ?Launch@idProjectile@@UAEXABVidVec3@@00MMM@Z 102d6aa0 f   Projectile.obj
 0002:0010d6f0       ?Think@idProjectile@@UAEXXZ 102d76f0 f   Projectile.obj
 0002:0010dc90       ?GetMSec@idGameLocal@@QBEHXZ 102d7c90 f i Projectile.obj
 0002:0010dcd0       ?Collide@idProjectile@@UAE_NABUtrace_s@@ABVidVec3@@@Z 102d7cd0 f   Projectile.obj
 0002:0010e4c0       ?DefaultDamageEffect@idProjectile@@SAXPAVidEntity@@ABVidDict@@ABUtrace_s@@ABVidVec3@@@Z 102d84c0 f   Projectile.obj
 0002:0010e6b0       ?AddDefaultDamageEffect@idProjectile@@AAEXABUtrace_s@@ABVidVec3@@@Z 102d86b0 f   Projectile.obj
 0002:0010e9b0       ?WriteFloat@idBitMsg@@QAEXMHH@Z 102d89b0 f i Projectile.obj
 0002:0010ea30       ?Killed@idProjectile@@UAEXPAVidEntity@@0HABVidVec3@@H@Z 102d8a30 f   Projectile.obj
 0002:0010ec60       ?Fizzle@idProjectile@@QAEXXZ 102d8c60 f   Projectile.obj
 0002:0010ee70       ?Event_RadiusDamage@idProjectile@@AAEXPAVidEntity@@@Z 102d8e70 f   Projectile.obj
 0002:0010ef50       ?Event_GetProjectileState@idProjectile@@AAEXXZ 102d8f50 f   Projectile.obj
 0002:0010efb0       ?Explode@idProjectile@@UAEXABUtrace_s@@PAVidEntity@@@Z 102d8fb0 f   Projectile.obj
 0002:0010fc90       ?GetVelocity@idProjectile@@SA?AVidVec3@@PBVidDict@@@Z 102d9c90 f   Projectile.obj
 0002:0010fd50       ?GetGravity@idProjectile@@SA?AVidVec3@@PBVidDict@@@Z 102d9d50 f   Projectile.obj
 0002:0010fdd0       ?Event_Explode@idProjectile@@AAEXXZ 102d9dd0 f   Projectile.obj
 0002:0010ff90       ?Event_Fizzle@idProjectile@@AAEXXZ 102d9f90 f   Projectile.obj
 0002:0010ffe0       ?Event_Touch@idProjectile@@AAEXPAVidEntity@@PAUtrace_s@@@Z 102d9fe0 f   Projectile.obj
 0002:001101d0       ?CatchProjectile@idProjectile@@QAEXPAVidEntity@@PBD@Z 102da1d0 f   Projectile.obj
 0002:001103b0       ?GetProjectileState@idProjectile@@QAEHXZ 102da3b0 f   Projectile.obj
 0002:001103f0       ?Event_CreateProjectile@idProjectile@@QAEXPAVidEntity@@ABVidVec3@@1@Z 102da3f0 f   Projectile.obj
 0002:00110450       ?Event_LaunchProjectile@idProjectile@@QAEXABVidVec3@@00@Z 102da450 f   Projectile.obj
 0002:001104e0       ?Event_SetGravity@idProjectile@@QAEXM@Z 102da4e0 f   Projectile.obj
 0002:001105d0       ?ClientPredictionCollide@idProjectile@@SA_NPAVidEntity@@ABVidDict@@ABUtrace_s@@ABVidVec3@@_N@Z 102da5d0 f   Projectile.obj
 0002:001107a0       ?ClientPredictionThink@idProjectile@@UAEXXZ 102da7a0 f   Projectile.obj
 0002:00110810       ?WriteToSnapshot@idProjectile@@UBEXAAVidBitMsgDelta@@@Z 102da810 f   Projectile.obj
 0002:00110a40       ?WriteDeltaFloat@idBitMsgDelta@@QAEXMMHH@Z 102daa40 f i Projectile.obj
 0002:00110af0       ?ReadFromSnapshot@idProjectile@@UAEXABVidBitMsgDelta@@@Z 102daaf0 f   Projectile.obj
 0002:00111170       ?ReadDeltaFloat@idBitMsgDelta@@QBEMMHH@Z 102db170 f i Projectile.obj
 0002:00111210       ?ClientReceiveEvent@idProjectile@@UAE_NHHABVidBitMsg@@@Z 102db210 f   Projectile.obj
 0002:001114e0       ?ReadFloat@idBitMsg@@QBEMHH@Z 102db4e0 f i Projectile.obj
 0002:00111560       ?CreateInstance@idGuidedProjectile@@SAPAVidClass@@XZ 102db560 f   Projectile.obj
 0002:00111690       ?GetType@idGuidedProjectile@@UBEPAVidTypeInfo@@XZ 102db690 f   Projectile.obj
 0002:001116d0       ??0idGuidedProjectile@@QAE@XZ 102db6d0 f   Projectile.obj
 0002:00111890       ??_GidGuidedProjectile@@UAEPAXI@Z 102db890 f i Projectile.obj
 0002:00111890       ??_EidGuidedProjectile@@UAEPAXI@Z 102db890 f i Projectile.obj
 0002:00111900       ??1idGuidedProjectile@@UAE@XZ 102db900 f   Projectile.obj
 0002:00111960       ?Spawn@idGuidedProjectile@@QAEXXZ 102db960 f   Projectile.obj
 0002:001119a0       ?Save@idGuidedProjectile@@QBEXPAVidSaveGame@@@Z 102db9a0 f   Projectile.obj
 0002:00111b00       ?Restore@idGuidedProjectile@@QAEXPAVidRestoreGame@@@Z 102dbb00 f   Projectile.obj
 0002:00111c50       ?GetSeekPos@idGuidedProjectile@@MAEXAAVidVec3@@@Z 102dbc50 f   Projectile.obj
 0002:00111df0       ?Think@idGuidedProjectile@@UAEXXZ 102dbdf0 f   Projectile.obj
 0002:00112540       ?Launch@idGuidedProjectile@@UAEXABVidVec3@@00MMM@Z 102dc540 f   Projectile.obj
 0002:001129c0       ?SetEnemy@idGuidedProjectile@@QAEXPAVidEntity@@@Z 102dc9c0 f   Projectile.obj
 0002:00112a20       ?Event_SetEnemy@idGuidedProjectile@@QAEXPAVidEntity@@@Z 102dca20 f   Projectile.obj
 0002:00112a80       ?CreateInstance@idSoulCubeMissile@@SAPAVidClass@@XZ 102dca80 f   Projectile.obj
 0002:00112bb0       ??0idSoulCubeMissile@@QAE@XZ 102dcbb0 f i Projectile.obj
 0002:00112c90       ??_EidSoulCubeMissile@@UAEPAXI@Z 102dcc90 f i Projectile.obj
 0002:00112c90       ??_GidSoulCubeMissile@@UAEPAXI@Z 102dcc90 f i Projectile.obj
 0002:00112d00       ?GetType@idSoulCubeMissile@@UBEPAVidTypeInfo@@XZ 102dcd00 f   Projectile.obj
 0002:00112d40       ?Spawn@idSoulCubeMissile@@QAEXXZ 102dcd40 f   Projectile.obj
 0002:00112e10       ??1idSoulCubeMissile@@UAE@XZ 102dce10 f   Projectile.obj
 0002:00112e70       ?Save@idSoulCubeMissile@@QBEXPAVidSaveGame@@@Z 102dce70 f   Projectile.obj
 0002:00112fb0       ?Restore@idSoulCubeMissile@@QAEXPAVidRestoreGame@@@Z 102dcfb0 f   Projectile.obj
 0002:001130f0       ?KillTarget@idSoulCubeMissile@@IAEXABVidVec3@@@Z 102dd0f0 f   Projectile.obj
 0002:001133c0       ?SetTimeScale@idPhysics_AF@@QAEXM@Z 102dd3c0 f i Projectile.obj
 0002:00113410       ?Think@idSoulCubeMissile@@UAEXXZ 102dd410 f   Projectile.obj
 0002:001137f0       ?GetSeekPos@idSoulCubeMissile@@MAEXAAVidVec3@@@Z 102dd7f0 f   Projectile.obj
 0002:00113910       ?ReturnToOwner@idSoulCubeMissile@@IAEXXZ 102dd910 f   Projectile.obj
 0002:00113990       ?Launch@idSoulCubeMissile@@UAEXABVidVec3@@00MMM@Z 102dd990 f   Projectile.obj
 0002:00113d60       ?CreateInstance@idBFGProjectile@@SAPAVidClass@@XZ 102ddd60 f   Projectile.obj
 0002:00113e90       ?GetType@idBFGProjectile@@UBEPAVidTypeInfo@@XZ 102dde90 f   Projectile.obj
 0002:00113ed0       ??0idBFGProjectile@@QAE@XZ 102dded0 f   Projectile.obj
 0002:00113fe0       ??_GidBFGProjectile@@UAEPAXI@Z 102ddfe0 f i Projectile.obj
 0002:00113fe0       ??_EidBFGProjectile@@UAEPAXI@Z 102ddfe0 f i Projectile.obj
 0002:00114050       ??1idBFGProjectile@@UAE@XZ 102de050 f   Projectile.obj
 0002:00114170       ?Spawn@idBFGProjectile@@QAEXXZ 102de170 f   Projectile.obj
 0002:00114330       ?Save@idBFGProjectile@@QBEXPAVidSaveGame@@@Z 102de330 f   Projectile.obj
 0002:001144a0       ?Restore@idBFGProjectile@@QAEXPAVidRestoreGame@@@Z 102de4a0 f   Projectile.obj
 0002:00114700       ?FreeBeams@idBFGProjectile@@AAEXXZ 102de700 f   Projectile.obj
 0002:00114830       ?EnableBFGVision@idPlayerView@@QAEX_N@Z 102de830 f i Projectile.obj
 0002:00114880       ?Think@idBFGProjectile@@UAEXXZ 102de880 f   Projectile.obj
 0002:001150d0       ?Launch@idBFGProjectile@@UAEXABVidVec3@@00MMM@Z 102df0d0 f   Projectile.obj
 0002:001159a0       ??0beamTarget_t@@QAE@XZ    102df9a0 f i Projectile.obj
 0002:00115a00       ?Event_RemoveBeams@idBFGProjectile@@AAEXXZ 102dfa00 f   Projectile.obj
 0002:00115a60       ?Explode@idBFGProjectile@@UAEXABUtrace_s@@PAVidEntity@@@Z 102dfa60 f   Projectile.obj
 0002:00115fe0       ?CreateInstance@idDebris@@SAPAVidClass@@XZ 102dffe0 f   Projectile.obj
 0002:00116110       ?GetType@idDebris@@UBEPAVidTypeInfo@@XZ 102e0110 f   Projectile.obj
 0002:00116150       ?Spawn@idDebris@@QAEXXZ    102e0150 f   Projectile.obj
 0002:001161d0       ?Create@idDebris@@QAEXPAVidEntity@@ABVidVec3@@ABVidMat3@@@Z 102e01d0 f   Projectile.obj
 0002:00116320       ??0idDebris@@QAE@XZ        102e0320 f   Projectile.obj
 0002:00116430       ??_GidDebris@@UAEPAXI@Z    102e0430 f i Projectile.obj
 0002:00116430       ??_EidDebris@@UAEPAXI@Z    102e0430 f i Projectile.obj
 0002:001164a0       ??1idDebris@@UAE@XZ        102e04a0 f   Projectile.obj
 0002:00116550       ?Save@idDebris@@QBEXPAVidSaveGame@@@Z 102e0550 f   Projectile.obj
 0002:00116610       ?Restore@idDebris@@QAEXPAVidRestoreGame@@@Z 102e0610 f   Projectile.obj
 0002:001166e0       ?Launch@idDebris@@QAEXXZ   102e06e0 f   Projectile.obj
 0002:001172a0       ?Think@idDebris@@UAEXXZ    102e12a0 f   Projectile.obj
 0002:00117400       ?Killed@idDebris@@UAEXPAVidEntity@@0HABVidVec3@@H@Z 102e1400 f   Projectile.obj
 0002:00117480       ?Collide@idDebris@@UAE_NABUtrace_s@@ABVidVec3@@@Z 102e1480 f   Projectile.obj
 0002:00117510       ?Fizzle@idDebris@@QAEXXZ   102e1510 f   Projectile.obj
 0002:00117770       ?Explode@idDebris@@QAEXXZ  102e1770 f   Projectile.obj
 0002:001179f0       ?Event_Explode@idDebris@@AAEXXZ 102e19f0 f   Projectile.obj
 0002:00117a40       ?Event_Fizzle@idDebris@@AAEXXZ 102e1a40 f   Projectile.obj
 0002:00117a90       ?GetSpawnId@?$idEntityPtr@VidEntity@@@@QBEHXZ 102e1a90 f i Projectile.obj
 0002:00117ad0       ?GetEntityNum@?$idEntityPtr@VidEntity@@@@QBEHXZ 102e1ad0 f i Projectile.obj
 0002:00117b20       ??0?$idList@UbeamTarget_t@@@@QAE@H@Z 102e1b20 f i Projectile.obj
 0002:00117bc0       ??1?$idList@UbeamTarget_t@@@@QAE@XZ 102e1bc0 f i Projectile.obj
 0002:00117c10       ?Clear@?$idList@UbeamTarget_t@@@@QAEXXZ 102e1c10 f i Projectile.obj
 0002:00117cb0       ?Num@?$idList@UbeamTarget_t@@@@QBEHXZ 102e1cb0 f i Projectile.obj
 0002:00117cf0       ??A?$idList@UbeamTarget_t@@@@QAEAAUbeamTarget_t@@H@Z 102e1cf0 f i Projectile.obj
 0002:00117db0       ??A?$idList@UbeamTarget_t@@@@QBEABUbeamTarget_t@@H@Z 102e1db0 f i Projectile.obj
 0002:00117e70       ?SetNum@?$idList@UbeamTarget_t@@@@QAEXH_N@Z 102e1e70 f i Projectile.obj
 0002:00117f20       ?Append@?$idList@UbeamTarget_t@@@@QAEHABUbeamTarget_t@@@Z 102e1f20 f i Projectile.obj
 0002:00118020       ??4beamTarget_t@@QAEAAU0@ABU0@@Z 102e2020 f i Projectile.obj
 0002:001180b0       ?Resize@?$idList@UbeamTarget_t@@@@QAEXH@Z 102e20b0 f i Projectile.obj
 0002:001182d0       ??0idPVS@@QAE@XZ           102e22d0 f   Pvs.obj
 0002:001183d0       ??1idPVS@@QAE@XZ           102e23d0 f   Pvs.obj
 0002:00118420       ?GetPortalCount@idPVS@@ABEHXZ 102e2420 f   Pvs.obj
 0002:001184f0       ?CreatePVSData@idPVS@@AAEXXZ 102e24f0 f   Pvs.obj
 0002:001189e0       ??GidPlane@@QBE?AV0@XZ     102e29e0 f i Pvs.obj
 0002:00118a70       ??0idPlane@@QAE@MMMM@Z     102e2a70 f i Pvs.obj
 0002:00118ae0       ??0pvsPortal_s@@QAE@XZ     102e2ae0 f i Pvs.obj
 0002:00118b50       ??0pvsArea_s@@QAE@XZ       102e2b50 f i Pvs.obj
 0002:00118bb0       ?DestroyPVSData@idPVS@@AAEXXZ 102e2bb0 f   Pvs.obj
 0002:00118db0       ?FloodFrontPortalPVS_r@idPVS@@ABEXPAUpvsPortal_s@@H@Z 102e2db0 f   Pvs.obj
 0002:00118f10       ?FrontPortalPVS@idPVS@@ABEXXZ 102e2f10 f   Pvs.obj
 0002:00119280       ?FloodPassagePVS_r@idPVS@@ABEPAUpvsStack_s@@PAUpvsPortal_s@@PBU3@PAU2@@Z 102e3280 f   Pvs.obj
 0002:00119620       ?PassagePVS@idPVS@@ABEXXZ  102e3620 f   Pvs.obj
 0002:001197b0       ?AddPassageBoundaries@idPVS@@ABEXABVidWinding@@0_NPAVidPlane@@AAHH@Z 102e37b0 f   Pvs.obj
 0002:00119d50       ?Compare@idPlane@@QBE_NABV1@MM@Z 102e3d50 f i Pvs.obj
 0002:00119e00       ?Compare@idVec3@@QBE_NABV1@M@Z 102e3e00 f i Pvs.obj
 0002:00119ee0       ?Normal@idPlane@@QBEABVidVec3@@XZ 102e3ee0 f i Pvs.obj
 0002:00119f20       ?SetDist@idPlane@@QAEXM@Z  102e3f20 f i Pvs.obj
 0002:00119f70       ?CreatePassages@idPVS@@ABEXXZ 102e3f70 f   Pvs.obj
 0002:0011a5e0       ??4idFixedWinding@@QAEAAV0@ABVidWinding@@@Z 102e45e0 f i Pvs.obj
 0002:0011a6e0       ?DestroyPassages@idPVS@@ABEXXZ 102e46e0 f   Pvs.obj
 0002:0011a810       ?CopyPortalPVSToMightSee@idPVS@@ABEXXZ 102e4810 f   Pvs.obj
 0002:0011a8c0       ?AreaPVSFromPortalPVS@idPVS@@ABEHXZ 102e48c0 f   Pvs.obj
 0002:0011ac20       ?Init@idPVS@@QAEXXZ        102e4c20 f   Pvs.obj
 0002:0011b030       ?Shutdown@idPVS@@QAEXXZ    102e5030 f   Pvs.obj
 0002:0011b190       ?GetConnectedAreas@idPVS@@ABEXHPA_N@Z 102e5190 f   Pvs.obj
 0002:0011b370       ?GetPVSArea@idPVS@@QBEHABVidVec3@@@Z 102e5370 f   Pvs.obj
 0002:0011b3e0       ?GetPVSAreas@idPVS@@QBEHABVidBounds@@PAHH@Z 102e53e0 f   Pvs.obj
 0002:0011b460       ?SetupCurrentPVS@idPVS@@QBE?AUpvsHandle_s@@ABVidVec3@@W4pvsType_t@@@Z 102e5460 f   Pvs.obj
 0002:0011b4f0       ?SetupCurrentPVS@idPVS@@QBE?AUpvsHandle_s@@ABVidBounds@@W4pvsType_t@@@Z 102e54f0 f   Pvs.obj
 0002:0011b5d0       ?SetupCurrentPVS@idPVS@@QBE?AUpvsHandle_s@@HW4pvsType_t@@@Z 102e55d0 f   Pvs.obj
 0002:0011b830       ?SetupCurrentPVS@idPVS@@QBE?AUpvsHandle_s@@PBHHW4pvsType_t@@@Z 102e5830 f   Pvs.obj
 0002:0011bc30       ?MergeCurrentPVS@idPVS@@QBE?AUpvsHandle_s@@U2@0@Z 102e5c30 f   Pvs.obj
 0002:0011bdf0       ?AllocCurrentPVS@idPVS@@ABE?AUpvsHandle_s@@I@Z 102e5df0 f   Pvs.obj
 0002:0011bf30       ?FreeCurrentPVS@idPVS@@QBEXUpvsHandle_s@@@Z 102e5f30 f   Pvs.obj
 0002:0011bfd0       ?InCurrentPVS@idPVS@@QBE_NUpvsHandle_s@@ABVidVec3@@@Z 102e5fd0 f   Pvs.obj
 0002:0011c0c0       ?InCurrentPVS@idPVS@@QBE_NUpvsHandle_s@@ABVidBounds@@@Z 102e60c0 f   Pvs.obj
 0002:0011c220       ?InCurrentPVS@idPVS@@QBE_NUpvsHandle_s@@H@Z 102e6220 f   Pvs.obj
 0002:0011c300       ?InCurrentPVS@idPVS@@QBE_NUpvsHandle_s@@PBHH@Z 102e6300 f   Pvs.obj
 0002:0011c420       ?DrawPVS@idPVS@@QBEXABVidVec3@@W4pvsType_t@@@Z 102e6420 f   Pvs.obj
 0002:0011c7e0       ?DrawPVS@idPVS@@QBEXABVidBounds@@W4pvsType_t@@@Z 102e67e0 f   Pvs.obj
 0002:0011cc20       ?DrawCurrentPVS@idPVS@@QBEXUpvsHandle_s@@ABVidVec3@@@Z 102e6c20 f   Pvs.obj
 0002:0011cfb0       ?CreateInstance@idSecurityCamera@@SAPAVidClass@@XZ 102e6fb0 f   SecurityCamera.obj
 0002:0011d0e0       ??0idSecurityCamera@@QAE@XZ 102e70e0 f i SecurityCamera.obj
 0002:0011d1b0       ??_EidSecurityCamera@@UAEPAXI@Z 102e71b0 f i SecurityCamera.obj
 0002:0011d1b0       ??_GidSecurityCamera@@UAEPAXI@Z 102e71b0 f i SecurityCamera.obj
 0002:0011d220       ??1idSecurityCamera@@UAE@XZ 102e7220 f i SecurityCamera.obj
 0002:0011d2c0       ?GetType@idSecurityCamera@@UBEPAVidTypeInfo@@XZ 102e72c0 f   SecurityCamera.obj
 0002:0011d300       ?Save@idSecurityCamera@@QBEXPAVidSaveGame@@@Z 102e7300 f   SecurityCamera.obj
 0002:0011d4d0       ?Restore@idSecurityCamera@@QAEXPAVidRestoreGame@@@Z 102e74d0 f   SecurityCamera.obj
 0002:0011d680       ?Spawn@idSecurityCamera@@QAEXXZ 102e7680 f   SecurityCamera.obj
 0002:0011dc30       ?abs@@YAMM@Z               102e7c30 f i SecurityCamera.obj
 0002:0011dc80       ?Event_AddLight@idSecurityCamera@@AAEXXZ 102e7c80 f   SecurityCamera.obj
 0002:0011e240       ?DrawFov@idSecurityCamera@@AAEXXZ 102e8240 f   SecurityCamera.obj
 0002:0011eb20       ?GetRenderView@idSecurityCamera@@UAEPAUrenderView_s@@XZ 102e8b20 f   SecurityCamera.obj
 0002:0011ec50       ?CanSeePlayer@idSecurityCamera@@AAE_NXZ 102e8c50 f   SecurityCamera.obj
 0002:0011f050       ?SetAlertMode@idSecurityCamera@@AAEXH@Z 102e9050 f   SecurityCamera.obj
 0002:0011f0e0       ?Think@idSecurityCamera@@UAEXXZ 102e90e0 f   SecurityCamera.obj
 0002:0011f420       ?GetAxis@idSecurityCamera@@ABE?BVidVec3@@XZ 102e9420 f   SecurityCamera.obj
 0002:0011f570       ?SweepSpeed@idSecurityCamera@@ABEMXZ 102e9570 f   SecurityCamera.obj
 0002:0011f5d0       ?StartSweep@idSecurityCamera@@AAEXXZ 102e95d0 f   SecurityCamera.obj
 0002:0011f6b0       ?Event_ContinueSweep@idSecurityCamera@@AAEXXZ 102e96b0 f   SecurityCamera.obj
 0002:0011f800       ?Event_Alert@idSecurityCamera@@AAEXXZ 102e9800 f   SecurityCamera.obj
 0002:0011f8d0       ?Event_ReverseSweep@idSecurityCamera@@AAEXXZ 102e98d0 f   SecurityCamera.obj
 0002:0011f9a0       ?Event_Pause@idSecurityCamera@@AAEXXZ 102e99a0 f   SecurityCamera.obj
 0002:0011fa50       ?Killed@idSecurityCamera@@UAEXPAVidEntity@@0HABVidVec3@@H@Z 102e9a50 f   SecurityCamera.obj
 0002:0011fdb0       ?Pain@idSecurityCamera@@UAE_NPAVidEntity@@0HABVidVec3@@H@Z 102e9db0 f   SecurityCamera.obj
 0002:0011fe40       ?Present@idSecurityCamera@@UAEXXZ 102e9e40 f   SecurityCamera.obj
 0002:0011ffa0       ??0idSmokeParticles@@QAE@XZ 102e9fa0 f   SmokeParticles.obj
 0002:001200b0       ??0singleSmoke_s@@QAE@XZ   102ea0b0 f i SmokeParticles.obj
 0002:00120130       ?Init@idSmokeParticles@@QAEXXZ 102ea130 f   SmokeParticles.obj
 0002:001203c0       ?Shutdown@idSmokeParticles@@QAEXXZ 102ea3c0 f   SmokeParticles.obj
 0002:001204a0       ?FreeSmokes@idSmokeParticles@@QAEXXZ 102ea4a0 f   SmokeParticles.obj
 0002:00120660       ?EmitSmoke@idSmokeParticles@@QAE_NPBVidDeclParticle@@HMABVidVec3@@ABVidMat3@@@Z 102ea660 f   SmokeParticles.obj
 0002:00120c70       ?UpdateRenderEntity@idSmokeParticles@@AAE_NPAUrenderEntity_s@@PBUrenderView_s@@@Z 102eac70 f   SmokeParticles.obj
 0002:001213e0       ??0particleGen_t@@QAE@XZ   102eb3e0 f i SmokeParticles.obj
 0002:00121470       ?ModelCallback@idSmokeParticles@@CA_NPAUrenderEntity_s@@PBUrenderView_s@@@Z 102eb470 f   SmokeParticles.obj
 0002:001214e0       ?Num@?$idList@PAVidParticleStage@@@@QBEHXZ 102eb4e0 f i SmokeParticles.obj
 0002:00121520       ??A?$idList@PAVidParticleStage@@@@QBEABQAVidParticleStage@@H@Z 102eb520 f i SmokeParticles.obj
 0002:001215e0       ??0?$idList@UactiveSmokeStage_t@@@@QAE@H@Z 102eb5e0 f i SmokeParticles.obj
 0002:00121680       ?Num@?$idList@UactiveSmokeStage_t@@@@QBEHXZ 102eb680 f i SmokeParticles.obj
 0002:001216c0       ??A?$idList@UactiveSmokeStage_t@@@@QAEAAUactiveSmokeStage_t@@H@Z 102eb6c0 f i SmokeParticles.obj
 0002:00121780       ?Append@?$idList@UactiveSmokeStage_t@@@@QAEHABUactiveSmokeStage_t@@@Z 102eb780 f i SmokeParticles.obj
 0002:00121880       ?RemoveIndex@?$idList@UactiveSmokeStage_t@@@@QAE_NH@Z 102eb880 f i SmokeParticles.obj
 0002:001219d0       ?Resize@?$idList@UactiveSmokeStage_t@@@@QAEXH@Z 102eb9d0 f i SmokeParticles.obj
 0002:00121b40       ?CreateInstance@idSound@@SAPAVidClass@@XZ 102ebb40 f   Sound.obj
 0002:00121c70       ?GetType@idSound@@UBEPAVidTypeInfo@@XZ 102ebc70 f   Sound.obj
 0002:00121cb0       ??0idSound@@QAE@XZ         102ebcb0 f   Sound.obj
 0002:00121df0       ??_EidSound@@UAEPAXI@Z     102ebdf0 f i Sound.obj
 0002:00121df0       ??_GidSound@@UAEPAXI@Z     102ebdf0 f i Sound.obj
 0002:00121e60       ??1idSound@@UAE@XZ         102ebe60 f i Sound.obj
 0002:00121eb0       ?Save@idSound@@QBEXPAVidSaveGame@@@Z 102ebeb0 f   Sound.obj
 0002:00121fb0       ?Restore@idSound@@QAEXPAVidRestoreGame@@@Z 102ebfb0 f   Sound.obj
 0002:001220b0       ?Spawn@idSound@@QAEXXZ     102ec0b0 f   Sound.obj
 0002:00122350       ??9idAngles@@QBE_NABV0@@Z  102ec350 f i Sound.obj
 0002:001223b0       ?Event_Trigger@idSound@@AAEXPAVidEntity@@@Z 102ec3b0 f   Sound.obj
 0002:00122550       ?Event_Timer@idSound@@AAEXXZ 102ec550 f   Sound.obj
 0002:001225e0       ?Think@idSound@@UAEXXZ     102ec5e0 f   Sound.obj
 0002:00122680       ?UpdateChangeableSpawnArgs@idSound@@UAEXPBVidDict@@@Z 102ec680 f   Sound.obj
 0002:00122ac0       ?SetSound@idSound@@QAEXPBDH@Z 102ecac0 f   Sound.obj
 0002:00122c00       ?DoSound@idSound@@AAEX_N@Z 102ecc00 f   Sound.obj
 0002:00122cd0       ?Event_On@idSound@@AAEXXZ  102eccd0 f   Sound.obj
 0002:00122d90       ?Event_Off@idSound@@AAEXXZ 102ecd90 f   Sound.obj
 0002:00122e10       ?ShowEditingDialog@idSound@@UAEXXZ 102ece10 f   Sound.obj
 0002:00122e80       ?CreateInstance@idTarget@@SAPAVidClass@@XZ 102ece80 f   Target.obj
 0002:00122fb0       ??0idTarget@@QAE@XZ        102ecfb0 f i Target.obj
 0002:00123010       ??_GidTarget@@UAEPAXI@Z    102ed010 f i Target.obj
 0002:00123010       ??_EidTarget@@UAEPAXI@Z    102ed010 f i Target.obj
 0002:00123080       ??1idTarget@@UAE@XZ        102ed080 f i Target.obj
 0002:001230d0       ?GetType@idTarget@@UBEPAVidTypeInfo@@XZ 102ed0d0 f   Target.obj
 0002:00123110       ?CreateInstance@idTarget_Remove@@SAPAVidClass@@XZ 102ed110 f   Target.obj
 0002:00123240       ??0idTarget_Remove@@QAE@XZ 102ed240 f i Target.obj
 0002:001232a0       ??_EidTarget_Remove@@UAEPAXI@Z 102ed2a0 f i Target.obj
 0002:001232a0       ??_GidTarget_Remove@@UAEPAXI@Z 102ed2a0 f i Target.obj
 0002:00123310       ??1idTarget_Remove@@UAE@XZ 102ed310 f i Target.obj
 0002:00123360       ?GetType@idTarget_Remove@@UBEPAVidTypeInfo@@XZ 102ed360 f   Target.obj
 0002:001233a0       ?Event_Activate@idTarget_Remove@@AAEXPAVidEntity@@@Z 102ed3a0 f   Target.obj
 0002:00123470       ?CreateInstance@idTarget_Show@@SAPAVidClass@@XZ 102ed470 f   Target.obj
 0002:001235a0       ??0idTarget_Show@@QAE@XZ   102ed5a0 f i Target.obj
 0002:00123600       ??_GidTarget_Show@@UAEPAXI@Z 102ed600 f i Target.obj
 0002:00123600       ??_EidTarget_Show@@UAEPAXI@Z 102ed600 f i Target.obj
 0002:00123670       ??1idTarget_Show@@UAE@XZ   102ed670 f i Target.obj
 0002:001236c0       ?GetType@idTarget_Show@@UBEPAVidTypeInfo@@XZ 102ed6c0 f   Target.obj
 0002:00123700       ?Event_Activate@idTarget_Show@@AAEXPAVidEntity@@@Z 102ed700 f   Target.obj
 0002:001237d0       ?CreateInstance@idTarget_Damage@@SAPAVidClass@@XZ 102ed7d0 f   Target.obj
 0002:00123900       ??0idTarget_Damage@@QAE@XZ 102ed900 f i Target.obj
 0002:00123960       ??_EidTarget_Damage@@UAEPAXI@Z 102ed960 f i Target.obj
 0002:00123960       ??_GidTarget_Damage@@UAEPAXI@Z 102ed960 f i Target.obj
 0002:001239d0       ??1idTarget_Damage@@UAE@XZ 102ed9d0 f i Target.obj
 0002:00123a20       ?GetType@idTarget_Damage@@UBEPAVidTypeInfo@@XZ 102eda20 f   Target.obj
 0002:00123a60       ?Event_Activate@idTarget_Damage@@AAEXPAVidEntity@@@Z 102eda60 f   Target.obj
 0002:00123b60       ?CreateInstance@idTarget_SessionCommand@@SAPAVidClass@@XZ 102edb60 f   Target.obj
 0002:00123c90       ??0idTarget_SessionCommand@@QAE@XZ 102edc90 f i Target.obj
 0002:00123cf0       ??_EidTarget_SessionCommand@@UAEPAXI@Z 102edcf0 f i Target.obj
 0002:00123cf0       ??_GidTarget_SessionCommand@@UAEPAXI@Z 102edcf0 f i Target.obj
 0002:00123d60       ??1idTarget_SessionCommand@@UAE@XZ 102edd60 f i Target.obj
 0002:00123db0       ?GetType@idTarget_SessionCommand@@UBEPAVidTypeInfo@@XZ 102eddb0 f   Target.obj
 0002:00123df0       ?Event_Activate@idTarget_SessionCommand@@AAEXPAVidEntity@@@Z 102eddf0 f   Target.obj
 0002:00123e60       ?CreateInstance@idTarget_EndLevel@@SAPAVidClass@@XZ 102ede60 f   Target.obj
 0002:00123f90       ??0idTarget_EndLevel@@QAE@XZ 102edf90 f i Target.obj
 0002:00123ff0       ??_EidTarget_EndLevel@@UAEPAXI@Z 102edff0 f i Target.obj
 0002:00123ff0       ??_GidTarget_EndLevel@@UAEPAXI@Z 102edff0 f i Target.obj
 0002:00124060       ??1idTarget_EndLevel@@UAE@XZ 102ee060 f i Target.obj
 0002:001240b0       ?GetType@idTarget_EndLevel@@UBEPAVidTypeInfo@@XZ 102ee0b0 f   Target.obj
 0002:001240f0       ?Event_Activate@idTarget_EndLevel@@AAEXPAVidEntity@@@Z 102ee0f0 f   Target.obj
 0002:00124300       ?CreateInstance@idTarget_WaitForButton@@SAPAVidClass@@XZ 102ee300 f   Target.obj
 0002:00124430       ??0idTarget_WaitForButton@@QAE@XZ 102ee430 f i Target.obj
 0002:00124490       ??_EidTarget_WaitForButton@@UAEPAXI@Z 102ee490 f i Target.obj
 0002:00124490       ??_GidTarget_WaitForButton@@UAEPAXI@Z 102ee490 f i Target.obj
 0002:00124500       ??1idTarget_WaitForButton@@UAE@XZ 102ee500 f i Target.obj
 0002:00124550       ?GetType@idTarget_WaitForButton@@UBEPAVidTypeInfo@@XZ 102ee550 f   Target.obj
 0002:00124590       ?Event_Activate@idTarget_WaitForButton@@AAEXPAVidEntity@@@Z 102ee590 f   Target.obj
 0002:00124610       ?Think@idTarget_WaitForButton@@UAEXXZ 102ee610 f   Target.obj
 0002:001246f0       ?CreateInstance@idTarget_SetGlobalShaderTime@@SAPAVidClass@@XZ 102ee6f0 f   Target.obj
 0002:00124820       ??0idTarget_SetGlobalShaderTime@@QAE@XZ 102ee820 f i Target.obj
 0002:00124880       ??_GidTarget_SetGlobalShaderTime@@UAEPAXI@Z 102ee880 f i Target.obj
 0002:00124880       ??_EidTarget_SetGlobalShaderTime@@UAEPAXI@Z 102ee880 f i Target.obj
 0002:001248f0       ??1idTarget_SetGlobalShaderTime@@UAE@XZ 102ee8f0 f i Target.obj
 0002:00124940       ?GetType@idTarget_SetGlobalShaderTime@@UBEPAVidTypeInfo@@XZ 102ee940 f   Target.obj
 0002:00124980       ?Event_Activate@idTarget_SetGlobalShaderTime@@AAEXPAVidEntity@@@Z 102ee980 f   Target.obj
 0002:00124a20       ?CreateInstance@idTarget_SetShaderParm@@SAPAVidClass@@XZ 102eea20 f   Target.obj
 0002:00124b50       ??0idTarget_SetShaderParm@@QAE@XZ 102eeb50 f i Target.obj
 0002:00124bb0       ??_GidTarget_SetShaderParm@@UAEPAXI@Z 102eebb0 f i Target.obj
 0002:00124bb0       ??_EidTarget_SetShaderParm@@UAEPAXI@Z 102eebb0 f i Target.obj
 0002:00124c20       ??1idTarget_SetShaderParm@@UAE@XZ 102eec20 f i Target.obj
 0002:00124c70       ?GetType@idTarget_SetShaderParm@@UBEPAVidTypeInfo@@XZ 102eec70 f   Target.obj
 0002:00124cb0       ?Event_Activate@idTarget_SetShaderParm@@AAEXPAVidEntity@@@Z 102eecb0 f   Target.obj
 0002:00124f90       ?CreateInstance@idTarget_SetShaderTime@@SAPAVidClass@@XZ 102eef90 f   Target.obj
 0002:001250c0       ??0idTarget_SetShaderTime@@QAE@XZ 102ef0c0 f i Target.obj
 0002:00125120       ??_EidTarget_SetShaderTime@@UAEPAXI@Z 102ef120 f i Target.obj
 0002:00125120       ??_GidTarget_SetShaderTime@@UAEPAXI@Z 102ef120 f i Target.obj
 0002:00125190       ??1idTarget_SetShaderTime@@UAE@XZ 102ef190 f i Target.obj
 0002:001251e0       ?GetType@idTarget_SetShaderTime@@UBEPAVidTypeInfo@@XZ 102ef1e0 f   Target.obj
 0002:00125220       ?Event_Activate@idTarget_SetShaderTime@@AAEXPAVidEntity@@@Z 102ef220 f   Target.obj
 0002:00125320       ?CreateInstance@idTarget_FadeEntity@@SAPAVidClass@@XZ 102ef320 f   Target.obj
 0002:00125450       ?GetType@idTarget_FadeEntity@@UBEPAVidTypeInfo@@XZ 102ef450 f   Target.obj
 0002:00125490       ??0idTarget_FadeEntity@@QAE@XZ 102ef490 f   Target.obj
 0002:00125570       ??_EidTarget_FadeEntity@@UAEPAXI@Z 102ef570 f i Target.obj
 0002:00125570       ??_GidTarget_FadeEntity@@UAEPAXI@Z 102ef570 f i Target.obj
 0002:001255e0       ??1idTarget_FadeEntity@@UAE@XZ 102ef5e0 f i Target.obj
 0002:00125630       ?Save@idTarget_FadeEntity@@QBEXPAVidSaveGame@@@Z 102ef630 f   Target.obj
 0002:001256c0       ?Restore@idTarget_FadeEntity@@QAEXPAVidRestoreGame@@@Z 102ef6c0 f   Target.obj
 0002:00125750       ?Event_Activate@idTarget_FadeEntity@@AAEXPAVidEntity@@@Z 102ef750 f   Target.obj
 0002:001258b0       ?Think@idTarget_FadeEntity@@UAEXXZ 102ef8b0 f   Target.obj
 0002:00125ac0       ?CreateInstance@idTarget_LightFadeIn@@SAPAVidClass@@XZ 102efac0 f   Target.obj
 0002:00125bf0       ??0idTarget_LightFadeIn@@QAE@XZ 102efbf0 f i Target.obj
 0002:00125c50       ??_GidTarget_LightFadeIn@@UAEPAXI@Z 102efc50 f i Target.obj
 0002:00125c50       ??_EidTarget_LightFadeIn@@UAEPAXI@Z 102efc50 f i Target.obj
 0002:00125cc0       ??1idTarget_LightFadeIn@@UAE@XZ 102efcc0 f i Target.obj
 0002:00125d10       ?GetType@idTarget_LightFadeIn@@UBEPAVidTypeInfo@@XZ 102efd10 f   Target.obj
 0002:00125d50       ?Event_Activate@idTarget_LightFadeIn@@AAEXPAVidEntity@@@Z 102efd50 f   Target.obj
 0002:00125ea0       ?CreateInstance@idTarget_LightFadeOut@@SAPAVidClass@@XZ 102efea0 f   Target.obj
 0002:00125fd0       ??0idTarget_LightFadeOut@@QAE@XZ 102effd0 f i Target.obj
 0002:00126030       ??_EidTarget_LightFadeOut@@UAEPAXI@Z 102f0030 f i Target.obj
 0002:00126030       ??_GidTarget_LightFadeOut@@UAEPAXI@Z 102f0030 f i Target.obj
 0002:001260a0       ??1idTarget_LightFadeOut@@UAE@XZ 102f00a0 f i Target.obj
 0002:001260f0       ?GetType@idTarget_LightFadeOut@@UBEPAVidTypeInfo@@XZ 102f00f0 f   Target.obj
 0002:00126130       ?Event_Activate@idTarget_LightFadeOut@@AAEXPAVidEntity@@@Z 102f0130 f   Target.obj
 0002:00126280       ?CreateInstance@idTarget_Give@@SAPAVidClass@@XZ 102f0280 f   Target.obj
 0002:001263b0       ??0idTarget_Give@@QAE@XZ   102f03b0 f i Target.obj
 0002:00126410       ??_GidTarget_Give@@UAEPAXI@Z 102f0410 f i Target.obj
 0002:00126410       ??_EidTarget_Give@@UAEPAXI@Z 102f0410 f i Target.obj
 0002:00126480       ??1idTarget_Give@@UAE@XZ   102f0480 f i Target.obj
 0002:001264d0       ?GetType@idTarget_Give@@UBEPAVidTypeInfo@@XZ 102f04d0 f   Target.obj
 0002:00126510       ?Spawn@idTarget_Give@@QAEXXZ 102f0510 f   Target.obj
 0002:00126590       ?Event_Activate@idTarget_Give@@AAEXPAVidEntity@@@Z 102f0590 f   Target.obj
 0002:00126820       ?CreateInstance@idTarget_GiveEmail@@SAPAVidClass@@XZ 102f0820 f   Target.obj
 0002:00126950       ??0idTarget_GiveEmail@@QAE@XZ 102f0950 f i Target.obj
 0002:001269b0       ??_GidTarget_GiveEmail@@UAEPAXI@Z 102f09b0 f i Target.obj
 0002:001269b0       ??_EidTarget_GiveEmail@@UAEPAXI@Z 102f09b0 f i Target.obj
 0002:00126a20       ??1idTarget_GiveEmail@@UAE@XZ 102f0a20 f i Target.obj
 0002:00126a70       ?GetType@idTarget_GiveEmail@@UBEPAVidTypeInfo@@XZ 102f0a70 f   Target.obj
 0002:00126ab0       ?Spawn@idTarget_GiveEmail@@QAEXXZ 102f0ab0 f   Target.obj
 0002:00126af0       ?Event_Activate@idTarget_GiveEmail@@AAEXPAVidEntity@@@Z 102f0af0 f   Target.obj
 0002:00126bd0       ?CreateInstance@idTarget_SetModel@@SAPAVidClass@@XZ 102f0bd0 f   Target.obj
 0002:00126d00       ??0idTarget_SetModel@@QAE@XZ 102f0d00 f i Target.obj
 0002:00126d60       ??_GidTarget_SetModel@@UAEPAXI@Z 102f0d60 f i Target.obj
 0002:00126d60       ??_EidTarget_SetModel@@UAEPAXI@Z 102f0d60 f i Target.obj
 0002:00126dd0       ??1idTarget_SetModel@@UAE@XZ 102f0dd0 f i Target.obj
 0002:00126e20       ?GetType@idTarget_SetModel@@UBEPAVidTypeInfo@@XZ 102f0e20 f   Target.obj
 0002:00126e60       ?Spawn@idTarget_SetModel@@QAEXXZ 102f0e60 f   Target.obj
 0002:00126f40       ?Event_Activate@idTarget_SetModel@@AAEXPAVidEntity@@@Z 102f0f40 f   Target.obj
 0002:00127020       ?CreateInstance@idTarget_SetInfluence@@SAPAVidClass@@XZ 102f1020 f   Target.obj
 0002:00127150       ?GetType@idTarget_SetInfluence@@UBEPAVidTypeInfo@@XZ 102f1150 f   Target.obj
 0002:00127190       ??0idTarget_SetInfluence@@QAE@XZ 102f1190 f   Target.obj
 0002:00127330       ??_GidTarget_SetInfluence@@UAEPAXI@Z 102f1330 f i Target.obj
 0002:00127330       ??_EidTarget_SetInfluence@@UAEPAXI@Z 102f1330 f i Target.obj
 0002:001273a0       ??1idTarget_SetInfluence@@UAE@XZ 102f13a0 f i Target.obj
 0002:001274b0       ?Save@idTarget_SetInfluence@@QBEXPAVidSaveGame@@@Z 102f14b0 f   Target.obj
 0002:00127800       ?Restore@idTarget_SetInfluence@@QAEXPAVidRestoreGame@@@Z 102f1800 f   Target.obj
 0002:00127b50       ?Spawn@idTarget_SetInfluence@@QAEXXZ 102f1b50 f   Target.obj
 0002:00127ca0       ?Event_Flash@idTarget_SetInfluence@@AAEXMH@Z 102f1ca0 f   Target.obj
 0002:00127ee0       ?Event_ClearFlash@idTarget_SetInfluence@@AAEXM@Z 102f1ee0 f   Target.obj
 0002:00127f90       ?Event_GatherEntities@idTarget_SetInfluence@@AAEXXZ 102f1f90 f   Target.obj
 0002:001285e0       ?Event_Activate@idTarget_SetInfluence@@AAEXPAVidEntity@@@Z 102f25e0 f   Target.obj
 0002:00129250       ?Think@idTarget_SetInfluence@@EAEXXZ 102f3250 f   Target.obj
 0002:00129360       ?Event_RestoreInfluence@idTarget_SetInfluence@@AAEXXZ 102f3360 f   Target.obj
 0002:00129a10       ?CreateInstance@idTarget_SetKeyVal@@SAPAVidClass@@XZ 102f3a10 f   Target.obj
 0002:00129b40       ??0idTarget_SetKeyVal@@QAE@XZ 102f3b40 f i Target.obj
 0002:00129ba0       ??_EidTarget_SetKeyVal@@UAEPAXI@Z 102f3ba0 f i Target.obj
 0002:00129ba0       ??_GidTarget_SetKeyVal@@UAEPAXI@Z 102f3ba0 f i Target.obj
 0002:00129c10       ??1idTarget_SetKeyVal@@UAE@XZ 102f3c10 f i Target.obj
 0002:00129c60       ?GetType@idTarget_SetKeyVal@@UBEPAVidTypeInfo@@XZ 102f3c60 f   Target.obj
 0002:00129ca0       ?Event_Activate@idTarget_SetKeyVal@@AAEXPAVidEntity@@@Z 102f3ca0 f   Target.obj
 0002:0012a150       ?CreateInstance@idTarget_SetFov@@SAPAVidClass@@XZ 102f4150 f   Target.obj
 0002:0012a280       ??0idTarget_SetFov@@QAE@XZ 102f4280 f i Target.obj
 0002:0012a330       ??_GidTarget_SetFov@@UAEPAXI@Z 102f4330 f i Target.obj
 0002:0012a330       ??_EidTarget_SetFov@@UAEPAXI@Z 102f4330 f i Target.obj
 0002:0012a3a0       ??1idTarget_SetFov@@UAE@XZ 102f43a0 f i Target.obj
 0002:0012a3f0       ?GetType@idTarget_SetFov@@UBEPAVidTypeInfo@@XZ 102f43f0 f   Target.obj
 0002:0012a430       ?Save@idTarget_SetFov@@QBEXPAVidSaveGame@@@Z 102f4430 f   Target.obj
 0002:0012a500       ?Restore@idTarget_SetFov@@QAEXPAVidRestoreGame@@@Z 102f4500 f   Target.obj
 0002:0012a660       ?Event_Activate@idTarget_SetFov@@AAEXPAVidEntity@@@Z 102f4660 f   Target.obj
 0002:0012a7c0       ?Think@idTarget_SetFov@@UAEXXZ 102f47c0 f   Target.obj
 0002:0012a8c0       ?CreateInstance@idTarget_SetPrimaryObjective@@SAPAVidClass@@XZ 102f48c0 f   Target.obj
 0002:0012a9f0       ??0idTarget_SetPrimaryObjective@@QAE@XZ 102f49f0 f i Target.obj
 0002:0012aa50       ??_EidTarget_SetPrimaryObjective@@UAEPAXI@Z 102f4a50 f i Target.obj
 0002:0012aa50       ??_GidTarget_SetPrimaryObjective@@UAEPAXI@Z 102f4a50 f i Target.obj
 0002:0012aac0       ??1idTarget_SetPrimaryObjective@@UAE@XZ 102f4ac0 f i Target.obj
 0002:0012ab10       ?GetType@idTarget_SetPrimaryObjective@@UBEPAVidTypeInfo@@XZ 102f4b10 f   Target.obj
 0002:0012ab50       ?Event_Activate@idTarget_SetPrimaryObjective@@AAEXPAVidEntity@@@Z 102f4b50 f   Target.obj
 0002:0012ac40       ?CreateInstance@idTarget_LockDoor@@SAPAVidClass@@XZ 102f4c40 f   Target.obj
 0002:0012ad70       ??0idTarget_LockDoor@@QAE@XZ 102f4d70 f i Target.obj
 0002:0012add0       ??_EidTarget_LockDoor@@UAEPAXI@Z 102f4dd0 f i Target.obj
 0002:0012add0       ??_GidTarget_LockDoor@@UAEPAXI@Z 102f4dd0 f i Target.obj
 0002:0012ae40       ??1idTarget_LockDoor@@UAE@XZ 102f4e40 f i Target.obj
 0002:0012ae90       ?GetType@idTarget_LockDoor@@UBEPAVidTypeInfo@@XZ 102f4e90 f   Target.obj
 0002:0012aed0       ?Event_Activate@idTarget_LockDoor@@AAEXPAVidEntity@@@Z 102f4ed0 f   Target.obj
 0002:0012afe0       ?CreateInstance@idTarget_CallObjectFunction@@SAPAVidClass@@XZ 102f4fe0 f   Target.obj
 0002:0012b110       ??0idTarget_CallObjectFunction@@QAE@XZ 102f5110 f i Target.obj
 0002:0012b170       ??_EidTarget_CallObjectFunction@@UAEPAXI@Z 102f5170 f i Target.obj
 0002:0012b170       ??_GidTarget_CallObjectFunction@@UAEPAXI@Z 102f5170 f i Target.obj
 0002:0012b1e0       ??1idTarget_CallObjectFunction@@UAE@XZ 102f51e0 f i Target.obj
 0002:0012b230       ?GetType@idTarget_CallObjectFunction@@UBEPAVidTypeInfo@@XZ 102f5230 f   Target.obj
 0002:0012b270       ?Event_Activate@idTarget_CallObjectFunction@@AAEXPAVidEntity@@@Z 102f5270 f   Target.obj
 0002:0012b530       ?CreateInstance@idTarget_EnableLevelWeapons@@SAPAVidClass@@XZ 102f5530 f   Target.obj
 0002:0012b660       ??0idTarget_EnableLevelWeapons@@QAE@XZ 102f5660 f i Target.obj
 0002:0012b6c0       ??_GidTarget_EnableLevelWeapons@@UAEPAXI@Z 102f56c0 f i Target.obj
 0002:0012b6c0       ??_EidTarget_EnableLevelWeapons@@UAEPAXI@Z 102f56c0 f i Target.obj
 0002:0012b730       ??1idTarget_EnableLevelWeapons@@UAE@XZ 102f5730 f i Target.obj
 0002:0012b780       ?GetType@idTarget_EnableLevelWeapons@@UBEPAVidTypeInfo@@XZ 102f5780 f   Target.obj
 0002:0012b7c0       ?Event_Activate@idTarget_EnableLevelWeapons@@AAEXPAVidEntity@@@Z 102f57c0 f   Target.obj
 0002:0012b970       ?CreateInstance@idTarget_Tip@@SAPAVidClass@@XZ 102f5970 f   Target.obj
 0002:0012baa0       ?GetType@idTarget_Tip@@UBEPAVidTypeInfo@@XZ 102f5aa0 f   Target.obj
 0002:0012bae0       ??0idTarget_Tip@@QAE@XZ    102f5ae0 f   Target.obj
 0002:0012bba0       ??_GidTarget_Tip@@UAEPAXI@Z 102f5ba0 f i Target.obj
 0002:0012bba0       ??_EidTarget_Tip@@UAEPAXI@Z 102f5ba0 f i Target.obj
 0002:0012bc10       ??1idTarget_Tip@@UAE@XZ    102f5c10 f i Target.obj
 0002:0012bc60       ?Spawn@idTarget_Tip@@QAEXXZ 102f5c60 f   Target.obj
 0002:0012bca0       ?Save@idTarget_Tip@@QBEXPAVidSaveGame@@@Z 102f5ca0 f   Target.obj
 0002:0012bd00       ?Restore@idTarget_Tip@@QAEXPAVidRestoreGame@@@Z 102f5d00 f   Target.obj
 0002:0012bd60       ?Event_GetPlayerPos@idTarget_Tip@@AAEXXZ 102f5d60 f   Target.obj
 0002:0012be20       ?Event_Activate@idTarget_Tip@@AAEXPAVidEntity@@@Z 102f5e20 f   Target.obj
 0002:0012bf20       ?IsTipVisible@idPlayer@@QAE_NXZ 102f5f20 f i Target.obj
 0002:0012bf60       ?Event_TipOff@idTarget_Tip@@AAEXXZ 102f5f60 f   Target.obj
 0002:0012c080       ?CreateInstance@idTarget_GiveSecurity@@SAPAVidClass@@XZ 102f6080 f   Target.obj
 0002:0012c1b0       ??0idTarget_GiveSecurity@@QAE@XZ 102f61b0 f i Target.obj
 0002:0012c210       ??_GidTarget_GiveSecurity@@UAEPAXI@Z 102f6210 f i Target.obj
 0002:0012c210       ??_EidTarget_GiveSecurity@@UAEPAXI@Z 102f6210 f i Target.obj
 0002:0012c280       ??1idTarget_GiveSecurity@@UAE@XZ 102f6280 f i Target.obj
 0002:0012c2d0       ?GetType@idTarget_GiveSecurity@@UBEPAVidTypeInfo@@XZ 102f62d0 f   Target.obj
 0002:0012c310       ?Event_Activate@idTarget_GiveSecurity@@AAEXPAVidEntity@@@Z 102f6310 f   Target.obj
 0002:0012c3a0       ?CreateInstance@idTarget_RemoveWeapons@@SAPAVidClass@@XZ 102f63a0 f   Target.obj
 0002:0012c4d0       ??0idTarget_RemoveWeapons@@QAE@XZ 102f64d0 f i Target.obj
 0002:0012c530       ??_EidTarget_RemoveWeapons@@UAEPAXI@Z 102f6530 f i Target.obj
 0002:0012c530       ??_GidTarget_RemoveWeapons@@UAEPAXI@Z 102f6530 f i Target.obj
 0002:0012c5a0       ??1idTarget_RemoveWeapons@@UAE@XZ 102f65a0 f i Target.obj
 0002:0012c5f0       ?GetType@idTarget_RemoveWeapons@@UBEPAVidTypeInfo@@XZ 102f65f0 f   Target.obj
 0002:0012c630       ?Event_Activate@idTarget_RemoveWeapons@@AAEXPAVidEntity@@@Z 102f6630 f   Target.obj
 0002:0012c740       ?CreateInstance@idTarget_LevelTrigger@@SAPAVidClass@@XZ 102f6740 f   Target.obj
 0002:0012c870       ??0idTarget_LevelTrigger@@QAE@XZ 102f6870 f i Target.obj
 0002:0012c8d0       ??_GidTarget_LevelTrigger@@UAEPAXI@Z 102f68d0 f i Target.obj
 0002:0012c8d0       ??_EidTarget_LevelTrigger@@UAEPAXI@Z 102f68d0 f i Target.obj
 0002:0012c940       ??1idTarget_LevelTrigger@@UAE@XZ 102f6940 f i Target.obj
 0002:0012c990       ?GetType@idTarget_LevelTrigger@@UBEPAVidTypeInfo@@XZ 102f6990 f   Target.obj
 0002:0012c9d0       ?Event_Activate@idTarget_LevelTrigger@@AAEXPAVidEntity@@@Z 102f69d0 f   Target.obj
 0002:0012caa0       ?CreateInstance@idTarget_EnableStamina@@SAPAVidClass@@XZ 102f6aa0 f   Target.obj
 0002:0012cbd0       ??0idTarget_EnableStamina@@QAE@XZ 102f6bd0 f i Target.obj
 0002:0012cc30       ??_EidTarget_EnableStamina@@UAEPAXI@Z 102f6c30 f i Target.obj
 0002:0012cc30       ??_GidTarget_EnableStamina@@UAEPAXI@Z 102f6c30 f i Target.obj
 0002:0012cca0       ??1idTarget_EnableStamina@@UAE@XZ 102f6ca0 f i Target.obj
 0002:0012ccf0       ?GetType@idTarget_EnableStamina@@UBEPAVidTypeInfo@@XZ 102f6cf0 f   Target.obj
 0002:0012cd30       ?Event_Activate@idTarget_EnableStamina@@AAEXPAVidEntity@@@Z 102f6d30 f   Target.obj
 0002:0012ce20       ?CreateInstance@idTarget_FadeSoundClass@@SAPAVidClass@@XZ 102f6e20 f   Target.obj
 0002:0012cf50       ??0idTarget_FadeSoundClass@@QAE@XZ 102f6f50 f i Target.obj
 0002:0012cfb0       ??_EidTarget_FadeSoundClass@@UAEPAXI@Z 102f6fb0 f i Target.obj
 0002:0012cfb0       ??_GidTarget_FadeSoundClass@@UAEPAXI@Z 102f6fb0 f i Target.obj
 0002:0012d020       ??1idTarget_FadeSoundClass@@UAE@XZ 102f7020 f i Target.obj
 0002:0012d070       ?GetType@idTarget_FadeSoundClass@@UBEPAVidTypeInfo@@XZ 102f7070 f   Target.obj
 0002:0012d0b0       ?Event_Activate@idTarget_FadeSoundClass@@AAEXPAVidEntity@@@Z 102f70b0 f   Target.obj
 0002:0012d230       ?Event_RestoreVolume@idTarget_FadeSoundClass@@AAEXXZ 102f7230 f   Target.obj
 0002:0012d300       ?SetStartTime@?$idInterpolate@H@@QAEXM@Z 102f7300 f i Target.obj
 0002:0012d350       ?SetDuration@?$idInterpolate@H@@QAEXM@Z 102f7350 f i Target.obj
 0002:0012d3a0       ?SetStartValue@?$idInterpolate@H@@QAEXABH@Z 102f73a0 f i Target.obj
 0002:0012d3f0       ?SetEndValue@?$idInterpolate@H@@QAEXABH@Z 102f73f0 f i Target.obj
 0002:0012d440       ?IsDone@?$idInterpolate@H@@QBE_NM@Z 102f7440 f i Target.obj
 0002:0012d4c0       ?GetStartTime@?$idInterpolate@H@@QBEMXZ 102f74c0 f i Target.obj
 0002:0012d500       ?GetDuration@?$idInterpolate@H@@QBEMXZ 102f7500 f i Target.obj
 0002:0012d540       ?GetStartValue@?$idInterpolate@H@@QBEABHXZ 102f7540 f i Target.obj
 0002:0012d580       ?GetEndValue@?$idInterpolate@H@@QBEABHXZ 102f7580 f i Target.obj
 0002:0012d5c0       ?Append@?$idList@H@@QAEHABH@Z 102f75c0 f i Target.obj
 0002:0012d6b0       ??0?$idInterpolate@H@@QAE@XZ 102f76b0 f i Target.obj
 0002:0012d760       ?Init@?$idInterpolate@H@@QAEXMMABH0@Z 102f7760 f i Target.obj
 0002:0012d7f0       ?GetCurrentValue@?$idInterpolate@H@@QBEHM@Z 102f77f0 f i Target.obj
 0002:0012d8f0       ?CreateInstance@idTrigger@@SAPAVidClass@@XZ 102f78f0 f   Trigger.obj
 0002:0012da20       ?GetType@idTrigger@@UBEPAVidTypeInfo@@XZ 102f7a20 f   Trigger.obj
 0002:0012da60       ?DrawDebugInfo@idTrigger@@SAXXZ 102f7a60 f   Trigger.obj
 0002:0012e410       ?Enable@idTrigger@@UAEXXZ  102f8410 f   Trigger.obj
 0002:0012e4d0       ?Disable@idTrigger@@UAEXXZ 102f84d0 f   Trigger.obj
 0002:0012e590       ?CallScript@idTrigger@@IBEXXZ 102f8590 f   Trigger.obj
 0002:0012e6a0       ?GetScriptFunction@idTrigger@@QBEPBVfunction_t@@XZ 102f86a0 f   Trigger.obj
 0002:0012e6e0       ?Save@idTrigger@@QBEXPAVidSaveGame@@@Z 102f86e0 f   Trigger.obj
 0002:0012e770       ?Restore@idTrigger@@QAEXPAVidRestoreGame@@@Z 102f8770 f   Trigger.obj
 0002:0012e930       ?Event_Enable@idTrigger@@IAEXXZ 102f8930 f   Trigger.obj
 0002:0012e9a0       ?Event_Disable@idTrigger@@IAEXXZ 102f89a0 f   Trigger.obj
 0002:0012ea10       ??0idTrigger@@QAE@XZ       102f8a10 f   Trigger.obj
 0002:0012ea80       ??_GidTrigger@@UAEPAXI@Z   102f8a80 f i Trigger.obj
 0002:0012ea80       ??_EidTrigger@@UAEPAXI@Z   102f8a80 f i Trigger.obj
 0002:0012eaf0       ??1idTrigger@@UAE@XZ       102f8af0 f i Trigger.obj
 0002:0012eb40       ?Spawn@idTrigger@@QAEXXZ   102f8b40 f   Trigger.obj
 0002:0012ed50       ?CreateInstance@idTrigger_Multi@@SAPAVidClass@@XZ 102f8d50 f   Trigger.obj
 0002:0012ee80       ?GetType@idTrigger_Multi@@UBEPAVidTypeInfo@@XZ 102f8e80 f   Trigger.obj
 0002:0012eec0       ??0idTrigger_Multi@@QAE@XZ 102f8ec0 f   Trigger.obj
 0002:0012f000       ??_GidTrigger_Multi@@UAEPAXI@Z 102f9000 f i Trigger.obj
 0002:0012f000       ??_EidTrigger_Multi@@UAEPAXI@Z 102f9000 f i Trigger.obj
 0002:0012f070       ??1idTrigger_Multi@@UAE@XZ 102f9070 f i Trigger.obj
 0002:0012f110       ?Save@idTrigger_Multi@@QBEXPAVidSaveGame@@@Z 102f9110 f   Trigger.obj
 0002:0012f260       ?Restore@idTrigger_Multi@@QAEXPAVidRestoreGame@@@Z 102f9260 f   Trigger.obj
 0002:0012f3a0       ?Spawn@idTrigger_Multi@@QAEXXZ 102f93a0 f   Trigger.obj
 0002:0012f870       ?CheckFacing@idTrigger_Multi@@AAE_NPAVidEntity@@@Z 102f9870 f   Trigger.obj
 0002:0012f9c0       ?TriggerAction@idTrigger_Multi@@AAEXPAVidEntity@@@Z 102f99c0 f   Trigger.obj
 0002:0012fae0       ?Event_TriggerAction@idTrigger_Multi@@AAEXPAVidEntity@@@Z 102f9ae0 f   Trigger.obj
 0002:0012fb40       ?Event_Trigger@idTrigger_Multi@@AAEXPAVidEntity@@@Z 102f9b40 f   Trigger.obj
 0002:0012fce0       ?Event_Touch@idTrigger_Multi@@AAEXPAVidEntity@@PAUtrace_s@@@Z 102f9ce0 f   Trigger.obj
 0002:0012ff10       ?CreateInstance@idTrigger_EntityName@@SAPAVidClass@@XZ 102f9f10 f   Trigger.obj
 0002:00130040       ?GetType@idTrigger_EntityName@@UBEPAVidTypeInfo@@XZ 102fa040 f   Trigger.obj
 0002:00130080       ??0idTrigger_EntityName@@QAE@XZ 102fa080 f   Trigger.obj
 0002:00130190       ??_EidTrigger_EntityName@@UAEPAXI@Z 102fa190 f i Trigger.obj
 0002:00130190       ??_GidTrigger_EntityName@@UAEPAXI@Z 102fa190 f i Trigger.obj
 0002:00130200       ??1idTrigger_EntityName@@UAE@XZ 102fa200 f i Trigger.obj
 0002:001302a0       ?Save@idTrigger_EntityName@@QBEXPAVidSaveGame@@@Z 102fa2a0 f   Trigger.obj
 0002:00130390       ?Restore@idTrigger_EntityName@@QAEXPAVidRestoreGame@@@Z 102fa390 f   Trigger.obj
 0002:00130470       ?Spawn@idTrigger_EntityName@@QAEXXZ 102fa470 f   Trigger.obj
 0002:00130870       ?TriggerAction@idTrigger_EntityName@@AAEXPAVidEntity@@@Z 102fa870 f   Trigger.obj
 0002:00130970       ?Event_TriggerAction@idTrigger_EntityName@@AAEXPAVidEntity@@@Z 102fa970 f   Trigger.obj
 0002:001309d0       ?Event_Trigger@idTrigger_EntityName@@AAEXPAVidEntity@@@Z 102fa9d0 f   Trigger.obj
 0002:00130b50       ??9@YA_NABVidStr@@0@Z      102fab50 f i Trigger.obj
 0002:00130bb0       ?Event_Touch@idTrigger_EntityName@@AAEXPAVidEntity@@PAUtrace_s@@@Z 102fabb0 f   Trigger.obj
 0002:00130d20       ?CreateInstance@idTrigger_Timer@@SAPAVidClass@@XZ 102fad20 f   Trigger.obj
 0002:00130e50       ?GetType@idTrigger_Timer@@UBEPAVidTypeInfo@@XZ 102fae50 f   Trigger.obj
 0002:00130e90       ??0idTrigger_Timer@@QAE@XZ 102fae90 f   Trigger.obj
 0002:00130f90       ??_GidTrigger_Timer@@UAEPAXI@Z 102faf90 f i Trigger.obj
 0002:00130f90       ??_EidTrigger_Timer@@UAEPAXI@Z 102faf90 f i Trigger.obj
 0002:00131000       ??1idTrigger_Timer@@UAE@XZ 102fb000 f i Trigger.obj
 0002:001310b0       ?Save@idTrigger_Timer@@QBEXPAVidSaveGame@@@Z 102fb0b0 f   Trigger.obj
 0002:00131190       ?Restore@idTrigger_Timer@@QAEXPAVidRestoreGame@@@Z 102fb190 f   Trigger.obj
 0002:00131260       ?Spawn@idTrigger_Timer@@QAEXXZ 102fb260 f   Trigger.obj
 0002:00131490       ?Enable@idTrigger_Timer@@UAEXXZ 102fb490 f   Trigger.obj
 0002:00131510       ?Disable@idTrigger_Timer@@UAEXXZ 102fb510 f   Trigger.obj
 0002:00131590       ?Event_Timer@idTrigger_Timer@@AAEXXZ 102fb590 f   Trigger.obj
 0002:00131640       ?Event_Use@idTrigger_Timer@@AAEXPAVidEntity@@@Z 102fb640 f   Trigger.obj
 0002:00131760       ?CreateInstance@idTrigger_Count@@SAPAVidClass@@XZ 102fb760 f   Trigger.obj
 0002:00131890       ?GetType@idTrigger_Count@@UBEPAVidTypeInfo@@XZ 102fb890 f   Trigger.obj
 0002:001318d0       ??0idTrigger_Count@@QAE@XZ 102fb8d0 f   Trigger.obj
 0002:00131960       ??_GidTrigger_Count@@UAEPAXI@Z 102fb960 f i Trigger.obj
 0002:00131960       ??_EidTrigger_Count@@UAEPAXI@Z 102fb960 f i Trigger.obj
 0002:001319d0       ??1idTrigger_Count@@UAE@XZ 102fb9d0 f i Trigger.obj
 0002:00131a20       ?Save@idTrigger_Count@@QBEXPAVidSaveGame@@@Z 102fba20 f   Trigger.obj
 0002:00131ab0       ?Restore@idTrigger_Count@@QAEXPAVidRestoreGame@@@Z 102fbab0 f   Trigger.obj
 0002:00131b40       ?Spawn@idTrigger_Count@@QAEXXZ 102fbb40 f   Trigger.obj
 0002:00131be0       ?Event_Trigger@idTrigger_Count@@AAEXPAVidEntity@@@Z 102fbbe0 f   Trigger.obj
 0002:00131cf0       ?Event_TriggerAction@idTrigger_Count@@AAEXPAVidEntity@@@Z 102fbcf0 f   Trigger.obj
 0002:00131d80       ?CreateInstance@idTrigger_Hurt@@SAPAVidClass@@XZ 102fbd80 f   Trigger.obj
 0002:00131eb0       ?GetType@idTrigger_Hurt@@UBEPAVidTypeInfo@@XZ 102fbeb0 f   Trigger.obj
 0002:00131ef0       ??0idTrigger_Hurt@@QAE@XZ  102fbef0 f   Trigger.obj
 0002:00131f80       ??_GidTrigger_Hurt@@UAEPAXI@Z 102fbf80 f i Trigger.obj
 0002:00131f80       ??_EidTrigger_Hurt@@UAEPAXI@Z 102fbf80 f i Trigger.obj
 0002:00131ff0       ??1idTrigger_Hurt@@UAE@XZ  102fbff0 f i Trigger.obj
 0002:00132040       ?Save@idTrigger_Hurt@@QBEXPAVidSaveGame@@@Z 102fc040 f   Trigger.obj
 0002:001320d0       ?Restore@idTrigger_Hurt@@QAEXPAVidRestoreGame@@@Z 102fc0d0 f   Trigger.obj
 0002:00132160       ?Spawn@idTrigger_Hurt@@QAEXXZ 102fc160 f   Trigger.obj
 0002:00132220       ?Event_Touch@idTrigger_Hurt@@AAEXPAVidEntity@@PAUtrace_s@@@Z 102fc220 f   Trigger.obj
 0002:00132350       ?Event_Toggle@idTrigger_Hurt@@AAEXPAVidEntity@@@Z 102fc350 f   Trigger.obj
 0002:001323b0       ?CreateInstance@idTrigger_Fade@@SAPAVidClass@@XZ 102fc3b0 f   Trigger.obj
 0002:001324e0       ??0idTrigger_Fade@@QAE@XZ  102fc4e0 f i Trigger.obj
 0002:00132540       ??_GidTrigger_Fade@@UAEPAXI@Z 102fc540 f i Trigger.obj
 0002:00132540       ??_EidTrigger_Fade@@UAEPAXI@Z 102fc540 f i Trigger.obj
 0002:001325b0       ??1idTrigger_Fade@@UAE@XZ  102fc5b0 f i Trigger.obj
 0002:00132600       ?GetType@idTrigger_Fade@@UBEPAVidTypeInfo@@XZ 102fc600 f   Trigger.obj
 0002:00132640       ?Event_Trigger@idTrigger_Fade@@AAEXPAVidEntity@@@Z 102fc640 f   Trigger.obj
 0002:001327c0       ?GetVec4@idDict@@QBE?AVidVec4@@PBD0@Z 102fc7c0 f i Trigger.obj
 0002:00132890       ?CreateInstance@idTrigger_Touch@@SAPAVidClass@@XZ 102fc890 f   Trigger.obj
 0002:001329c0       ?GetType@idTrigger_Touch@@UBEPAVidTypeInfo@@XZ 102fc9c0 f   Trigger.obj
 0002:00132a00       ??0idTrigger_Touch@@QAE@XZ 102fca00 f   Trigger.obj
 0002:00132a70       ??_GidTrigger_Touch@@UAEPAXI@Z 102fca70 f i Trigger.obj
 0002:00132a70       ??_EidTrigger_Touch@@UAEPAXI@Z 102fca70 f i Trigger.obj
 0002:00132ae0       ??1idTrigger_Touch@@UAE@XZ 102fcae0 f i Trigger.obj
 0002:00132b30       ?Spawn@idTrigger_Touch@@QAEXXZ 102fcb30 f   Trigger.obj
 0002:00132cc0       ?Save@idTrigger_Touch@@QAEXPAVidSaveGame@@@Z 102fccc0 f   Trigger.obj
 0002:00132d20       ?Restore@idTrigger_Touch@@QAEXPAVidRestoreGame@@@Z 102fcd20 f   Trigger.obj
 0002:00132d80       ?TouchEntities@idTrigger_Touch@@QAEXXZ 102fcd80 f   Trigger.obj
 0002:00133080       ?Think@idTrigger_Touch@@UAEXXZ 102fd080 f   Trigger.obj
 0002:001330f0       ?Event_Trigger@idTrigger_Touch@@AAEXPAVidEntity@@@Z 102fd0f0 f   Trigger.obj
 0002:00133170       ?Enable@idTrigger_Touch@@UAEXXZ 102fd170 f   Trigger.obj
 0002:001331d0       ?Disable@idTrigger_Touch@@UAEXXZ 102fd1d0 f   Trigger.obj
 0002:00133230       ?CreateInstance@idWeapon@@SAPAVidClass@@XZ 102fd230 f   Weapon.obj
 0002:00133360       ?GetType@idWeapon@@UBEPAVidTypeInfo@@XZ 102fd360 f   Weapon.obj
 0002:001333a0       ??0idWeapon@@QAE@XZ        102fd3a0 f   Weapon.obj
 0002:00133840       ??_EidWeapon@@UAEPAXI@Z    102fd840 f i Weapon.obj
 0002:00133840       ??_GidWeapon@@UAEPAXI@Z    102fd840 f i Weapon.obj
 0002:001338b0       ??1idWeapon@@UAE@XZ        102fd8b0 f   Weapon.obj
 0002:00133a70       ?Spawn@idWeapon@@QAEXXZ    102fda70 f   Weapon.obj
 0002:00133bf0       ?SetOwner@idWeapon@@QAEXPAVidPlayer@@@Z 102fdbf0 f   Weapon.obj
 0002:00133d10       ?ShouldConstructScriptObjectAtSpawn@idWeapon@@UBE_NXZ 102fdd10 f   Weapon.obj
 0002:00133d50       ?CacheWeapon@idWeapon@@SAXPBD@Z 102fdd50 f   Weapon.obj
 0002:00133f50       ?Save@idWeapon@@QBEXPAVidSaveGame@@@Z 102fdf50 f   Weapon.obj
 0002:00134740       ?Restore@idWeapon@@QAEXPAVidRestoreGame@@@Z 102fe740 f   Weapon.obj
 0002:001351a0       ?Clear@idWeapon@@QAEXXZ    102ff1a0 f   Weapon.obj
 0002:00135b00       ?InitWorldModel@idWeapon@@AAEXPBVidDeclEntityDef@@@Z 102ffb00 f   Weapon.obj
 0002:00135f20       ?GetWeaponDef@idWeapon@@QAEXPBDH@Z 102fff20 f   Weapon.obj
 0002:001374a0       ?Icon@idWeapon@@QBEPBDXZ   103014a0 f   Weapon.obj
 0002:00137500       ?UpdateGUI@idWeapon@@QAEXXZ 10301500 f   Weapon.obj
 0002:001378e0       ?UpdateFlashPosition@idWeapon@@AAEXXZ 103018e0 f   Weapon.obj
 0002:00137b00       ?MuzzleFlashLight@idWeapon@@AAEXXZ 10301b00 f   Weapon.obj
 0002:00137d30       ?UpdateSkin@idWeapon@@QAE_NXZ 10301d30 f   Weapon.obj
 0002:00137e20       ?SetModel@idWeapon@@UAEXPBD@Z 10301e20 f   Weapon.obj
 0002:00137fc0       ?GetGlobalJointTransform@idWeapon@@QAE_N_NW4jointHandle_t@@AAVidVec3@@AAVidMat3@@@Z 10301fc0 f   Weapon.obj
 0002:001382c0       ?SetPushVelocity@idWeapon@@QAEXABVidVec3@@@Z 103022c0 f   Weapon.obj
 0002:00138320       ?Think@idWeapon@@UAEXXZ    10302320 f   Weapon.obj
 0002:00138360       ?Raise@idWeapon@@QAEXXZ    10302360 f   Weapon.obj
 0002:001383e0       ?PutAway@idWeapon@@QAEXXZ  103023e0 f   Weapon.obj
 0002:00138470       ?Reload@idWeapon@@QAEXXZ   10302470 f   Weapon.obj
 0002:001384f0       ?LowerWeapon@idWeapon@@QAEXXZ 103024f0 f   Weapon.obj
 0002:001385e0       ?RaiseWeapon@idWeapon@@QAEXXZ 103025e0 f   Weapon.obj
 0002:001386f0       ?HideWeapon@idWeapon@@QAEXXZ 103026f0 f   Weapon.obj
 0002:001387b0       ?ShowWeapon@idWeapon@@QAEXXZ 103027b0 f   Weapon.obj
 0002:00138880       ?HideWorldModel@idWeapon@@QAEXXZ 10302880 f   Weapon.obj
 0002:00138920       ?ShowWorldModel@idWeapon@@QAEXXZ 10302920 f   Weapon.obj
 0002:001389c0       ?OwnerDied@idWeapon@@QAEXXZ 103029c0 f   Weapon.obj
 0002:00138ac0       ?BeginAttack@idWeapon@@QAEXXZ 10302ac0 f   Weapon.obj
 0002:00138ba0       ?EndAttack@idWeapon@@QAEXXZ 10302ba0 f   Weapon.obj
 0002:00138c70       ?IsReady@idWeapon@@QBE_NXZ 10302c70 f   Weapon.obj
 0002:00138d30       ?IsReloading@idWeapon@@QBE_NXZ 10302d30 f   Weapon.obj
 0002:00138d80       ?IsHolstered@idWeapon@@QBE_NXZ 10302d80 f   Weapon.obj
 0002:00138dd0       ?ShowCrosshair@idWeapon@@QBE_NXZ 10302dd0 f   Weapon.obj
 0002:00139050       ?CanDrop@idWeapon@@QBE_NXZ 10303050 f   Weapon.obj
 0002:00139100       ?WeaponStolen@idWeapon@@QAEXXZ 10303100 f   Weapon.obj
 0002:001391f0       ?DropItem@idWeapon@@QAEPAVidEntity@@ABVidVec3@@HH_N@Z 103031f0 f   Weapon.obj
 0002:00139390       ?SetState@idWeapon@@QAEXPBDH@Z 10303390 f   Weapon.obj
 0002:00139510       ?UpdateNozzleFx@idWeapon@@AAEXXZ 10303510 f   Weapon.obj
 0002:00139820       ?BloodSplat@idWeapon@@QAE_NM@Z 10303820 f   Weapon.obj
 0002:00139e10       ?MuzzleRise@idWeapon@@AAEXAAVidVec3@@AAVidMat3@@@Z 10303e10 f   Weapon.obj
 0002:00139ff0       ?ConstructScriptObject@idWeapon@@UAEPAVidThread@@XZ 10303ff0 f   Weapon.obj
 0002:0013a0e0       ?DeconstructScriptObject@idWeapon@@UAEXXZ 103040e0 f   Weapon.obj
 0002:0013a1d0       ?UpdateScript@idWeapon@@QAEXXZ 103041d0 f   Weapon.obj
 0002:0013a350       ?AlertMonsters@idWeapon@@AAEXXZ 10304350 f   Weapon.obj
 0002:0013a860       ?Sin16@idMath@@SAMM@Z      10304860 f i Weapon.obj
 0002:0013a9c0       ?PresentWeapon@idWeapon@@QAEX_N@Z 103049c0 f   Weapon.obj
 0002:0013b380       ?EnterCinematic@idWeapon@@QAEXXZ 10305380 f   Weapon.obj
 0002:0013b540       ?ExitCinematic@idWeapon@@QAEXXZ 10305540 f   Weapon.obj
 0002:0013b5e0       ?NetCatchup@idWeapon@@QAEXXZ 103055e0 f   Weapon.obj
 0002:0013b660       ?GetZoomFov@idWeapon@@QAEHXZ 10305660 f   Weapon.obj
 0002:0013b6a0       ?GetWeaponAngleOffsets@idWeapon@@QAEXPAHPAM1@Z 103056a0 f   Weapon.obj
 0002:0013b710       ?GetWeaponTimeOffsets@idWeapon@@QAEXPAM0@Z 10305710 f   Weapon.obj
 0002:0013b770       ?GetAmmoNumForName@idWeapon@@SAHPBD@Z 10305770 f   Weapon.obj
 0002:0013b8d0       ?GetAmmoNameForNum@idWeapon@@SAPBDH@Z 103058d0 f   Weapon.obj
 0002:0013ba30       ?GetAmmoPickupNameForNum@idWeapon@@SAPBDH@Z 10305a30 f   Weapon.obj
 0002:0013bb60       ?AmmoAvailable@idWeapon@@QBEHXZ 10305b60 f   Weapon.obj
 0002:0013bbf0       ?AmmoInClip@idWeapon@@QBEHXZ 10305bf0 f   Weapon.obj
 0002:0013bc30       ?ResetAmmoClip@idWeapon@@QAEXXZ 10305c30 f   Weapon.obj
 0002:0013bc80       ?GetAmmoType@idWeapon@@QBEHXZ 10305c80 f   Weapon.obj
 0002:0013bcc0       ?ClipSize@idWeapon@@QBEHXZ 10305cc0 f   Weapon.obj
 0002:0013bd00       ?LowAmmo@idWeapon@@QBEHXZ  10305d00 f   Weapon.obj
 0002:0013bd40       ?AmmoRequired@idWeapon@@QBEHXZ 10305d40 f   Weapon.obj
 0002:0013bd80       ?WriteToSnapshot@idWeapon@@UBEXAAVidBitMsgDelta@@@Z 10305d80 f   Weapon.obj
 0002:0013be40       ?ReadFromSnapshot@idWeapon@@UAEXABVidBitMsgDelta@@@Z 10305e40 f   Weapon.obj
 0002:0013bfd0       ?ClientReceiveEvent@idWeapon@@UAE_NHHABVidBitMsg@@@Z 10305fd0 f   Weapon.obj
 0002:0013c200       ?Event_Clear@idWeapon@@AAEXXZ 10306200 f   Weapon.obj
 0002:0013c250       ?Event_GetOwner@idWeapon@@AAEXXZ 10306250 f   Weapon.obj
 0002:0013c2b0       ?Event_WeaponState@idWeapon@@AAEXPBDH@Z 103062b0 f   Weapon.obj
 0002:0013c3f0       ?Event_WeaponReady@idWeapon@@AAEXXZ 103063f0 f   Weapon.obj
 0002:0013c4b0       ?Event_WeaponOutOfAmmo@idWeapon@@AAEXXZ 103064b0 f   Weapon.obj
 0002:0013c540       ?Event_WeaponReloading@idWeapon@@AAEXXZ 10306540 f   Weapon.obj
 0002:0013c590       ?Event_WeaponHolstered@idWeapon@@AAEXXZ 10306590 f   Weapon.obj
 0002:0013c620       ?Event_WeaponRising@idWeapon@@AAEXXZ 10306620 f   Weapon.obj
 0002:0013c6c0       ?Event_WeaponLowering@idWeapon@@AAEXXZ 103066c0 f   Weapon.obj
 0002:0013c760       ?Event_UseAmmo@idWeapon@@AAEXH@Z 10306760 f   Weapon.obj
 0002:0013c8c0       ?Event_AddToClip@idWeapon@@AAEXH@Z 103068c0 f   Weapon.obj
 0002:0013c9c0       ?Event_AmmoInClip@idWeapon@@AAEXXZ 103069c0 f   Weapon.obj
 0002:0013ca30       ?Event_AmmoAvailable@idWeapon@@AAEXXZ 10306a30 f   Weapon.obj
 0002:0013cac0       ?Event_TotalAmmoCount@idWeapon@@AAEXXZ 10306ac0 f   Weapon.obj
 0002:0013cb50       ?Event_ClipSize@idWeapon@@AAEXXZ 10306b50 f   Weapon.obj
 0002:0013cbb0       ?Event_AutoReload@idWeapon@@AAEXXZ 10306bb0 f   Weapon.obj
 0002:0013cca0       ?Event_NetReload@idWeapon@@AAEXXZ 10306ca0 f   Weapon.obj
 0002:0013cd40       ?Event_NetEndReload@idWeapon@@AAEXXZ 10306d40 f   Weapon.obj
 0002:0013cde0       ?Event_PlayAnim@idWeapon@@AAEXHPBD@Z 10306de0 f   Weapon.obj
 0002:0013d070       ?GetInfluenceLevel@idPlayer@@QAEHXZ 10307070 f i Weapon.obj
 0002:0013d0b0       ?Event_PlayCycle@idWeapon@@AAEXHPBD@Z 103070b0 f   Weapon.obj
 0002:0013d340       ?Event_AnimDone@idWeapon@@AAEXHH@Z 10307340 f   Weapon.obj
 0002:0013d3d0       ?Event_SetBlendFrames@idWeapon@@AAEXHH@Z 103073d0 f   Weapon.obj
 0002:0013d420       ?Event_GetBlendFrames@idWeapon@@AAEXH@Z 10307420 f   Weapon.obj
 0002:0013d480       ?Event_Next@idWeapon@@AAEXXZ 10307480 f   Weapon.obj
 0002:0013d4e0       ?Event_SetSkin@idWeapon@@AAEXPBD@Z 103074e0 f   Weapon.obj
 0002:0013d700       ?Event_Flashlight@idWeapon@@AAEXH@Z 10307700 f   Weapon.obj
 0002:0013d790       ?Event_GetLightParm@idWeapon@@AAEXH@Z 10307790 f   Weapon.obj
 0002:0013d820       ?Event_SetLightParm@idWeapon@@AAEXHM@Z 10307820 f   Weapon.obj
 0002:0013d8d0       ?Event_SetLightParms@idWeapon@@AAEXMMMM@Z 103078d0 f   Weapon.obj
 0002:0013d9a0       ?Event_CreateProjectile@idWeapon@@AAEXXZ 103079a0 f   Weapon.obj
 0002:0013db00       ?Event_LaunchProjectiles@idWeapon@@AAEXHMMMM@Z 10307b00 f   Weapon.obj
 0002:0013e9a0       ?Sin@idMath@@SAMM@Z        103089a0 f i Weapon.obj
 0002:0013e9f0       ?Cos@idMath@@SAMM@Z        103089f0 f i Weapon.obj
 0002:0013ea40       ??GidBounds@@QBE?AV0@ABV0@@Z 10308a40 f i Weapon.obj
 0002:0013ed60       ?Rotate@idBounds@@QBE?AV1@ABVidMat3@@@Z 10308d60 f i Weapon.obj
 0002:0013ee40       ?Event_LaunchProjectilesEllipse@idWeapon@@AAEXHMMMM@Z 10308e40 f   Weapon.obj
 0002:0013f950       ?Event_LaunchPowerup@idWeapon@@AAEXPBDMH@Z 10309950 f   Weapon.obj
 0002:0013fb20       ?Event_StartWeaponSmoke@idWeapon@@AAEXXZ 10309b20 f   Weapon.obj
 0002:0013fb70       ?Event_StopWeaponSmoke@idWeapon@@AAEXXZ 10309b70 f   Weapon.obj
 0002:0013fbc0       ?Event_StartWeaponParticle@idWeapon@@AAEXPBD@Z 10309bc0 f   Weapon.obj
 0002:0013fcf0       ?Event_StopWeaponParticle@idWeapon@@AAEXPBD@Z 10309cf0 f   Weapon.obj
 0002:0013fe20       ?Event_StartWeaponLight@idWeapon@@AAEXPBD@Z 10309e20 f   Weapon.obj
 0002:0013fee0       ?Event_StopWeaponLight@idWeapon@@AAEXPBD@Z 10309ee0 f   Weapon.obj
 0002:0013ffe0       ?Event_Melee@idWeapon@@AAEXXZ 10309fe0 f   Weapon.obj
 0002:00140a60       ??GidMat3@@QBE?AV0@XZ      1030aa60 f i Weapon.obj
 0002:00140b80       ?Event_GetWorldModel@idWeapon@@AAEXXZ 1030ab80 f   Weapon.obj
 0002:00140bf0       ?Event_AllowDrop@idWeapon@@AAEXH@Z 1030abf0 f   Weapon.obj
 0002:00140c50       ?Event_EjectBrass@idWeapon@@AAEXXZ 1030ac50 f   Weapon.obj
 0002:00141070       ?Event_IsInvisible@idWeapon@@AAEXXZ 1030b070 f   Weapon.obj
 0002:00141110       ?ClientPredictionThink@idWeapon@@UAEXXZ 1030b110 f   Weapon.obj
 0002:00141160       ?GetSpawnId@?$idEntityPtr@VidAnimatedEntity@@@@QBEHXZ 1030b160 f i Weapon.obj
 0002:001411a0       ?IsLinked@?$idScriptVariable@H$0O@H@@QBE_NXZ 1030b1a0 f i Weapon.obj
 0002:001411f0       ?Unlink@?$idScriptVariable@H$0O@H@@QAEXXZ 1030b1f0 f i Weapon.obj
 0002:00141230       ??0?$idEntityPtr@VidAnimatedEntity@@@@QAE@XZ 1030b230 f i Weapon.obj
 0002:00141280       ?Save@?$idEntityPtr@VidAnimatedEntity@@@@QBEXPAVidSaveGame@@@Z 1030b280 f i Weapon.obj
 0002:001412e0       ?Restore@?$idEntityPtr@VidAnimatedEntity@@@@QAEXPAVidRestoreGame@@@Z 1030b2e0 f i Weapon.obj
 0002:00141340       ??4?$idEntityPtr@VidAnimatedEntity@@@@QAEAAV0@PAVidAnimatedEntity@@@Z 1030b340 f i Weapon.obj
 0002:001413c0       ?SetSpawnId@?$idEntityPtr@VidAnimatedEntity@@@@QAE_NH@Z 1030b3c0 f i Weapon.obj
 0002:00141440       ??0?$idHashTable@UWeaponParticle_t@@@@QAE@H@Z 1030b440 f i Weapon.obj
 0002:00141570       ?IsPowerOfTwo@idMath@@SA_NH@Z 1030b570 f i Weapon.obj
 0002:001415e0       ??1?$idHashTable@UWeaponParticle_t@@@@QAE@XZ 1030b5e0 f i Weapon.obj
 0002:00141650       ?Get@?$idHashTable@UWeaponParticle_t@@@@QBE_NPBDPAPAUWeaponParticle_t@@@Z 1030b650 f i Weapon.obj
 0002:00141730       ??0?$idHashTable@UWeaponLight_t@@@@QAE@H@Z 1030b730 f i Weapon.obj
 0002:00141860       ??1?$idHashTable@UWeaponLight_t@@@@QAE@XZ 1030b860 f i Weapon.obj
 0002:001418d0       ?Get@?$idHashTable@UWeaponLight_t@@@@QBE_NPBDPAPAUWeaponLight_t@@@Z 1030b8d0 f i Weapon.obj
 0002:001419b0       ?Clear@?$idHashTable@UWeaponParticle_t@@@@QAEXXZ 1030b9b0 f i Weapon.obj
 0002:00141ac0       ?GetHash@?$idHashTable@UWeaponParticle_t@@@@ABEHPBD@Z 1030bac0 f i Weapon.obj
 0002:00141b20       ?Clear@?$idHashTable@UWeaponLight_t@@@@QAEXXZ 1030bb20 f i Weapon.obj
 0002:00141c30       ?GetHash@?$idHashTable@UWeaponLight_t@@@@ABEHPBD@Z 1030bc30 f i Weapon.obj
 0002:00141c90       ??_Ghashnode_s@?$idHashTable@UWeaponParticle_t@@@@QAEPAXI@Z 1030bc90 f i Weapon.obj
 0002:00141d00       ??_Ghashnode_s@?$idHashTable@UWeaponLight_t@@@@QAEPAXI@Z 1030bd00 f i Weapon.obj
 0002:00141d70       ??1hashnode_s@?$idHashTable@UWeaponParticle_t@@@@QAE@XZ 1030bd70 f i Weapon.obj
 0002:00141dc0       ??1hashnode_s@?$idHashTable@UWeaponLight_t@@@@QAE@XZ 1030bdc0 f i Weapon.obj
 0002:00141e10       ?CreateInstance@idWorldspawn@@SAPAVidClass@@XZ 1030be10 f   WorldSpawn.obj
 0002:00141f40       ??0idWorldspawn@@QAE@XZ    1030bf40 f i WorldSpawn.obj
 0002:00141fa0       ??_GidWorldspawn@@UAEPAXI@Z 1030bfa0 f i WorldSpawn.obj
 0002:00141fa0       ??_EidWorldspawn@@UAEPAXI@Z 1030bfa0 f i WorldSpawn.obj
 0002:00142010       ?GetType@idWorldspawn@@UBEPAVidTypeInfo@@XZ 1030c010 f   WorldSpawn.obj
 0002:00142050       ?Spawn@idWorldspawn@@QAEXXZ 1030c050 f   WorldSpawn.obj
 0002:00142430       ?Save@idWorldspawn@@QAEXPAVidRestoreGame@@@Z 1030c430 f   WorldSpawn.obj
 0002:00142470       ?Restore@idWorldspawn@@QAEXPAVidRestoreGame@@@Z 1030c470 f   WorldSpawn.obj
 0002:00142570       ??1idWorldspawn@@UAE@XZ    1030c570 f   WorldSpawn.obj
 0002:001425f0       ?Event_Remove@idWorldspawn@@AAEXXZ 1030c5f0 f   WorldSpawn.obj
 0002:00142650       ?CallScriptFunction@@YA_NVidStr@@0ZZ 1030c650 f   CycSysCmds.obj
 0002:001428a0       ?IsEmpty@idStr@@QBE_NXZ    1030c8a0 f i CycSysCmds.obj
 0002:00142910       ?CycPrintf@@YAXPBDZZ       1030c910 f   CycSysCmds.obj
 0002:001429f0       ?sFormat@@YAXPADPBDZZ      1030c9f0 f   CycSysCmds.obj
 0002:00142a60       ?gen_sessid@@YAHXZ         1030ca60 f   CycSysCmds.obj
 0002:00142ac0       ?Cyc_QueryCanSee_f@@YAXABVidCmdArgs@@@Z 1030cac0 f   CycSysCmds.obj
 0002:00143030       ?Filter@idStr@@QBE_NPBD_N@Z 1030d030 f i CycSysCmds.obj
 0002:001430a0       ?Cyc_QueryObject_f@@YAXABVidCmdArgs@@@Z 1030d0a0 f   CycSysCmds.obj
 0002:00143290       ?Cyc_loadLang_f@@YAXABVidCmdArgs@@@Z 1030d290 f   CycSysCmds.obj
 0002:001432c0       ?Cyc_QueryObjectType_f@@YAXABVidCmdArgs@@@Z 1030d2c0 f   CycSysCmds.obj
 0002:00143550       ?Cyc_QuerySpawnArgs_f@@YAXABVidCmdArgs@@@Z 1030d550 f   CycSysCmds.obj
 0002:00143840       ?Cyc_QueryObjectArgs_f@@YAXABVidCmdArgs@@@Z 1030d840 f   CycSysCmds.obj
 0002:00143aa0       ?Cyc_QueryChangedObjectArgs_f@@YAXABVidCmdArgs@@@Z 1030daa0 f   CycSysCmds.obj
 0002:00143ef0       ?Cyc_QueryChangedWorldArgs_f@@YAXABVidCmdArgs@@@Z 1030def0 f   CycSysCmds.obj
 0002:00144390       ?Cyc_InitChangedWorldArgs_f@@YAXABVidCmdArgs@@@Z 1030e390 f   CycSysCmds.obj
 0002:001447a0       ?util_ObjectArgUpdate_f@@YAXPAVidEntity@@VidStr@@@Z 1030e7a0 f   CycSysCmds.obj
 0002:001458a0       ?Cyc_clrScript_f@@YAXABVidCmdArgs@@@Z 1030f8a0 f   CycSysCmds.obj
 0002:00145910       ?Cyc_QueryScript_f@@YAXABVidCmdArgs@@@Z 1030f910 f   CycSysCmds.obj
 0002:00145db0       ?GetFunction@idProgram@@QAEPAVfunction_t@@H@Z 1030fdb0 f i CycSysCmds.obj
 0002:00145e10       ?Cyc_addScript_f@@YAXABVidCmdArgs@@@Z 1030fe10 f   CycSysCmds.obj
 0002:00145ff0       ?util_update_value@@YA_NPAVidEntity@@PBVidKeyValue@@ABVidCmdArgs@@@Z 1030fff0 f   CycSysCmds.obj
 0002:00146490       ?util_ObjectUpdate_f@@YAXPAVidEntity@@ABVidCmdArgs@@@Z 10310490 f   CycSysCmds.obj
 0002:001466e0       ?Cyc_SetObjectArgs_f@@YAXABVidCmdArgs@@@Z 103106e0 f   CycSysCmds.obj
 0002:00146a40       ?Cyc_UDPBegin@@YAXABVidCmdArgs@@@Z 10310a40 f   CycSysCmds.obj
 0002:00146ad0       ?Cyc_UDPEnd@@YAXABVidCmdArgs@@@Z 10310ad0 f   CycSysCmds.obj
 0002:00146b30       ?Cyc_loadScript_f@@YAXABVidCmdArgs@@@Z 10310b30 f   CycSysCmds.obj
 0002:00146c50       ?Cmd_StartScript_f@@YAXABVidCmdArgs@@@Z 10310c50 f   CycSysCmds.obj
 0002:00146d70       ?Cyc_Say@@YAXABVidCmdArgs@@@Z 10310d70 f   CycSysCmds.obj
 0002:00146e00       ?Cmd2_Spawn_f@@YAXABVidCmdArgs@@@Z 10310e00 f   CycSysCmds.obj
 0002:00147150       ?Cyc_SpawnEntityDef@@YA_NABVidDict@@PAPAVidEntity@@_N@Z 10311150 f   CycSysCmds.obj
 0002:00147720       ?Cyc_Dax_Spawn_f@@YAXABVidCmdArgs@@@Z 10311720 f   CycSysCmds.obj
 0002:00147a10       ?Cyc_QueryEntityDefs_f@@YAXABVidCmdArgs@@@Z 10311a10 f   CycSysCmds.obj
 0002:00147e10       ?Cyc_Query_Classses_f@@YAXABVidCmdArgs@@@Z 10311e10 f   CycSysCmds.obj
 0002:00147f00       ?GetNumTypes@idClass@@SAHXZ 10311f00 f i CycSysCmds.obj
 0002:00147f50       ?Cyc_Dax_Echo@@YAXABVidCmdArgs@@@Z 10311f50 f   CycSysCmds.obj
 0002:00147fb0       ?GetListenerThread@@YAPAVidThread@@PAV1@@Z 10311fb0 f   CycSysCmds.obj
 0002:00148000       ?STARTLISTENER@@YAXXZ      10312000 f   CycSysCmds.obj
 0002:00148120       ?Cyc_CallWithArgs_f@@YAXABVidCmdArgs@@@Z 10312120 f   CycSysCmds.obj
 0002:00148450       ?IsDying@idThread@@QAE_NXZ 10312450 f i CycSysCmds.obj
 0002:00148490       ?Cyc_Dax_Task@@YAXABVidCmdArgs@@@Z 10312490 f   CycSysCmds.obj
 0002:00148640       ?Cyc_Dax_System_f@@YAXABVidCmdArgs@@@Z 10312640 f   CycSysCmds.obj
 0002:001488e0       ?Cyc_Dax_Script@@YAXABVidCmdArgs@@@Z 103128e0 f   CycSysCmds.obj
 0002:00148ba0       ?Daxmoo_CYC_Init@@YAXXZ    10312ba0 f   CycSysCmds.obj
 0002:001497a0       ?Num@?$idList@PAVidTypeInfo@@@@QBEHXZ 103137a0 f i CycSysCmds.obj
 0002:001497e0       ??A?$idStaticList@Vfunction_t@@$0OAA@@@QAEAAVfunction_t@@H@Z 103137e0 f i CycSysCmds.obj
 0002:001498a0       ??$ArgCompletion_Decl@$03@idCmdSystem@@SAXABVidCmdArgs@@P6AXPBD@Z@Z 103138a0 f i CycSysCmds.obj
 0002:00149910       ?udpprint@@YAXPBD@Z        10313910 f   DaxCommon.obj
 0002:00149940       ?gameLocalPrintfBoth@@YAXPBDZZ 10313940 f   DaxCommon.obj
 0002:00149a30       ?gameLocalPrintf@@YAXPBDZZ 10313a30 f   DaxCommon.obj
 0002:00149b40       ?debugln@@YAXPBDZZ         10313b40 f   DaxCommon.obj
 0002:00149c50       ?Daxmoo_Init@@YAXXZ        10313c50 f   DaxCommon.obj
 0002:00149cc0       ?Daxmoo_Shutdown@@YA_NXZ   10313cc0 f   DaxCommon.obj
 0002:00149d20       ?Daxmoo_FrameInit@@YAXXZ   10313d20 f   DaxCommon.obj
 0002:00149d80       ?Daxmoo_RunFrame@@YAXXZ    10313d80 f   DaxCommon.obj
 0002:00149de0       ?getThreadGroup@@YAPAV_jobject@@PAUJNIEnv_@@@Z 10313de0 f   DaxInterpreter.obj
 0002:00149ec0       ?GetStaticMethodID@JNIEnv_@@QAEPAU_jmethodID@@PAV_jclass@@PBD1@Z 10313ec0 f i DaxInterpreter.obj
 0002:00149f40       ?CallStaticObjectMethod@JNIEnv_@@QAAPAV_jobject@@PAV_jclass@@PAU_jmethodID@@ZZ 10313f40 f i DaxInterpreter.obj
 0002:00149fd0       ?notifyExceptions@@YAXPAUJNIEnv_@@@Z 10313fd0 f   DaxInterpreter.obj
 0002:0014a050       ?ExceptionClear@JNIEnv_@@QAEXXZ 10314050 f i DaxInterpreter.obj
 0002:0014a0b0       ?ExceptionCheck@JNIEnv_@@QAEEXZ 103140b0 f i DaxInterpreter.obj
 0002:0014a120       ?attachEnv@@YAPAUJNIEnv_@@PAU1@@Z 10314120 f   DaxInterpreter.obj
 0002:0014a230       ?GetVersion@JNIEnv_@@QAEJXZ 10314230 f i DaxInterpreter.obj
 0002:0014a290       ?AttachCurrentThread@JavaVM_@@QAEJPAPAXPAX@Z 10314290 f i DaxInterpreter.obj
 0002:0014a300       ?JNU_GetEnv@@YAPAUJNIEnv_@@XZ 10314300 f   DaxInterpreter.obj
 0002:0014a3c0       ?GetEnv@JavaVM_@@QAEJPAPAXJ@Z 103143c0 f i DaxInterpreter.obj
 0002:0014a430       ?javart_FindClass@@YAPAV_jclass@@PAUJNIEnv_@@PBD@Z 10314430 f   DaxInterpreter.obj
 0002:0014a4c0       ?FindClass@JNIEnv_@@QAEPAV_jclass@@PBD@Z 103144c0 f i DaxInterpreter.obj
 0002:0014a530       ?GetStaticMethod@@YAPAU_jmethodID@@PAUJNIEnv_@@PBD1@Z 10314530 f   DaxInterpreter.obj
 0002:0014a600       ?jstring_to_chars@@YAPBDPAUJNIEnv_@@PAV_jstring@@@Z 10314600 f   DaxInterpreter.obj
 0002:0014a690       ?GetStringUTFLength@JNIEnv_@@QAEJPAV_jstring@@@Z 10314690 f i DaxInterpreter.obj
 0002:0014a700       ?GetStringUTFChars@JNIEnv_@@QAEPBDPAV_jstring@@PAE@Z 10314700 f i DaxInterpreter.obj
 0002:0014a770       ?jobject_to_string@@YAPBDPAUJNIEnv_@@PAV_jobject@@@Z 10314770 f   DaxInterpreter.obj
 0002:0014a810       ?jarrayToCmdArgs@@YAPBVidCmdArgs@@PAUJNIEnv_@@PAV_jobjectArray@@@Z 10314810 f   DaxInterpreter.obj
 0002:0014a9a0       ??0idCmdArgs@@QAE@PBD_N@Z  103149a0 f i DaxInterpreter.obj
 0002:0014aa00       ?GetArrayLength@JNIEnv_@@QAEJPAV_jarray@@@Z 10314a00 f i DaxInterpreter.obj
 0002:0014aa70       ?GetObjectArrayElement@JNIEnv_@@QAEPAV_jobject@@PAV_jobjectArray@@J@Z 10314a70 f i DaxInterpreter.obj
 0002:0014aae0       ?newIdStr@@YAPBDH@Z        10314ae0 f   DaxInterpreter.obj
 0002:0014ab30       ?etypeToString@@YAPBDW4etype_t@@@Z 10314b30 f   DaxInterpreter.obj
 0002:0014aca0       ?eventToFunction@@YAPBVfunction_t@@PBVidEventDef@@@Z 10314ca0 f   DaxInterpreter.obj
 0002:0014ad60       ?int2Function@@YAPBVfunction_t@@J@Z 10314d60 f   DaxInterpreter.obj
 0002:0014add0       ?isNonVoid@@YAHPBVfunction_t@@@Z 10314dd0 f   DaxInterpreter.obj
 0002:0014aec0       ?GetReturnType@idEventDef@@QBEDXZ 10314ec0 f i DaxInterpreter.obj
 0002:0014af00       ?java_find_vm@@YAPAUHINSTANCE__@@PBD00@Z 10314f00 f   DaxInterpreter.obj
 0002:0014b050       ?java_create_vm@@YAPAUJNIEnv_@@XZ 10315050 f   DaxInterpreter.obj
 0002:0014b5d0       ?getGame@@YAPAV_jobject@@PAUJNIEnv_@@@Z 103155d0 f   DaxInterpreter.obj
 0002:0014b690       ?chars_to_jstring@@YAPAV_jstring@@PAUJNIEnv_@@PBD@Z 10315690 f   DaxInterpreter.obj
 0002:0014b710       ?NewStringUTF@JNIEnv_@@QAEPAV_jstring@@PBD@Z 10315710 f i DaxInterpreter.obj
 0002:0014b780       ?Java_daxclr_doom_DaxDoom_scriptNumber@@YGJPAUJNIEnv_@@PAV_jclass@@PAV_jstring@@J2@Z 10315780 f   DaxInterpreter.obj
 0002:0014b880       ?cmdArgsToStringArray@@YAPAV_jobjectArray@@PAUJNIEnv_@@ABVidCmdArgs@@@Z 10315880 f   DaxInterpreter.obj
 0002:0014b950       ?NewObjectArray@JNIEnv_@@QAEPAV_jobjectArray@@JPAV_jclass@@PAV_jobject@@@Z 10315950 f i DaxInterpreter.obj
 0002:0014b9d0       ?SetObjectArrayElement@JNIEnv_@@QAEXPAV_jobjectArray@@JPAV_jobject@@@Z 103159d0 f i DaxInterpreter.obj
 0002:0014ba50       ?CLR_CmdExec@@YAXABVidCmdArgs@@@Z 10315a50 f   DaxInterpreter.obj
 0002:0014bb00       ?CallStaticBooleanMethod@JNIEnv_@@QAAEPAV_jclass@@PAU_jmethodID@@ZZ 10315b00 f i DaxInterpreter.obj
 0002:0014bb90       ?Java_daxclr_doom_DaxDoom_commandAdd@@YGXPAUJNIEnv_@@PAV_jclass@@PAV_jstring@@@Z 10315b90 f   DaxInterpreter.obj
 0002:0014bd00       ?toJavaNull@@YAPAV_jobject@@PAUJNIEnv_@@@Z 10315d00 f   DaxInterpreter.obj
 0002:0014bda0       ?idEntityToObject@@YAPAV_jobject@@PAUJNIEnv_@@PAVidEntity@@@Z 10315da0 f   DaxInterpreter.obj
 0002:0014be70       ?Java_daxclr_doom_DaxDoom_evalDoom@@YGPAV_jobject@@PAUJNIEnv_@@PAV_jclass@@PAV_jstring@@@Z 10315e70 f   DaxInterpreter.obj
 0002:0014bfe0       ?Java_daxclr_doom_DaxDoom_evalConsole@@YGPAV_jobject@@PAUJNIEnv_@@PAV_jclass@@PAV_jstring@@@Z 10315fe0 f   DaxInterpreter.obj
 0002:0014c060       ?Java_daxclr_doom_DaxDoom_entityNumber@@YGJPAUJNIEnv_@@PAV_jclass@@PAV_jstring@@@Z 10316060 f   DaxInterpreter.obj
 0002:0014c0f0       ?vec3ToObject@@YAPAV_jobject@@PAUJNIEnv_@@VidVec3@@@Z 103160f0 f   DaxInterpreter.obj
 0002:0014c1c0       ?getFullGUI@@YAPAVidUserInterface@@XZ 103161c0 f   DaxInterpreter.obj
 0002:0014c2d0       ?setPointXY@@YAXHHVidVec4@@@Z 103162d0 f   DaxInterpreter.obj
 0002:0014c330       ?setMouseXY@@YAXMM@Z       10316330 f   DaxInterpreter.obj
 0002:0014c420       ?getMouseXY@@YAPAVidVec2@@XZ 10316420 f   DaxInterpreter.obj
 0002:0014c770       ?getMouseClickedXY@@YAPAVidVec2@@XZ 10316770 f   DaxInterpreter.obj
 0002:0014c880       ?Java_daxclr_doom_DaxDoom_setMouseXY@@YGXPAUJNIEnv_@@PAV_jclass@@MM@Z 10316880 f   DaxInterpreter.obj
 0002:0014c900       ?Java_daxclr_doom_DaxDoom_setPixel@@YGXPAUJNIEnv_@@PAV_jclass@@MMMMMM@Z 10316900 f   DaxInterpreter.obj
 0002:0014c9a0       ?Java_daxclr_doom_DaxDoom_setMouseImage@@YGXPAUJNIEnv_@@PAV_jclass@@PAV_jstring@@@Z 103169a0 f   DaxInterpreter.obj
 0002:0014ca10       ?Java_daxclr_doom_DaxDoom_getLastXY@@YGPAV_jobject@@PAUJNIEnv_@@PAV_jclass@@@Z 10316a10 f   DaxInterpreter.obj
 0002:0014cb90       ?Java_daxclr_doom_DaxDoom_getLastClickedXY@@YGPAV_jobject@@PAUJNIEnv_@@PAV_jclass@@@Z 10316b90 f   DaxInterpreter.obj
 0002:0014cd00       ?Java_daxclr_doom_DaxDoom_getLastClickedObject@@YGPAV_jobject@@PAUJNIEnv_@@PAV_jclass@@@Z 10316d00 f   DaxInterpreter.obj
 0002:0014cd60       ?Java_daxclr_doom_DaxDoom_getGUI@@YGPAV_jobject@@PAUJNIEnv_@@PAV_jclass@@@Z 10316d60 f   DaxInterpreter.obj
 0002:0014ce00       ?Java_daxclr_doom_DaxDoom_setGUI@@YGXPAUJNIEnv_@@PAV_jclass@@PAV_jstring@@@Z 10316e00 f   DaxInterpreter.obj
 0002:0014ceb0       ?Java_daxclr_doom_DaxDoom_exceptionClear@@YGXPAUJNIEnv_@@PAV_jclass@@@Z 10316eb0 f   DaxInterpreter.obj
 0002:0014cf20       ?Java_daxclr_doom_DaxDoom_entityClass@@YGPAV_jstring@@PAUJNIEnv_@@PAV_jclass@@J@Z 10316f20 f   DaxInterpreter.obj
 0002:0014cfc0       ?Java_daxclr_doom_DaxDoom_entityType@@YGPAV_jstring@@PAUJNIEnv_@@PAV_jclass@@J@Z 10316fc0 f   DaxInterpreter.obj
 0002:0014d060       ?Java_daxclr_doom_DaxDoom_entityName@@YGPAV_jstring@@PAUJNIEnv_@@PAV_jclass@@J@Z 10317060 f   DaxInterpreter.obj
 0002:0014d100       ?Java_daxclr_doom_DaxDoom_setSpawnArg@@YGXPAUJNIEnv_@@PAV_jclass@@JPAV_jstring@@2@Z 10317100 f   DaxInterpreter.obj
 0002:0014d1b0       ?Java_daxclr_doom_DaxDoom_getSpawnArgList@@YGPAV_jstring@@PAUJNIEnv_@@PAV_jclass@@J@Z 103171b0 f   DaxInterpreter.obj
 0002:0014d380       ?Append@idStr@@QAEXD@Z     10317380 f i DaxInterpreter.obj
 0002:0014d420       ?Java_daxclr_doom_DaxDoom_getSpawnArg__ILjava_lang_String_2Ljava_lang_String_2@@YGPAV_jstring@@PAUJNIEnv_@@PAV_jclass@@JPAV1@2@Z 10317420 f   DaxInterpreter.obj
 0002:0014d4e0       ?Java_daxclr_doom_DaxDoom_getSpawnArg__ILjava_lang_String_2@@YGPAV_jstring@@PAUJNIEnv_@@PAV_jclass@@JPAV1@@Z 103174e0 f   DaxInterpreter.obj
 0002:0014d590       ?Java_Native_handleException@@YGXPAUJNIEnv_@@PAV_jobject@@@Z 10317590 f   DaxInterpreter.obj
 0002:0014d640       ?ExceptionOccurred@JNIEnv_@@QAEPAV_jthrowable@@XZ 10317640 f i DaxInterpreter.obj
 0002:0014d6a0       ?GetObjectClass@JNIEnv_@@QAEPAV_jclass@@PAV_jobject@@@Z 103176a0 f i DaxInterpreter.obj
 0002:0014d710       ?GetFieldID@JNIEnv_@@QAEPAU_jfieldID@@PAV_jclass@@PBD1@Z 10317710 f i DaxInterpreter.obj
 0002:0014d790       ?Java_Native_printWXYZ@@YGXPAUJNIEnv_@@PAV_jobject@@@Z 10317790 f   DaxInterpreter.obj
 0002:0014d910       ?GetObjectField@JNIEnv_@@QAEPAV_jobject@@PAV2@PAU_jfieldID@@@Z 10317910 f i DaxInterpreter.obj
 0002:0014d980       ?GetIntField@JNIEnv_@@QAEJPAV_jobject@@PAU_jfieldID@@@Z 10317980 f i DaxInterpreter.obj
 0002:0014d9f0       ?GetStaticFieldID@JNIEnv_@@QAEPAU_jfieldID@@PAV_jclass@@PBD1@Z 103179f0 f i DaxInterpreter.obj
 0002:0014da70       ?GetStaticIntField@JNIEnv_@@QAEJPAV_jclass@@PAU_jfieldID@@@Z 10317a70 f i DaxInterpreter.obj
 0002:0014dae0       ?ReleaseStringUTFChars@JNIEnv_@@QAEXPAV_jstring@@PBD@Z 10317ae0 f i DaxInterpreter.obj
 0002:0014db50       ?SearchInterface@@YAPAVidUserInterface@@PBD@Z 10317b50 f   DaxInterpreter.obj
 0002:0014dbd0       ?GetEventDef@@YAPBVidEventDef@@PBVfunction_t@@@Z 10317bd0 f   DaxInterpreter.obj
 0002:0014dc10       ?GetReturnType@@YADPBVfunction_t@@@Z 10317c10 f   DaxInterpreter.obj
 0002:0014dc70       ?GetTypeForEventArg@@YAPAVidTypeDef@@D@Z 10317c70 f   DaxInterpreter.obj
 0002:0014ddf0       ?GetReturnTypeDef@@YAPAVidTypeDef@@PBVfunction_t@@@Z 10317df0 f   DaxInterpreter.obj
 0002:0014df00       ??1idCompiler@@QAE@XZ      10317f00 f i DaxInterpreter.obj
 0002:0014dfa0       ?varDumpInfo@@YAXPAVidVarDef@@@Z 10317fa0 f   DaxInterpreter.obj
 0002:0014e290       ?Type@idVarDef@@QBE?AW4etype_t@@XZ 10318290 f i DaxInterpreter.obj
 0002:0014e310       ?GetVarDef@@YAPAVidVarDef@@PBD0@Z 10318310 f   DaxInterpreter.obj
 0002:0014ec10       ?isJavaFn@@YA_NPAUJNIEnv_@@PBD1@Z 10318c10 f   DaxInterpreter.obj
 0002:0014ecf0       ?cmdArgs2ObjectArray@@YAPAV_jobject@@PAUJNIEnv_@@ABVidCmdArgs@@@Z 10318cf0 f   DaxInterpreter.obj
 0002:0014edf0       ?objectToVarDef@@YAPAVidVarDef@@PAUJNIEnv_@@PAV_jobject@@@Z 10318df0 f   DaxInterpreter.obj
 0002:0014f650       ?IsInstanceOf@JNIEnv_@@QAEEPAV_jobject@@PAV_jclass@@@Z 10319650 f i DaxInterpreter.obj
 0002:0014f6c0       ?CallStaticIntMethod@JNIEnv_@@QAAJPAV_jclass@@PAU_jmethodID@@ZZ 103196c0 f i DaxInterpreter.obj
 0002:0014f750       ?CallStaticFloatMethod@JNIEnv_@@QAAMPAV_jclass@@PAU_jmethodID@@ZZ 10319750 f i DaxInterpreter.obj
 0002:0014f7e0       ?InvokeJava@@YAPAVidVarDef@@PAUJNIEnv_@@PBD1ABVidCmdArgs@@@Z 103197e0 f   DaxInterpreter.obj
 0002:0014f8d0       ?floatToObject@@YAPAV_jobject@@PAUJNIEnv_@@M@Z 103198d0 f   DaxInterpreter.obj
 0002:0014f980       ?intToObject@@YAPAV_jobject@@PAUJNIEnv_@@H@Z 10319980 f   DaxInterpreter.obj
 0002:0014fa30       ?varToObject@@YAPAV_jobject@@PAUJNIEnv_@@PAVidVarDef@@@Z 10319a30 f   DaxInterpreter.obj
 0002:0014fe10       ?CLR_Call@@YAXABVidCmdArgs@@@Z 10319e10 f   DaxInterpreter.obj
 0002:0014ff30       ?Daxmoo_CLR_Event_sayFrom@@YAXH_NPBD11@Z 10319f30 f   DaxInterpreter.obj
 0002:00150030       ?CallStaticVoidMethod@JNIEnv_@@QAAXPAV_jclass@@PAU_jmethodID@@ZZ 1031a030 f i DaxInterpreter.obj
 0002:001500b0       ?CLR_LoadAssembly@@YAXABVidCmdArgs@@@Z 1031a0b0 f   DaxInterpreter.obj
 0002:00150180       ?CLR_StartAssembly@@YAXABVidCmdArgs@@@Z 1031a180 f   DaxInterpreter.obj
 0002:00150250       ?CLR_CmdRegister@@YAXABVidCmdArgs@@@Z 1031a250 f   DaxInterpreter.obj
 0002:00150300       ?java_destroy_vm@@YA_NXZ   1031a300 f   DaxInterpreter.obj
 0002:00150370       ?DestroyJavaVM@JavaVM_@@QAEJXZ 1031a370 f i DaxInterpreter.obj
 0002:001503d0       ?CLR_List@@YAXABVidCmdArgs@@@Z 1031a3d0 f   DaxInterpreter.obj
 0002:00150640       ?Empty@idStr@@QAEXXZ       1031a640 f i DaxInterpreter.obj
 0002:001506b0       ?CLR_isJavaFn@@YAXABVidCmdArgs@@@Z 1031a6b0 f   DaxInterpreter.obj
 0002:001507b0       ?Java_daxclr_doom_DaxDoom_invokeScript@@YGPAV_jobject@@PAUJNIEnv_@@PAV_jclass@@PAV_jstring@@2PAV_jobjectArray@@@Z 1031a7b0 f   DaxInterpreter.obj
 0002:00150a70       ?ContinueProcessing@idThread@@QAEXXZ 1031aa70 f i DaxInterpreter.obj
 0002:00150ac0       ?Java_daxclr_doom_DaxDoom_scriptInvoke@@YGPAV_jobject@@PAUJNIEnv_@@PAV_jclass@@JPAV_jobjectArray@@@Z 1031aac0 f   DaxInterpreter.obj
 0002:00150be0       ?Java_daxclr_doom_DaxDoom_isGameUnderway@@YGEPAUJNIEnv_@@PAV_jclass@@@Z 1031abe0 f   DaxInterpreter.obj
 0002:00150c50       ?Java_daxclr_doom_DaxDoom_scriptParameter@@YGPAV_jstring@@PAUJNIEnv_@@PAV_jclass@@JJ@Z 1031ac50 f   DaxInterpreter.obj
 0002:00150d00       ?Java_daxclr_doom_DaxDoom_scriptParameterName@@YGPAV_jstring@@PAUJNIEnv_@@PAV_jclass@@JJ@Z 1031ad00 f   DaxInterpreter.obj
 0002:00150db0       ?Java_daxclr_doom_DaxDoom_scriptArity@@YGJPAUJNIEnv_@@PAV_jclass@@J@Z 1031adb0 f   DaxInterpreter.obj
 0002:00150e20       ?Java_daxclr_doom_DaxDoom_scriptName@@YGPAV_jstring@@PAUJNIEnv_@@PAV_jclass@@J@Z 1031ae20 f   DaxInterpreter.obj
 0002:00150e90       ?Java_daxclr_doom_DaxDoom_scriptReturn@@YGPAV_jstring@@PAUJNIEnv_@@PAV_jclass@@J@Z 1031ae90 f   DaxInterpreter.obj
 0002:00150f00       ?Java_daxclr_doom_DaxDoom_scriptFullname@@YGPAV_jstring@@PAUJNIEnv_@@PAV_jclass@@J@Z 1031af00 f   DaxInterpreter.obj
 0002:00150ff0       ?Java_daxclr_doom_DaxDoom_scriptClass@@YGPAV_jstring@@PAUJNIEnv_@@PAV_jclass@@J@Z 1031aff0 f   DaxInterpreter.obj
 0002:00151060       ?Java_daxclr_doom_DaxDoom_scriptSignature@@YGPAV_jstring@@PAUJNIEnv_@@PAV_jclass@@J@Z 1031b060 f   DaxInterpreter.obj
 0002:00151150       ?Java_daxclr_doom_DaxDoom_respondsTo@@YGEPAUJNIEnv_@@PAV_jclass@@JJ@Z 1031b150 f   DaxInterpreter.obj
 0002:00151200       ?Java_daxclr_doom_DaxDoom_print@@YGXPAUJNIEnv_@@PAV_jclass@@PAV_jstring@@@Z 1031b200 f   DaxInterpreter.obj
 0002:00151270       ?Java_daxclr_doom_DaxDoom_debugln@@YGXPAUJNIEnv_@@PAV_jclass@@PAV_jstring@@@Z 1031b270 f   DaxInterpreter.obj
 0002:001512e0       ?jSpawnEntityDef@@YA_NPAUJNIEnv_@@AAVidDict@@PAPAVidEntity@@_N@Z 1031b2e0 f   DaxInterpreter.obj
 0002:001517a0       ?makeNewEntity@@YGJPAUJNIEnv_@@PAV_jclass@@PAV_jstring@@22@Z 1031b7a0 f   DaxInterpreter.obj
 0002:00151b10       ?java_sync_vm@@YAPAUJNIEnv_@@XZ 1031bb10 f   DaxInterpreter.obj
 0002:00152040       ?RegisterNatives@JNIEnv_@@QAEJPAV_jclass@@PBUJNINativeMethod@@J@Z 1031c040 f i DaxInterpreter.obj
 0002:001520c0       ?Daxmoo_CLR_OnGameLoad@@YAXXZ 1031c0c0 f   DaxInterpreter.obj
 0002:001520f0       ?CLR_Reload@@YAXABVidCmdArgs@@@Z 1031c0f0 f   DaxInterpreter.obj
 0002:00152140       ?CLR_Exit@@YAXABVidCmdArgs@@@Z 1031c140 f   DaxInterpreter.obj
 0002:001521c0       ?DetachCurrentThread@JavaVM_@@QAEJXZ 1031c1c0 f i DaxInterpreter.obj
 0002:00152220       ?Daxmoo_CLR_Init@@YAXXZ    1031c220 f   DaxInterpreter.obj
 0002:00152430       ??0CycAccess@@QAE@XZ       1031c430 f   CycAccess.obj
 0002:001524e0       ??1CycAccess@@QAE@XZ       1031c4e0 f   CycAccess.obj
 0002:00152530       ?setConnection@CycAccess@@QAEXPBDH@Z 1031c530 f   CycAccess.obj
 0002:00152590       ?open@CycAccess@@QAEXXZ    1031c590 f   CycAccess.obj
 0002:001525e0       ?open@CycAccess@@QAEXPBDH@Z 1031c5e0 f   CycAccess.obj
 0002:00152650       ?close@CycAccess@@QAEXXZ   1031c650 f   CycAccess.obj
 0002:001526a0       ?getCycConnection@CycAccess@@QAEPAVCycConnection@@XZ 1031c6a0 f   CycAccess.obj
 0002:001526e0       ?converseObject@CycAccess@@QAEPAVCycList@@VidStr@@@Z 1031c6e0 f   CycAccess.obj
 0002:001527c0       ?converseString@CycAccess@@QAE?AVidStr@@V2@@Z 1031c7c0 f   CycAccess.obj
 0002:001528a0       ?converseList@CycAccess@@QAEPAVCycList@@VidStr@@@Z 1031c8a0 f   CycAccess.obj
 0002:00152980       ?converseBoolean@CycAccess@@QAE_NVidStr@@@Z 1031c980 f   CycAccess.obj
 0002:00152a60       ?getConstantByName@CycAccess@@QAE?AVidStr@@V2@@Z 1031ca60 f   CycAccess.obj
 0002:00152bc0       ?getKnownConstantByName@CycAccess@@QAE?AVidStr@@V2@@Z 1031cbc0 f   CycAccess.obj
 0002:00152d20       ?assertString@CycAccess@@QAE?AVidStr@@V2@0@Z 1031cd20 f   CycAccess.obj
 0002:00153000       ?askWithVariable@CycAccess@@QAEPAVCycList@@VidStr@@00@Z 1031d000 f   CycAccess.obj
 0002:00153370       ?getIsas@CycAccess@@QAEPAVCycList@@VidStr@@@Z 1031d370 f   CycAccess.obj
 0002:001534a0       ?getGenls@CycAccess@@QAEPAVCycList@@VidStr@@@Z 1031d4a0 f   CycAccess.obj
 0002:001535d0       ?getDenotationList@CycAccess@@QAEPAVCycList@@VidStr@@@Z 1031d5d0 f   CycAccess.obj
 0002:00153700       ?askList@CycAccess@@QAEPAVCycList@@VidStr@@@Z 1031d700 f   CycAccess.obj
 0002:00153830       ?isSpecOf@CycAccess@@QAE_NVidStr@@0@Z 1031d830 f   CycAccess.obj
 0002:00153950       ?isGenlOf@CycAccess@@QAE_NVidStr@@0@Z 1031d950 f   CycAccess.obj
 0002:00153b30       ?isa@CycAccess@@QAE_NVidStr@@0@Z 1031db30 f   CycAccess.obj
 0002:00153d10       ?isGenlPredOf@CycAccess@@QAE_NVidStr@@00@Z 1031dd10 f   CycAccess.obj
 0002:00153fa0       ?isGenlPredOf@CycAccess@@QAE_NVidStr@@0@Z 1031dfa0 f   CycAccess.obj
 0002:00154180       ?isGenlInverseOf@CycAccess@@QAE_NVidStr@@00@Z 1031e180 f   CycAccess.obj
 0002:00154410       ?isGenlInverseOf@CycAccess@@QAE_NVidStr@@0@Z 1031e410 f   CycAccess.obj
 0002:001545f0       ?isGenlMtOf@CycAccess@@QAE_NVidStr@@0@Z 1031e5f0 f   CycAccess.obj
 0002:001547d0       ?areTacitCoextensional@CycAccess@@QAE_NVidStr@@0@Z 1031e7d0 f   CycAccess.obj
 0002:001549b0       ?areTacitCoextensional@CycAccess@@QAE_NVidStr@@00@Z 1031e9b0 f   CycAccess.obj
 0002:00154c40       ?areIntersecting@CycAccess@@QAE_NVidStr@@0@Z 1031ec40 f   CycAccess.obj
 0002:00154e20       ?areIntersecting@CycAccess@@QAE_NVidStr@@00@Z 1031ee20 f   CycAccess.obj
 0002:001550b0       ?areHierarchical@CycAccess@@QAE_NVidStr@@0@Z 1031f0b0 f   CycAccess.obj
 0002:00155290       ?areHierarchical@CycAccess@@QAE_NVidStr@@00@Z 1031f290 f   CycAccess.obj
 0002:001554d0       ?getWhyGenl@CycAccess@@QAEPAVCycList@@VidStr@@0@Z 1031f4d0 f   CycAccess.obj
 0002:001556b0       ?getWhyGenl@CycAccess@@QAEPAVCycList@@VidStr@@00@Z 1031f6b0 f   CycAccess.obj
 0002:00155940       ?areDisjoint@CycAccess@@QAE_NVidStr@@0@Z 1031f940 f   CycAccess.obj
 0002:00155b20       ?areDisjoint@CycAccess@@QAE_NVidStr@@00@Z 1031fb20 f   CycAccess.obj
 0002:00155db0       ?isMicrotheory@CycAccess@@QAE_NVidStr@@@Z 1031fdb0 f   CycAccess.obj
 0002:00155ee0       ?isCollection@CycAccess@@QAE_NVidStr@@@Z 1031fee0 f   CycAccess.obj
 0002:00156010       ?isIndividual@CycAccess@@QAE_NVidStr@@@Z 10320010 f   CycAccess.obj
 0002:00156140       ?isFunction@CycAccess@@QAE_NVidStr@@@Z 10320140 f   CycAccess.obj
 0002:00156270       ?isPredicate@CycAccess@@QAE_NVidStr@@@Z 10320270 f   CycAccess.obj
 0002:001563a0       ?isUnaryPredicate@CycAccess@@QAE_NVidStr@@@Z 103203a0 f   CycAccess.obj
 0002:001564d0       ?isBinaryPredicate@CycAccess@@QAE_NVidStr@@@Z 103204d0 f   CycAccess.obj
 0002:00156600       ?isValidConstantName@CycAccess@@QAE_NVidStr@@@Z 10320600 f   CycAccess.obj
 0002:00156730       ?isConstantNameAvailable@CycAccess@@QAE_NVidStr@@@Z 10320730 f   CycAccess.obj
 0002:00156860       ?isPublicConstant@CycAccess@@QAE_NVidStr@@@Z 10320860 f   CycAccess.obj
 0002:00156990       ?isFormulaWellFormed@CycAccess@@QAE_NVidStr@@0@Z 10320990 f   CycAccess.obj
 0002:00156b70       ?isCycLNonAtomicReifableTerm@CycAccess@@QAE_NVidStr@@@Z 10320b70 f   CycAccess.obj
 0002:00156ca0       ?isCycLNonAtomicUnreifableTerm@CycAccess@@QAE_NVidStr@@@Z 10320ca0 f   CycAccess.obj
 0002:00156dd0       ?getIsas@CycAccess@@QAEPAVCycList@@VidStr@@0@Z 10320dd0 f   CycAccess.obj
 0002:00156fb0       ?getGenls@CycAccess@@QAEPAVCycList@@VidStr@@0@Z 10320fb0 f   CycAccess.obj
 0002:00157190       ?getMinGenls@CycAccess@@QAEPAVCycList@@VidStr@@@Z 10321190 f   CycAccess.obj
 0002:001572c0       ?getMinGenls@CycAccess@@QAEPAVCycList@@VidStr@@0@Z 103212c0 f   CycAccess.obj
 0002:001574a0       ?getSpecs@CycAccess@@QAEPAVCycList@@VidStr@@@Z 103214a0 f   CycAccess.obj
 0002:001575d0       ?getSpecs@CycAccess@@QAEPAVCycList@@VidStr@@0@Z 103215d0 f   CycAccess.obj
 0002:001577b0       ?getMaxSpecs@CycAccess@@QAEPAVCycList@@VidStr@@@Z 103217b0 f   CycAccess.obj
 0002:001578e0       ?getMaxSpecs@CycAccess@@QAEPAVCycList@@VidStr@@0@Z 103218e0 f   CycAccess.obj
 0002:00157ac0       ?getGenlSiblings@CycAccess@@QAEPAVCycList@@VidStr@@@Z 10321ac0 f   CycAccess.obj
 0002:00157bf0       ?getGenlSiblings@CycAccess@@QAEPAVCycList@@VidStr@@0@Z 10321bf0 f   CycAccess.obj
 0002:00157dd0       ?getSiblings@CycAccess@@QAEPAVCycList@@VidStr@@@Z 10321dd0 f   CycAccess.obj
 0002:00157eb0       ?getSiblings@CycAccess@@QAEPAVCycList@@VidStr@@0@Z 10321eb0 f   CycAccess.obj
 0002:00157fd0       ?getSpecSiblings@CycAccess@@QAEPAVCycList@@VidStr@@@Z 10321fd0 f   CycAccess.obj
 0002:00158100       ?getSpecSiblings@CycAccess@@QAEPAVCycList@@VidStr@@0@Z 10322100 f   CycAccess.obj
 0002:001582e0       ?getAllGenls@CycAccess@@QAEPAVCycList@@VidStr@@@Z 103222e0 f   CycAccess.obj
 0002:00158410       ?getAllGenls@CycAccess@@QAEPAVCycList@@VidStr@@0@Z 10322410 f   CycAccess.obj
 0002:001585f0       ?getAllSpecs@CycAccess@@QAEPAVCycList@@VidStr@@@Z 103225f0 f   CycAccess.obj
 0002:00158720       ?getAllSpecs@CycAccess@@QAEPAVCycList@@VidStr@@0@Z 10322720 f   CycAccess.obj
 0002:00158900       ?getAllGenlsWrt@CycAccess@@QAEPAVCycList@@VidStr@@0@Z 10322900 f   CycAccess.obj
 0002:00158ae0       ?getAllGenlsWrt@CycAccess@@QAEPAVCycList@@VidStr@@00@Z 10322ae0 f   CycAccess.obj
 0002:00158d70       ?getAllDependentSpecs@CycAccess@@QAEPAVCycList@@VidStr@@@Z 10322d70 f   CycAccess.obj
 0002:00158ea0       ?getAllDependentSpecs@CycAccess@@QAEPAVCycList@@VidStr@@0@Z 10322ea0 f   CycAccess.obj
 0002:00159080       ?getSampleLeafSpecs@CycAccess@@QAEPAVCycList@@VidStr@@H@Z 10323080 f   CycAccess.obj
 0002:00159250       ??H@YA?AVidStr@@ABV0@H@Z   10323250 f i CycAccess.obj
 0002:001593a0       ?getSampleLeafSpecs@CycAccess@@QAEPAVCycList@@VidStr@@H0@Z 103233a0 f   CycAccess.obj
 0002:00159620       ?getWhyCollectionsIntersect@CycAccess@@QAEPAVCycList@@VidStr@@0@Z 10323620 f   CycAccess.obj
 0002:00159800       ?getWhyCollectionsIntersect@CycAccess@@QAEPAVCycList@@VidStr@@00@Z 10323800 f   CycAccess.obj
 0002:00159a90       ?getCollectionLeaves@CycAccess@@QAEPAVCycList@@VidStr@@@Z 10323a90 f   CycAccess.obj
 0002:00159bc0       ?getCollectionLeaves@CycAccess@@QAEPAVCycList@@VidStr@@0@Z 10323bc0 f   CycAccess.obj
 0002:00159da0       ?getLocalDisjointWith@CycAccess@@QAEPAVCycList@@VidStr@@@Z 10323da0 f   CycAccess.obj
 0002:00159ed0       ?getLocalDisjointWith@CycAccess@@QAEPAVCycList@@VidStr@@0@Z 10323ed0 f   CycAccess.obj
 0002:0015a0b0       ?getMinIsas@CycAccess@@QAEPAVCycList@@VidStr@@@Z 103240b0 f   CycAccess.obj
 0002:0015a1e0       ?getMinIsas@CycAccess@@QAEPAVCycList@@VidStr@@0@Z 103241e0 f   CycAccess.obj
 0002:0015a3c0       ?getInstances@CycAccess@@QAEPAVCycList@@VidStr@@@Z 103243c0 f   CycAccess.obj
 0002:0015a4f0       ?getInstances@CycAccess@@QAEPAVCycList@@VidStr@@0@Z 103244f0 f   CycAccess.obj
 0002:0015a6d0       ?getInstanceSiblings@CycAccess@@QAEPAVCycList@@VidStr@@@Z 103246d0 f   CycAccess.obj
 0002:0015a800       ?getInstanceSiblings@CycAccess@@QAEPAVCycList@@VidStr@@0@Z 10324800 f   CycAccess.obj
 0002:0015a9e0       ?getAllIsa@CycAccess@@QAEPAVCycList@@VidStr@@@Z 103249e0 f   CycAccess.obj
 0002:0015ab10       ?getAllIsa@CycAccess@@QAEPAVCycList@@VidStr@@0@Z 10324b10 f   CycAccess.obj
 0002:0015acf0       ?getAllInstances@CycAccess@@QAEPAVCycList@@VidStr@@@Z 10324cf0 f   CycAccess.obj
 0002:0015ae20       ?getAllInstances@CycAccess@@QAEPAVCycList@@VidStr@@0@Z 10324e20 f   CycAccess.obj
 0002:0015b000       ?getWhyIsa@CycAccess@@QAEPAVCycList@@VidStr@@0@Z 10325000 f   CycAccess.obj
 0002:0015b1e0       ?getWhyIsa@CycAccess@@QAEPAVCycList@@VidStr@@00@Z 103251e0 f   CycAccess.obj
 0002:0015b470       ?getGenlPreds@CycAccess@@QAEPAVCycList@@VidStr@@@Z 10325470 f   CycAccess.obj
 0002:0015b5a0       ?getGenlPreds@CycAccess@@QAEPAVCycList@@VidStr@@0@Z 103255a0 f   CycAccess.obj
 0002:0015b780       ?getAllGenlPreds@CycAccess@@QAEPAVCycList@@VidStr@@@Z 10325780 f   CycAccess.obj
 0002:0015b8b0       ?getAllGenlPreds@CycAccess@@QAEPAVCycList@@VidStr@@0@Z 103258b0 f   CycAccess.obj
 0002:0015ba90       ?getAllSpecPreds@CycAccess@@QAEPAVCycList@@VidStr@@@Z 10325a90 f   CycAccess.obj
 0002:0015bbc0       ?getAllSpecPreds@CycAccess@@QAEPAVCycList@@VidStr@@0@Z 10325bc0 f   CycAccess.obj
 0002:0015bda0       ?getAllSpecInverses@CycAccess@@QAEPAVCycList@@VidStr@@@Z 10325da0 f   CycAccess.obj
 0002:0015bed0       ?getAllSpecInverses@CycAccess@@QAEPAVCycList@@VidStr@@0@Z 10325ed0 f   CycAccess.obj
 0002:0015c0b0       ?getAllSpecMts@CycAccess@@QAEPAVCycList@@VidStr@@@Z 103260b0 f   CycAccess.obj
 0002:0015c1e0       ?getArg1Isas@CycAccess@@QAEPAVCycList@@VidStr@@@Z 103261e0 f   CycAccess.obj
 0002:0015c310       ?getArg1Isas@CycAccess@@QAEPAVCycList@@VidStr@@0@Z 10326310 f   CycAccess.obj
 0002:0015c4f0       ?getArg2Isas@CycAccess@@QAEPAVCycList@@VidStr@@@Z 103264f0 f   CycAccess.obj
 0002:0015c620       ?getArg2Isas@CycAccess@@QAEPAVCycList@@VidStr@@0@Z 10326620 f   CycAccess.obj
 0002:0015c800       ?getArg3Isas@CycAccess@@QAEPAVCycList@@VidStr@@@Z 10326800 f   CycAccess.obj
 0002:0015c930       ?getArg3Isas@CycAccess@@QAEPAVCycList@@VidStr@@0@Z 10326930 f   CycAccess.obj
 0002:0015cb10       ?getArg4Isas@CycAccess@@QAEPAVCycList@@VidStr@@@Z 10326b10 f   CycAccess.obj
 0002:0015cc40       ?getArg4Isas@CycAccess@@QAEPAVCycList@@VidStr@@0@Z 10326c40 f   CycAccess.obj
 0002:0015ce20       ?getArgNIsas@CycAccess@@QAEPAVCycList@@VidStr@@H@Z 10326e20 f   CycAccess.obj
 0002:0015d0b0       ?getArgNIsas@CycAccess@@QAEPAVCycList@@VidStr@@H0@Z 103270b0 f   CycAccess.obj
 0002:0015d3a0       ?getInterArgIsa1_2s@CycAccess@@QAEPAVCycList@@VidStr@@@Z 103273a0 f   CycAccess.obj
 0002:0015d540       ?getInterArgIsa1_2s@CycAccess@@QAEPAVCycList@@VidStr@@0@Z 10327540 f   CycAccess.obj
 0002:0015d790       ?getResultIsas@CycAccess@@QAEPAVCycList@@VidStr@@@Z 10327790 f   CycAccess.obj
 0002:0015d8c0       ?getResultIsas@CycAccess@@QAEPAVCycList@@VidStr@@0@Z 103278c0 f   CycAccess.obj
 0002:0015daa0       ?getArgNGenls@CycAccess@@QAEPAVCycList@@VidStr@@H@Z 10327aa0 f   CycAccess.obj
 0002:0015dc70       ?getArgNGenls@CycAccess@@QAEPAVCycList@@VidStr@@H0@Z 10327c70 f   CycAccess.obj
 0002:0015def0       ?getArg1Formats@CycAccess@@QAEPAVCycList@@VidStr@@@Z 10327ef0 f   CycAccess.obj
 0002:0015e020       ?getArg1Formats@CycAccess@@QAEPAVCycList@@VidStr@@0@Z 10328020 f   CycAccess.obj
 0002:0015e200       ?getArg2Formats@CycAccess@@QAEPAVCycList@@VidStr@@@Z 10328200 f   CycAccess.obj
 0002:0015e330       ?getArg2Formats@CycAccess@@QAEPAVCycList@@VidStr@@0@Z 10328330 f   CycAccess.obj
 0002:0015e510       ?getDisjointWiths@CycAccess@@QAEPAVCycList@@VidStr@@@Z 10328510 f   CycAccess.obj
 0002:0015e640       ?getDisjointWiths@CycAccess@@QAEPAVCycList@@VidStr@@0@Z 10328640 f   CycAccess.obj
 0002:0015e820       ?isQueryTrue@CycAccess@@QAE_NVidStr@@0@Z 10328820 f   CycAccess.obj
 0002:0015eb20       ??_GCycList@@QAEPAXI@Z     10328b20 f i CycAccess.obj
 0002:0015eb90       ?numIndex@CycAccess@@QAEJVidStr@@@Z 10328b90 f   CycAccess.obj
 0002:0015ee60       ?getParaphrase@CycAccess@@QAE?AVidStr@@V2@@Z 10328e60 f   CycAccess.obj
 0002:0015f0d0       ?paraphrase@CycAccess@@QAE?AVidStr@@PAVCycList@@@Z 103290d0 f   CycAccess.obj
 0002:0015f430       ?convertBoolean@CycAccess@@QAE?AVidStr@@V2@@Z 10329430 f   CycAccess.obj
 0002:0015f700       ?getImpreciseParaphrase@CycAccess@@QAE?AVidStr@@V2@@Z 10329700 f   CycAccess.obj
 0002:0015f840       ??0CycList@@QAE@XZ         10329840 f   CycConnection.obj
 0002:0015f890       ??1CycList@@QAE@XZ         10329890 f   CycConnection.obj
 0002:0015f900       ?toString@CycList@@QAE?AVidStr@@XZ 10329900 f   CycConnection.obj
 0002:0015fa60       ?size@CycList@@QAEHXZ      10329a60 f   CycConnection.obj
 0002:0015fbb0       ?cellN@CycList@@QAEPAU_cell@@H@Z 10329bb0 f   CycConnection.obj
 0002:0015fc50       ?cellN@CycList@@QAEPAU_cell@@HPAU2@@Z 10329c50 f   CycConnection.obj
 0002:0015fcf0       ?get@CycList@@QAEPAV1@H@Z  10329cf0 f   CycConnection.obj
 0002:0015fdf0       ?bindingLookupKey@CycList@@QAE?AVidStr@@H@Z 10329df0 f   CycConnection.obj
 0002:0015ff00       ?bindingLookupValue@CycList@@QAE?AVidStr@@H@Z 10329f00 f   CycConnection.obj
 0002:00160090       ?bindingDefinitionKey@CycList@@QAE?AVidStr@@H@Z 1032a090 f   CycConnection.obj
 0002:001601a0       ?bindingDefinitionValue@CycList@@QAE?AVidStr@@H@Z 1032a1a0 f   CycConnection.obj
 0002:00160440       ?bindingVariablesKey@CycList@@QAE?AVidStr@@HH@Z 1032a440 f   CycConnection.obj
 0002:001604f0       ?bindingVariablesValue@CycList@@QAE?AVidStr@@HH@Z 1032a4f0 f   CycConnection.obj
 0002:00160600       ?cellToString@CycList@@QAE?AVidStr@@PAU_cell@@@Z 1032a600 f   CycConnection.obj
 0002:00160750       ?paraphrase@CycList@@QAE?AVidStr@@XZ 1032a750 f   CycConnection.obj
 0002:00160950       ??0CycConnection@@QAE@XZ   1032a950 f   CycConnection.obj
 0002:00160a90       ??1CycConnection@@QAE@XZ   1032aa90 f   CycConnection.obj
 0002:00160b50       ?sockError@CycConnection@@QAEXPAD@Z 1032ab50 f   CycConnection.obj
 0002:00160c30       ?setConnection@CycConnection@@QAEXPBDH@Z 1032ac30 f   CycConnection.obj
 0002:00160ca0       ?OpenConnection@CycConnection@@QAEHXZ 1032aca0 f   CycConnection.obj
 0002:00160e90       ?CloseConnection@CycConnection@@QAEHXZ 1032ae90 f   CycConnection.obj
 0002:00160f40       ?isValidBinaryConnection@CycConnection@@QAE_NXZ 1032af40 f   CycConnection.obj
 0002:00160f80       ?connectionInfo@CycConnection@@QAE?AVidStr@@XZ 1032af80 f   CycConnection.obj
 0002:001610f0       ?SendCommand@CycConnection@@QAEHXZ 1032b0f0 f   CycConnection.obj
 0002:00161210       ?GetReply@CycConnection@@QAEXXZ 1032b210 f   CycConnection.obj
 0002:00161630       ??YidStr@@QAEAAV0@H@Z      1032b630 f i CycConnection.obj
 0002:001616f0       ?converseString@CycConnection@@QAE?AVidStr@@V2@@Z 1032b6f0 f   CycConnection.obj
 0002:00161820       ?converseList@CycConnection@@QAEPAVCycList@@VidStr@@@Z 1032b820 f   CycConnection.obj
 0002:001619a0       ?converseBoolean@CycConnection@@QAE_NVidStr@@@Z 1032b9a0 f   CycConnection.obj
 0002:00161c80       ?convertBoolean@CycConnection@@QAE?AVidStr@@V2@@Z 1032bc80 f   CycConnection.obj
 0002:00161ef0       ?sgetc@CycConnection@@QAEHXZ 1032bef0 f   CycConnection.obj
 0002:001621b0       ?sungetc@CycConnection@@QAEHH@Z 1032c1b0 f   CycConnection.obj
 0002:00162250       ?sputc@CycConnection@@QAEHH@Z 1032c250 f   CycConnection.obj
 0002:00162340       ?sgets@CycConnection@@QAEPADPADI@Z 1032c340 f   CycConnection.obj
 0002:00162410       ?sputs@CycConnection@@QAEHPBD@Z 1032c410 f   CycConnection.obj
 0002:00162500       ?serror@CycConnection@@QAEHXZ 1032c500 f   CycConnection.obj
 0002:00162550       ?seof@CycConnection@@QAEHXZ 1032c550 f   CycConnection.obj
 0002:001625a0       ?cha_getc@CycConnection@@QAEHXZ 1032c5a0 f   CycConnection.obj
 0002:00162690       ?cha_ungetc@CycConnection@@QAEHH@Z 1032c690 f   CycConnection.obj
 0002:001626f0       ?set_cha_getc_alone@CycConnection@@QAEXXZ 1032c6f0 f   CycConnection.obj
 0002:00162730       ?set_cha_getc_server@CycConnection@@QAEXXZ 1032c730 f   CycConnection.obj
 0002:00162770       ?error_in_lisp@CycConnection@@QAEPAU_cell@@XZ 1032c770 f   CycConnection.obj
 0002:001627b0       ?ifnextchar@CycConnection@@QAEHH@Z 1032c7b0 f   CycConnection.obj
 0002:001628b0       ?skip_comment@CycConnection@@QAEHXZ 1032c8b0 f   CycConnection.obj
 0002:00162960       ?s_feof@CycConnection@@QAEHXZ 1032c960 f   CycConnection.obj
 0002:00162a20       ?cell_malloc_free@CycConnection@@QAEPAU_cell@@H@Z 1032ca20 f   CycConnection.obj
 0002:00162a80       ?malloc_char@CycConnection@@QAEPAXH@Z 1032ca80 f   CycConnection.obj
 0002:00162ae0       ?lisp_strdup@CycConnection@@QAEPADPAD@Z 1032cae0 f   CycConnection.obj
 0002:00162b60       ?s_free@CycConnection@@QAEXPAU_cell@@@Z 1032cb60 f   CycConnection.obj
 0002:00162c30       ?tmp_atom@CycConnection@@QAEPAU_cell@@PAD@Z 1032cc30 f   CycConnection.obj
 0002:00162c90       ?cons@CycConnection@@QAEPAU_cell@@PAX0@Z 1032cc90 f   CycConnection.obj
 0002:00162d30       ?car@CycConnection@@QAEPAU_cell@@PAU2@@Z 1032cd30 f   CycConnection.obj
 0002:00162db0       ?cdr@CycConnection@@QAEPAU_cell@@PAU2@@Z 1032cdb0 f   CycConnection.obj
 0002:00162e30       ?s_atom@CycConnection@@QAEPADPAU_cell@@@Z 1032ce30 f   CycConnection.obj
 0002:00162ea0       ?equal@CycConnection@@QAEHPAX0@Z 1032cea0 f   CycConnection.obj
 0002:00162fd0       ?s_length@CycConnection@@QAEHPAU_cell@@@Z 1032cfd0 f   CycConnection.obj
 0002:00163040       ?dividing_code_p@CycConnection@@QAEHH@Z 1032d040 f   CycConnection.obj
 0002:00163120       ?myscanf@CycConnection@@QAEHPAD@Z 1032d120 f   CycConnection.obj
 0002:001632b0       ?s_read_atom@CycConnection@@QAEPAU_cell@@XZ 1032d2b0 f   CycConnection.obj
 0002:001633d0       ?s_read_car@CycConnection@@QAEPAU_cell@@XZ 1032d3d0 f   CycConnection.obj
 0002:001634f0       ?s_read_cdr@CycConnection@@QAEPAU_cell@@XZ 1032d4f0 f   CycConnection.obj
 0002:00163610       ?s_read_main@CycConnection@@QAEPAU_cell@@XZ 1032d610 f   CycConnection.obj
 0002:00163700       ?s_read@CycConnection@@QAEPAU_cell@@XZ 1032d700 f   CycConnection.obj
 0002:00163790       ?s_readResponse@CycConnection@@QAEPAU_cell@@XZ 1032d790 f   CycConnection.obj
 0002:00163850       ?assoc@CycConnection@@QAEPAU_cell@@PAU2@0@Z 1032d850 f   CycConnection.obj
 0002:00163900       ?s_print_cdr@CycConnection@@QAEPAU_cell@@PAU2@@Z 1032d900 f   CycConnection.obj
 0002:001639c0       ?s_print@CycConnection@@QAEPAU_cell@@PAU2@@Z 1032d9c0 f   CycConnection.obj
 0002:00163ac0       ?str_print_cdr@CycConnection@@QAEPAU_cell@@PAVidStr@@PAU2@@Z 1032dac0 f   CycConnection.obj
 0002:00163c70       ?str_print@CycConnection@@QAEPAU_cell@@PAVidStr@@PAU2@@Z 1032dc70 f   CycConnection.obj
 0002:00163f60       ??H@YA?AVidStr@@ABV0@D@Z   1032df60 f i CycConnection.obj
 0002:00164080       ?CreateInstance@botAi@@SAPAVidClass@@XZ 1032e080 f   BotAI.obj
 0002:001641b0       ?GetType@botAi@@UBEPAVidTypeInfo@@XZ 1032e1b0 f   BotAI.obj
 0002:001641f0       ??0botAi@@QAE@XZ           1032e1f0 f   BotAI.obj
 0002:00164620       ??_GbotAi@@UAEPAXI@Z       1032e620 f i BotAI.obj
 0002:00164620       ??_EbotAi@@UAEPAXI@Z       1032e620 f i BotAI.obj
 0002:00164690       ??1botAi@@UAE@XZ           1032e690 f   BotAI.obj
 0002:00164730       ?WriteUserCmdsToSnapshot@botAi@@SAXAAVidBitMsg@@@Z 1032e730 f   BotAI.obj
 0002:00164900       ?WriteChar@idBitMsg@@QAEXH@Z 1032e900 f i BotAI.obj
 0002:00164960       ?ReadUserCmdsFromSnapshot@botAi@@SAXABVidBitMsg@@@Z 1032e960 f   BotAI.obj
 0002:00164aa0       ?ReadChar@idBitMsg@@QBEHXZ 1032eaa0 f i BotAI.obj
 0002:00164b00       ?Addbot_f@botAi@@SAXABVidCmdArgs@@@Z 1032eb00 f   BotAI.obj
 0002:00165150       ?Init@botAi@@QAEXXZ        1032f150 f   BotAI.obj
 0002:00165760       ?Spawn@botAi@@QAEXXZ       1032f760 f   BotAI.obj
 0002:001658b0       ?Save@botAi@@QBEXPAVidSaveGame@@@Z 1032f8b0 f   BotAI.obj
 0002:00165cb0       ?Restore@botAi@@QAEXPAVidRestoreGame@@@Z 1032fcb0 f   BotAI.obj
 0002:00166040       ?PrepareForRestart@botAi@@QAEXXZ 10330040 f   BotAI.obj
 0002:00166090       ?Restart@botAi@@QAEXXZ     10330090 f   BotAI.obj
 0002:00166100       ?LinkScriptVariables@botAi@@QAEXXZ 10330100 f   BotAI.obj
 0002:00166520       ?Think@botAi@@UAEXXZ       10330520 f   BotAI.obj
 0002:00166560       ?GetBodyState@botAi@@QAEXXZ 10330560 f   BotAI.obj
 0002:00166760       ?UpdateViewAngles@botAi@@QAEXXZ 10330760 f   BotAI.obj
 0002:00166be0       ?UpdateUserCmd@botAi@@QAEXXZ 10330be0 f   BotAI.obj
 0002:00166e70       ?ShutdownThreads@botAi@@QAEXXZ 10330e70 f   BotAI.obj
 0002:00166f70       ?ConstructScriptObject@botAi@@UAEPAVidThread@@XZ 10330f70 f   BotAI.obj
 0002:001671a0       ?GetScriptFunction@botAi@@QAEPBVfunction_t@@PBD@Z 103311a0 f   BotAI.obj
 0002:00167250       ?SetState@botAi@@QAEXPBVfunction_t@@@Z 10331250 f   BotAI.obj
 0002:00167350       ?SetState@botAi@@QAEXPBD@Z 10331350 f   BotAI.obj
 0002:001673c0       ?UpdateScript@botAi@@QAEXXZ 103313c0 f   BotAI.obj
 0002:00167500       ?KickObstacles@botAi@@IAEXABVidVec3@@MPAVidEntity@@@Z 10331500 f   BotAI.obj
 0002:00167c10       ??DidVec2@@QBE?AV0@M@Z     10331c10 f i BotAI.obj
 0002:00167c90       ??YidVec2@@QAEAAV0@ABV0@@Z 10331c90 f i BotAI.obj
 0002:00167d00       ?TranslateSelf@idBounds@@QAEAAV1@ABVidVec3@@@Z 10331d00 f i BotAI.obj
 0002:00167d70       ?ValidForBounds@botAi@@IAE_NPBVidAASSettings@@ABVidBounds@@@Z 10331d70 f   BotAI.obj
 0002:00167e90       ?SetAAS@botAi@@IAEXXZ      10331e90 f   BotAI.obj
 0002:00168040       ?DrawRoute@botAi@@IBEXXZ   10332040 f   BotAI.obj
 0002:00168210       ?ReachedPos@botAi@@IBE_NABVidVec3@@W4moveCommand_t@@@Z 10332210 f   BotAI.obj
 0002:001684a0       ?PointReachableAreaNum@botAi@@IBEHABVidVec3@@M@Z 103324a0 f   BotAI.obj
 0002:00168690       ?PathToGoal@botAi@@IBE_NAAUaasPath_s@@HABVidVec3@@H1@Z 10332690 f   BotAI.obj
 0002:001688a0       ?TravelDistance@botAi@@IBEMABVidVec3@@0@Z 103328a0 f   BotAI.obj
 0002:00168da0       ?LengthFast@idVec2@@QBEMXZ 10332da0 f i BotAI.obj
 0002:00168e20       ??0aasPath_s@@QAE@XZ       10332e20 f i BotAI.obj
 0002:00168e90       ?StopMove@botAi@@IAEXW4moveStatus_t@@@Z 10332e90 f   BotAI.obj
 0002:00169090       ?SetMoveToEnemy@botAi@@IAE_NXZ 10333090 f   BotAI.obj
 0002:001694e0       ?SetMoveToEntity@botAi@@IAE_NPAVidEntity@@@Z 103334e0 f   BotAI.obj
 0002:00169980       ?SetMoveOutOfRange@botAi@@IAE_NPAVidEntity@@M@Z 10333980 f   BotAI.obj
 0002:00169e70       ??0aasObstacle_s@@QAE@XZ   10333e70 f i BotAI.obj
 0002:00169ed0       ??0aasGoal_s@@QAE@XZ       10333ed0 f i BotAI.obj
 0002:00169f30       ??1idAASFindAreaOutOfRange@@UAE@XZ 10333f30 f i BotAI.obj
 0002:00169f80       ??1idAASCallback@@UAE@XZ   10333f80 f i BotAI.obj
 0002:00169fc0       ??_EidAASCallback@@UAEPAXI@Z 10333fc0 f i BotAI.obj
 0002:00169fc0       ??_GidAASCallback@@UAEPAXI@Z 10333fc0 f i BotAI.obj
 0002:0016a030       ?SetMoveToAttackPosition@botAi@@IAE_NPAVidEntity@@H@Z 10334030 f   BotAI.obj
 0002:0016a510       ?SetMoveToPosition@botAi@@IAE_NABVidVec3@@@Z 10334510 f   BotAI.obj
 0002:0016a870       ?SetMoveToCover@botAi@@IAE_NPAVidEntity@@ABVidVec3@@@Z 10334870 f   BotAI.obj
 0002:0016acb0       ?WanderAround@botAi@@IAE_NXZ 10334cb0 f   BotAI.obj
 0002:0016ae70       ?MoveDone@botAi@@IBE_NXZ   10334e70 f   BotAI.obj
 0002:0016aec0       ?StepDirection@botAi@@IAE_NM@Z 10334ec0 f   BotAI.obj
 0002:0016b3f0       ?NewWanderDir@botAi@@IAE_NABVidVec3@@@Z 103353f0 f   BotAI.obj
 0002:0016b900       ?GetMovePos@botAi@@IAE_NAAVidVec3@@@Z 10335900 f   BotAI.obj
 0002:0016bf00       ?EntityCanSeePos@botAi@@IAE_NPAVidActor@@ABVidVec3@@1@Z 10335f00 f   BotAI.obj
 0002:0016c320       ?BlockedFailSafe@botAi@@IAEXXZ 10336320 f   BotAI.obj
 0002:0016c520       ?CheckObstacleAvoidance@botAi@@IAEXABVidVec3@@AAV2@@Z 10336520 f   BotAI.obj
 0002:0016cb60       ?GetMovePosition@botAi@@IAE?AVidVec3@@XZ 10336b60 f   BotAI.obj
 0002:0016d040       ?EnemyDead@botAi@@IAEXXZ   10337040 f   BotAI.obj
 0002:0016d0c0       ?GetEnemy@botAi@@IBEPAVidActor@@XZ 103370c0 f   BotAI.obj
 0002:0016d120       ?ClearEnemy@botAi@@IAEXXZ  10337120 f   BotAI.obj
 0002:0016d230       ?EnemyPositionValid@botAi@@IBE_NXZ 10337230 f   BotAI.obj
 0002:0016d3b0       ?SetEnemyPosition@botAi@@IAEXXZ 103373b0 f   BotAI.obj
 0002:0016d8e0       ?UpdateEnemyPosition@botAi@@IAEXXZ 103378e0 f   BotAI.obj
 0002:0016de60       ?SetEnemy@botAi@@IAEXPAVidActor@@@Z 10337e60 f   BotAI.obj
 0002:0016e0d0       ?Event_SetNextState@botAi@@AAEXPBD@Z 103380d0 f   BotAI.obj
 0002:0016e160       ?Event_SetState@botAi@@AAEXPBD@Z 10338160 f   BotAI.obj
 0002:0016e200       ?Event_GetState@botAi@@AAEXXZ 10338200 f   BotAI.obj
 0002:0016e290       ?Event_GetBody@botAi@@AAEXXZ 10338290 f   BotAI.obj
 0002:0016e2f0       ?Event_GetHealth@botAi@@AAEXPAVidEntity@@@Z 103382f0 f   BotAI.obj
 0002:0016e3b0       ?Event_GetArmor@botAi@@AAEXPAVidEntity@@@Z 103383b0 f   BotAI.obj
 0002:0016e470       ?Event_GetTeam@botAi@@AAEXPAVidEntity@@@Z 10338470 f   BotAI.obj
 0002:0016e530       ?Event_HasItem@botAi@@AAEXPBD@Z 10338530 f   BotAI.obj
 0002:0016e5c0       ?Event_HasAmmo@botAi@@AAEXPBD@Z 103385c0 f   BotAI.obj
 0002:0016e640       ?Event_NextBestWeapon@botAi@@AAEXXZ 10338640 f   BotAI.obj
 0002:0016e6a0       ?Event_SetAimPosition@botAi@@AAEXABVidVec3@@@Z 103386a0 f   BotAI.obj
 0002:0016e700       ?Event_GetAimPosition@botAi@@AAEXXZ 10338700 f   BotAI.obj
 0002:0016e760       ?Event_GetMovePosition@botAi@@AAEXXZ 10338760 f   BotAI.obj
 0002:0016e800       ?Event_CanSeeEntity@botAi@@AAEXPAVidEntity@@_N@Z 10338800 f   BotAI.obj
 0002:0016e890       ?Event_GetEyePosition@botAi@@AAEXXZ 10338890 f   BotAI.obj
 0002:0016e900       ?Event_GetAIAimTargets@botAi@@AAEXPAVidEntity@@M@Z 10338900 f   BotAI.obj
 0002:0016ea20       ?Event_FindEnemies@botAi@@AAEXH@Z 10338a20 f   BotAI.obj
 0002:0016ee60       ?Event_FindInRadius@botAi@@AAEXABVidVec3@@MPBD@Z 10338e60 f   BotAI.obj
 0002:0016f3a0       ?Event_FindItems@botAi@@AAEXXZ 103393a0 f   BotAI.obj
 0002:0016f4e0       ?Event_GetEntityList@botAi@@AAEXM@Z 103394e0 f   BotAI.obj
 0002:0016f590       ?Event_HeardSound@botAi@@AAEXH@Z 10339590 f   BotAI.obj
 0002:0016f780       ?Event_SetEnemy@botAi@@AAEXPAVidEntity@@@Z 10339780 f   BotAI.obj
 0002:0016f830       ?Event_ClearEnemy@botAi@@AAEXXZ 10339830 f   BotAI.obj
 0002:0016f880       ?Event_GetEnemy@botAi@@AAEXXZ 10339880 f   BotAI.obj
 0002:0016f8f0       ?Event_LocateEnemy@botAi@@AAEXXZ 103398f0 f   BotAI.obj
 0002:0016f9e0       ?Event_EnemyRange@botAi@@AAEXXZ 103399e0 f   BotAI.obj
 0002:0016faf0       ?Event_EnemyRange2D@botAi@@AAEXXZ 10339af0 f   BotAI.obj
 0002:0016fc10       ?Length@idVec2@@QBEMXZ     10339c10 f i BotAI.obj
 0002:0016fc90       ?Event_GetEnemyPos@botAi@@AAEXXZ 10339c90 f   BotAI.obj
 0002:0016fcf0       ?Event_GetEnemyEyePos@botAi@@AAEXXZ 10339cf0 f   BotAI.obj
 0002:0016fd70       ?Event_PredictEnemyPos@botAi@@AAEXM@Z 10339d70 f   BotAI.obj
 0002:0016ff20       ?Event_CanHitEnemy@botAi@@AAEXXZ 10339f20 f   BotAI.obj
 0002:001701e0       ?Event_EnemyPositionValid@botAi@@AAEXXZ 1033a1e0 f   BotAI.obj
 0002:00170250       ?Event_MoveStatus@botAi@@AAEXXZ 1033a250 f   BotAI.obj
 0002:001702b0       ?Event_StopMove@botAi@@AAEXXZ 1033a2b0 f   BotAI.obj
 0002:00170310       ?Event_SaveMove@botAi@@AAEXXZ 1033a310 f   BotAI.obj
 0002:00170380       ??4idMoveState@@QAEAAV0@ABV0@@Z 1033a380 f i BotAI.obj
 0002:00170510       ?Event_RestoreMove@botAi@@AAEXXZ 1033a510 f   BotAI.obj
 0002:00170720       ?Event_SetMoveToCover@botAi@@AAEXXZ 1033a720 f   BotAI.obj
 0002:001707b0       ?Event_SetMoveToEnemy@botAi@@AAEXXZ 1033a7b0 f   BotAI.obj
 0002:00170830       ?Event_SetMoveOutOfRange@botAi@@AAEXPAVidEntity@@M@Z 1033a830 f   BotAI.obj
 0002:001708a0       ?Event_SetMoveToEntity@botAi@@AAEXPAVidEntity@@@Z 1033a8a0 f   BotAI.obj
 0002:00170910       ?Event_SetMoveToPosition@botAi@@AAEXABVidVec3@@@Z 1033a910 f   BotAI.obj
 0002:00170980       ?Event_SetMoveWander@botAi@@AAEXXZ 1033a980 f   BotAI.obj
 0002:001709d0       ?Event_CanReachPosition@botAi@@AAEXABVidVec3@@@Z 1033a9d0 f   BotAI.obj
 0002:00170b30       ?Event_CanReachEntity@botAi@@AAEXPAVidEntity@@@Z 1033ab30 f   BotAI.obj
 0002:00170d90       ?Event_CanReachEnemy@botAi@@AAEXXZ 1033ad90 f   BotAI.obj
 0002:00171010       ?Event_GetReachableEntityPosition@botAi@@AAEXPAVidEntity@@@Z 1033b010 f   BotAI.obj
 0002:00171180       ?Event_TravelDistanceToPoint@botAi@@AAEXABVidVec3@@@Z 1033b180 f   BotAI.obj
 0002:00171220       ?Event_TravelDistanceToEntity@botAi@@AAEXPAVidEntity@@@Z 1033b220 f   BotAI.obj
 0002:001712f0       ?Event_TravelDistanceBetweenPoints@botAi@@AAEXABVidVec3@@0@Z 1033b2f0 f   BotAI.obj
 0002:00171360       ?Event_TravelDistanceBetweenEntities@botAi@@AAEXPAVidEntity@@0@Z 1033b360 f   BotAI.obj
 0002:001714a0       ?Event_Acos@botAi@@AAEXM@Z 1033b4a0 f   BotAI.obj
 0002:00171500       ?Event_GetClassName@botAi@@AAEXPAVidEntity@@@Z 1033b500 f   BotAI.obj
 0002:00171570       ?Event_GetClassType@botAi@@AAEXPAVidEntity@@@Z 1033b570 f   BotAI.obj
 0002:001715d0       ??0botNetworkSystem@@QAE@PAVidNetworkSystem@@@Z 1033b5d0 f   BotNetwork.obj
 0002:00171620       ?ClientGetIncomingPacketLoss@botNetworkSystem@@QAEMXZ 1033b620 f   BotNetwork.obj
 0002:00171690       ?ClientGetIncomingRate@botNetworkSystem@@QAEHXZ 1033b690 f   BotNetwork.obj
 0002:00171700       ?ClientGetPrediction@botNetworkSystem@@QAEHXZ 1033b700 f   BotNetwork.obj
 0002:00171770       ?ClientGetTimeSinceLastPacket@botNetworkSystem@@QAEHXZ 1033b770 f   BotNetwork.obj
 0002:001717e0       ?ClientGetOutgoingRate@botNetworkSystem@@QAEHXZ 1033b7e0 f   BotNetwork.obj
 0002:00171850       ?ServerGetClientIncomingPacketLoss@botNetworkSystem@@QAEMH@Z 1033b850 f   BotNetwork.obj
 0002:001718d0       ?ServerGetClientIncomingRate@botNetworkSystem@@QAEHH@Z 1033b8d0 f   BotNetwork.obj
 0002:00171950       ?ServerGetClientOutgoingRate@botNetworkSystem@@QAEHH@Z 1033b950 f   BotNetwork.obj
 0002:001719d0       ?ServerGetClientPing@botNetworkSystem@@QAEHH@Z 1033b9d0 f   BotNetwork.obj
 0002:00171a50       ?ServerGetClientTimeSinceLastInput@botNetworkSystem@@QAEHH@Z 1033ba50 f   BotNetwork.obj
 0002:00171ad0       ?ServerGetClientTimeSinceLastPacket@botNetworkSystem@@QAEHH@Z 1033bad0 f   BotNetwork.obj
 0002:00171b50       ?ServerGetClientPrediction@botNetworkSystem@@QAEHH@Z 1033bb50 f   BotNetwork.obj
 0002:00171bd0       ?ServerSendReliableMessage@botNetworkSystem@@QAEXHABVidBitMsg@@@Z 1033bbd0 f   BotNetwork.obj
 0002:00171c50       ?ServerSendReliableMessageExcluding@botNetworkSystem@@QAEXHABVidBitMsg@@@Z 1033bc50 f   BotNetwork.obj
 0002:00171cd0       ?ClientSendReliableMessage@botNetworkSystem@@QAEXABVidBitMsg@@@Z 1033bcd0 f   BotNetwork.obj
 0002:00171d40       ?CreateInstance@botSabot@@SAPAVidClass@@XZ 1033bd40 f   BotSabot.obj
 0002:00171e70       ?GetType@botSabot@@UBEPAVidTypeInfo@@XZ 1033be70 f   BotSabot.obj
 0002:00171eb0       ??0botSabot@@QAE@XZ        1033beb0 f   BotSabot.obj
 0002:00171f10       ??_EbotSabot@@UAEPAXI@Z    1033bf10 f i BotSabot.obj
 0002:00171f10       ??_GbotSabot@@UAEPAXI@Z    1033bf10 f i BotSabot.obj
 0002:00171f80       ??1botSabot@@UAE@XZ        1033bf80 f   BotSabot.obj
 0002:00171fe0       ?Think@botSabot@@UAEXXZ    1033bfe0 f   BotSabot.obj
 0002:00172140       ?Alloc@idAAS@@SAPAV1@XZ    1033c140 f   AAS.obj
 0002:00172210       ??1idAAS@@UAE@XZ           1033c210 f   AAS.obj
 0002:00172250       ??0idAASLocal@@QAE@XZ      1033c250 f   AAS.obj
 0002:00172320       ??_GidAASLocal@@UAEPAXI@Z  1033c320 f i AAS.obj
 0002:00172320       ??_EidAASLocal@@UAEPAXI@Z  1033c320 f i AAS.obj
 0002:00172390       ??0idAAS@@QAE@XZ           1033c390 f i AAS.obj
 0002:001723e0       ??1idAASLocal@@UAE@XZ      1033c3e0 f   AAS.obj
 0002:001724b0       ?Init@idAASLocal@@UAE_NABVidStr@@I@Z 1033c4b0 f   AAS.obj
 0002:00172640       ?GetName@idAASFile@@QBEPBDXZ 1033c640 f i AAS.obj
 0002:001726a0       ?GetCRC@idAASFile@@QBEIXZ  1033c6a0 f i AAS.obj
 0002:001726e0       ?Shutdown@idAASLocal@@UAEXXZ 1033c6e0 f   AAS.obj
 0002:00172790       ?Stats@idAASLocal@@UBEXXZ  1033c790 f   AAS.obj
 0002:00172850       ?GetSettings@idAASLocal@@UBEPBVidAASSettings@@XZ 1033c850 f   AAS.obj
 0002:001728c0       ?GetSettings@idAASFile@@QBEABVidAASSettings@@XZ 1033c8c0 f i AAS.obj
 0002:00172900       ?PointAreaNum@idAASLocal@@UBEHABVidVec3@@@Z 1033c900 f   AAS.obj
 0002:00172980       ?PointReachableAreaNum@idAASLocal@@UBEHABVidVec3@@ABVidBounds@@H@Z 1033c980 f   AAS.obj
 0002:00172a10       ?BoundsReachableAreaNum@idAASLocal@@UBEHABVidBounds@@H@Z 1033ca10 f   AAS.obj
 0002:00172aa0       ?PushPointIntoAreaNum@idAASLocal@@UBEXHAAVidVec3@@@Z 1033caa0 f   AAS.obj
 0002:00172b20       ?AreaCenter@idAASLocal@@UBE?AVidVec3@@H@Z 1033cb20 f   AAS.obj
 0002:00172bd0       ?GetArea@idAASFile@@QAEABUaasArea_s@@H@Z 1033cbd0 f i AAS.obj
 0002:00172c30       ?AreaFlags@idAASLocal@@UBEHH@Z 1033cc30 f   AAS.obj
 0002:00172ca0       ?AreaTravelFlags@idAASLocal@@UBEHH@Z 1033cca0 f   AAS.obj
 0002:00172d10       ?Trace@idAASLocal@@UBE_NAAUaasTrace_s@@ABVidVec3@@1@Z 1033cd10 f   AAS.obj
 0002:00172dc0       ?GetPlane@idAASLocal@@UBEABVidPlane@@H@Z 1033cdc0 f   AAS.obj
 0002:00172e90       ?GetPlane@idAASFile@@QBEABVidPlane@@H@Z 1033ce90 f i AAS.obj
 0002:00172ef0       ?GetEdgeVertexNumbers@idAASLocal@@UBEXHQAH@Z 1033cef0 f   AAS.obj
 0002:00172fb0       ?GetEdge@idAASFile@@QBEABUaasEdge_s@@H@Z 1033cfb0 f i AAS.obj
 0002:00173010       ?GetEdge@idAASLocal@@UBEXHAAVidVec3@@0@Z 1033d010 f   AAS.obj
 0002:001730f0       ?GetVertex@idAASFile@@QBEABVidVec3@@H@Z 1033d0f0 f i AAS.obj
 0002:00173150       ??A?$idList@VidPlane@@@@QBEABVidPlane@@H@Z 1033d150 f i AAS.obj
 0002:00173210       ??A?$idList@UaasEdge_s@@@@QBEABUaasEdge_s@@H@Z 1033d210 f i AAS.obj
 0002:001732d0       ??A?$idList@UaasArea_s@@@@QAEAAUaasArea_s@@H@Z 1033d2d0 f i AAS.obj
 0002:00173390       ??0?$idList@PAVidRoutingObstacle@@@@QAE@H@Z 1033d390 f i AAS.obj
 0002:00173430       ??1?$idList@PAVidRoutingObstacle@@@@QAE@XZ 1033d430 f i AAS.obj
 0002:00173480       ?Clear@?$idList@PAVidRoutingObstacle@@@@QAEXXZ 1033d480 f i AAS.obj
 0002:00173520       ?DrawCone@idAASLocal@@ABEXABVidVec3@@0MABVidVec4@@@Z 1033d520 f   AAS_debug.obj
 0002:00173910       ?DrawReachability@idAASLocal@@ABEXPBVidReachability@@@Z 1033d910 f   AAS_debug.obj
 0002:00173a70       ?DrawEdge@idAASLocal@@ABEXH_N@Z 1033da70 f   AAS_debug.obj
 0002:00173cb0       ?DrawFace@idAASLocal@@ABEXH_N@Z 1033dcb0 f   AAS_debug.obj
 0002:00173fd0       ?GetEdgeIndex@idAASFile@@QBEABHH@Z 1033dfd0 f i AAS_debug.obj
 0002:00174030       ?GetFace@idAASFile@@QBEABUaasFace_s@@H@Z 1033e030 f i AAS_debug.obj
 0002:00174090       ?DrawArea@idAASLocal@@ABEXH@Z 1033e090 f   AAS_debug.obj
 0002:001741c0       ?GetFaceIndex@idAASFile@@QBEABHH@Z 1033e1c0 f i AAS_debug.obj
 0002:00174220       ?DefaultSearchBounds@idAASLocal@@ABEABVidBounds@@XZ 1033e220 f   AAS_debug.obj
 0002:00174280       ?ShowArea@idAASLocal@@ABEXABVidVec3@@@Z 1033e280 f   AAS_debug.obj
 0002:00174660       ?ShowWalkPath@idAASLocal@@UBEXABVidVec3@@H0@Z 1033e660 f   AAS_debug.obj
 0002:00174970       ?ShowFlyPath@idAASLocal@@UBEXABVidVec3@@H0@Z 1033e970 f   AAS_debug.obj
 0002:00174c80       ?ShowWallEdges@idAASLocal@@ABEXABVidVec3@@@Z 1033ec80 f   AAS_debug.obj
 0002:00174f50       ?ShowHideArea@idAASLocal@@ABEXABVidVec3@@H@Z 1033ef50 f   AAS_debug.obj
 0002:00175260       ?PullPlayer@idAASLocal@@ABE_NABVidVec3@@H@Z 1033f260 f   AAS_debug.obj
 0002:001756c0       ?RandomPullPlayer@idAASLocal@@ABEXABVidVec3@@@Z 1033f6c0 f   AAS_debug.obj
 0002:00175860       ?GetNumAreas@idAASFile@@QBEHXZ 1033f860 f i AAS_debug.obj
 0002:001758c0       ?ShowPushIntoArea@idAASLocal@@ABEXABVidVec3@@@Z 1033f8c0 f   AAS_debug.obj
 0002:001759f0       ?Test@idAASLocal@@UAEXABVidVec3@@@Z 1033f9f0 f   AAS_debug.obj
 0002:00175d00       ??A?$idList@UaasFace_s@@@@QBEABUaasFace_s@@H@Z 1033fd00 f i AAS_debug.obj
 0002:00175dc0       ?Num@?$idList@UaasArea_s@@@@QBEHXZ 1033fdc0 f i AAS_debug.obj
 0002:00175e00       ?EdgeSplitPoint@idAASLocal@@ABE_NAAVidVec3@@HABVidPlane@@@Z 1033fe00 f   AAS_pathing.obj
 0002:00175ff0       ?Dist@idPlane@@QBEMXZ      1033fff0 f i AAS_pathing.obj
 0002:00176030       ?FloorEdgeSplitPoint@idAASLocal@@ABE_NAAVidVec3@@HABVidPlane@@1_N@Z 10340030 f   AAS_pathing.obj
 0002:001762f0       ?WalkPathValid@idAASLocal@@UBE_NHABVidVec3@@H0HAAV2@AAH@Z 103402f0 f   AAS_pathing.obj
 0002:00176960       ?Normalize@idPlane@@QAEM_N@Z 10340960 f i AAS_pathing.obj
 0002:001769d0       ?FixDegenerateNormal@idPlane@@QAE_NXZ 103409d0 f i AAS_pathing.obj
 0002:00176a30       ?SubSampleWalkPath@idAASLocal@@ABE?AVidVec3@@HABV2@00HAAH@Z 10340a30 f   AAS_pathing.obj
 0002:00176cf0       ?WalkPathToGoal@idAASLocal@@UBE_NAAUaasPath_s@@HABVidVec3@@H1H@Z 10340cf0 f   AAS_pathing.obj
 0002:00177560       ?FlyPathValid@idAASLocal@@UBE_NHABVidVec3@@H0HAAV2@AAH@Z 10341560 f   AAS_pathing.obj
 0002:00177680       ??0aasTrace_s@@QAE@XZ      10341680 f i AAS_pathing.obj
 0002:00177720       ?SubSampleFlyPath@idAASLocal@@ABE?AVidVec3@@HABV2@00HAAH@Z 10341720 f   AAS_pathing.obj
 0002:001779e0       ?FlyPathToGoal@idAASLocal@@UBE_NAAUaasPath_s@@HABVidVec3@@H1H@Z 103419e0 f   AAS_pathing.obj
 0002:00177f70       ?SortWallEdges@idAASLocal@@UBEXPAHH@Z 10341f70 f   AAS_pathing.obj
 0002:001782d0       ?GetWallEdges@idAASLocal@@UBEHHABVidBounds@@HPAHH@Z 103422d0 f   AAS_pathing.obj
 0002:00178870       ??0idRoutingCache@@QAE@H@Z 10342870 f   AAS_routing.obj
 0002:001789c0       ??1idRoutingCache@@QAE@XZ  103429c0 f   AAS_routing.obj
 0002:00178a50       ?Size@idRoutingCache@@QBEHXZ 10342a50 f   AAS_routing.obj
 0002:00178aa0       ?AreaTravelTime@idAASLocal@@ABEGHABVidVec3@@0@Z 10342aa0 f   AAS_routing.obj
 0002:00178bb0       ?CalculateAreaTravelTimes@idAASLocal@@AAEXXZ 10342bb0 f   AAS_routing.obj
 0002:00178f90       ?SetPortalMaxTravelTime@idAASFile@@QAEXHH@Z 10342f90 f i AAS_routing.obj
 0002:00179000       ?DeleteAreaTravelTimes@idAASLocal@@AAEXXZ 10343000 f   AAS_routing.obj
 0002:00179070       ?SetupRoutingCache@idAASLocal@@AAEXXZ 10343070 f   AAS_routing.obj
 0002:00179290       ?GetNumPortals@idAASFile@@QBEHXZ 10343290 f i AAS_routing.obj
 0002:001792f0       ?GetNumClusters@idAASFile@@QBEHXZ 103432f0 f i AAS_routing.obj
 0002:00179350       ?GetCluster@idAASFile@@QBEABUaasCluster_s@@H@Z 10343350 f i AAS_routing.obj
 0002:001793b0       ?DeleteClusterCache@idAASLocal@@AAEXH@Z 103433b0 f   AAS_routing.obj
 0002:001794f0       ??_GidRoutingCache@@QAEPAXI@Z 103434f0 f i AAS_routing.obj
 0002:00179560       ?DeletePortalCache@idAASLocal@@AAEXXZ 10343560 f   AAS_routing.obj
 0002:00179680       ?ShutdownRoutingCache@idAASLocal@@AAEXXZ 10343680 f   AAS_routing.obj
 0002:001797f0       ?SetupRouting@idAASLocal@@AAE_NXZ 103437f0 f   AAS_routing.obj
 0002:00179850       ?ShutdownRouting@idAASLocal@@AAEXXZ 10343850 f   AAS_routing.obj
 0002:001798b0       ?RoutingStats@idAASLocal@@ABEXXZ 103438b0 f   AAS_routing.obj
 0002:00179a90       ?RemoveRoutingCacheUsingArea@idAASLocal@@AAEXH@Z 10343a90 f   AAS_routing.obj
 0002:00179b60       ?GetPortal@idAASFile@@QAEABUaasPortal_s@@H@Z 10343b60 f i AAS_routing.obj
 0002:00179bc0       ?DisableArea@idAASLocal@@AAEXH@Z 10343bc0 f   AAS_routing.obj
 0002:00179c90       ?SetAreaTravelFlag@idAASFile@@QAEXHH@Z 10343c90 f i AAS_routing.obj
 0002:00179d10       ?EnableArea@idAASLocal@@AAEXH@Z 10343d10 f   AAS_routing.obj
 0002:00179de0       ?RemoveAreaTravelFlag@idAASFile@@QAEXHH@Z 10343de0 f i AAS_routing.obj
 0002:00179e70       ?SetAreaState_r@idAASLocal@@AAE_NHABVidBounds@@H_N@Z 10343e70 f   AAS_routing.obj
 0002:00179ff0       ?GetNode@idAASFile@@QBEABUaasNode_s@@H@Z 10343ff0 f i AAS_routing.obj
 0002:0017a050       ?SetAreaState@idAASLocal@@UAE_NABVidBounds@@H_N@Z 10344050 f   AAS_routing.obj
 0002:0017a1b0       ?GetBoundsAreas_r@idAASLocal@@ABEXHABVidBounds@@AAV?$idList@H@@@Z 103441b0 f   AAS_routing.obj
 0002:0017a2d0       ?SetObstacleState@idAASLocal@@AAEXPBVidRoutingObstacle@@_N@Z 103442d0 f   AAS_routing.obj
 0002:0017a4c0       ?AddObstacle@idAASLocal@@UAEHABVidBounds@@@Z 103444c0 f   AAS_routing.obj
 0002:0017a6f0       ??0idRoutingObstacle@@AAE@XZ 103446f0 f i AAS_routing.obj
 0002:0017a760       ?RemoveObstacle@idAASLocal@@UAEXH@Z 10344760 f   AAS_routing.obj
 0002:0017a870       ??_GidRoutingObstacle@@QAEPAXI@Z 10344870 f i AAS_routing.obj
 0002:0017a8e0       ??1idRoutingObstacle@@QAE@XZ 103448e0 f i AAS_routing.obj
 0002:0017a940       ?RemoveAllObstacles@idAASLocal@@UAEXXZ 10344940 f   AAS_routing.obj
 0002:0017aa60       ?LinkCache@idAASLocal@@ABEXPAVidRoutingCache@@@Z 10344a60 f   AAS_routing.obj
 0002:0017ab50       ?UnlinkCache@idAASLocal@@ABEXPAVidRoutingCache@@@Z 10344b50 f   AAS_routing.obj
 0002:0017ac30       ?DeleteOldestCache@idAASLocal@@ABEXXZ 10344c30 f   AAS_routing.obj
 0002:0017adc0       ?GetAreaReachability@idAASLocal@@ABEPAVidReachability@@HH@Z 10344dc0 f   AAS_routing.obj
 0002:0017ae50       ?ClusterAreaNum@idAASLocal@@ABEHHH@Z 10344e50 f i AAS_routing.obj
 0002:0017af20       ?UpdateAreaRoutingCache@idAASLocal@@ABEXPAVidRoutingCache@@@Z 10344f20 f   AAS_routing.obj
 0002:0017b460       ?GetAreaRoutingCache@idAASLocal@@ABEPAVidRoutingCache@@HHH@Z 10345460 f   AAS_routing.obj
 0002:0017b670       ?UpdatePortalRoutingCache@idAASLocal@@ABEXPAVidRoutingCache@@@Z 10345670 f   AAS_routing.obj
 0002:0017ba20       ?GetPortalIndex@idAASFile@@QBEABHH@Z 10345a20 f i AAS_routing.obj
 0002:0017ba80       ?GetPortalRoutingCache@idAASLocal@@ABEPAVidRoutingCache@@HHH@Z 10345a80 f   AAS_routing.obj
 0002:0017bc70       ?RouteToGoalArea@idAASLocal@@UBE_NHVidVec3@@HHAAHPAPAVidReachability@@@Z 10345c70 f   AAS_routing.obj
 0002:0017c2d0       ?TravelTimeToGoalArea@idAASLocal@@UBEHHABVidVec3@@HH@Z 103462d0 f   AAS_routing.obj
 0002:0017c3e0       ?FindNearestGoal@idAASLocal@@UBE_NAAUaasGoal_s@@HVidVec3@@ABV3@HPAUaasObstacle_s@@HAAVidAASCallback@@@Z 103463e0 f   AAS_routing.obj
 0002:0017ce90       ??A?$idList@UaasNode_s@@@@QBEABUaasNode_s@@H@Z 10346e90 f i AAS_routing.obj
 0002:0017cf50       ?Num@?$idList@UaasPortal_s@@@@QBEHXZ 10346f50 f i AAS_routing.obj
 0002:0017cf90       ??A?$idList@UaasPortal_s@@@@QAEAAUaasPortal_s@@H@Z 10346f90 f i AAS_routing.obj
 0002:0017d050       ?Num@?$idList@UaasCluster_s@@@@QBEHXZ 10347050 f i AAS_routing.obj
 0002:0017d090       ??A?$idList@UaasCluster_s@@@@QBEABUaasCluster_s@@H@Z 10347090 f i AAS_routing.obj
 0002:0017d150       ?Num@?$idList@PAVidRoutingObstacle@@@@QBEHXZ 10347150 f i AAS_routing.obj
 0002:0017d190       ??A?$idList@PAVidRoutingObstacle@@@@QAEAAPAVidRoutingObstacle@@H@Z 10347190 f i AAS_routing.obj
 0002:0017d250       ?Append@?$idList@PAVidRoutingObstacle@@@@QAEHABQAVidRoutingObstacle@@@Z 10347250 f i AAS_routing.obj
 0002:0017d340       ?RemoveIndex@?$idList@PAVidRoutingObstacle@@@@QAE_NH@Z 10347340 f i AAS_routing.obj
 0002:0017d490       ?Resize@?$idList@PAVidRoutingObstacle@@@@QAEXH@Z 10347490 f i AAS_routing.obj
 0002:0017d600       ??0idMoveState@@QAE@XZ     10347600 f   AI.obj
 0002:0017d7b0       ?Save@idMoveState@@QBEXPAVidSaveGame@@@Z 103477b0 f   AI.obj
 0002:0017d960       ?Restore@idMoveState@@QAEXPAVidRestoreGame@@@Z 10347960 f   AI.obj
 0002:0017db10       ??0idAASFindCover@@QAE@ABVidVec3@@@Z 10347b10 f   AI.obj
 0002:0017dcb0       ??_EidAASFindCover@@UAEPAXI@Z 10347cb0 f i AI.obj
 0002:0017dcb0       ??_GidAASFindCover@@UAEPAXI@Z 10347cb0 f i AI.obj
 0002:0017dd20       ??0idAASCallback@@QAE@XZ   10347d20 f i AI.obj
 0002:0017dd70       ??1idAASFindCover@@UAE@XZ  10347d70 f   AI.obj
 0002:0017de20       ?TestArea@idAASFindCover@@UAE_NPBVidAAS@@H@Z 10347e20 f   AI.obj
 0002:0017dfb0       ??0idAASFindAreaOutOfRange@@QAE@ABVidVec3@@M@Z 10347fb0 f   AI.obj
 0002:0017e080       ??_EidAASFindAreaOutOfRange@@UAEPAXI@Z 10348080 f i AI.obj
 0002:0017e080       ??_GidAASFindAreaOutOfRange@@UAEPAXI@Z 10348080 f i AI.obj
 0002:0017e0f0       ?TestArea@idAASFindAreaOutOfRange@@UAE_NPBVidAAS@@H@Z 103480f0 f   AI.obj
 0002:0017e2a0       ??0idAASFindAttackPosition@@QAE@PBVidAI@@ABVidMat3@@PAVidEntity@@ABVidVec3@@3@Z 103482a0 f   AI.obj
 0002:0017e570       ??_EidAASFindAttackPosition@@UAEPAXI@Z 10348570 f i AI.obj
 0002:0017e570       ??_GidAASFindAttackPosition@@UAEPAXI@Z 10348570 f i AI.obj
 0002:0017e5e0       ??1idAASFindAttackPosition@@UAE@XZ 103485e0 f   AI.obj
 0002:0017e690       ?TestArea@idAASFindAttackPosition@@UAE_NPBVidAAS@@H@Z 10348690 f   AI.obj
 0002:0017e9d0       ?Normalize@idVec2@@QAEMXZ  103489d0 f i AI.obj
 0002:0017ea80       ??0idAI@@QAE@XZ            10348a80 f   AI.obj
 0002:0017f450       ??_GidAI@@UAEPAXI@Z        10349450 f i AI.obj
 0002:0017f450       ??_EidAI@@UAEPAXI@Z        10349450 f i AI.obj
 0002:0017f4c0       ??1idPhysics_Monster@@UAE@XZ 103494c0 f i AI.obj
 0002:0017f510       ??1idAI@@UAE@XZ            10349510 f   AI.obj
 0002:0017f700       ?Save@idAI@@QBEXPAVidSaveGame@@@Z 10349700 f   AI.obj
 0002:00180160       ?Restore@idAI@@QAEXPAVidRestoreGame@@@Z 1034a160 f   AI.obj
 0002:00180d30       ?Spawn@idAI@@QAEXXZ        1034ad30 f   AI.obj
 0002:00182260       ?InitMuzzleFlash@idAI@@IAEXXZ 1034c260 f   AI.obj
 0002:001824d0       ?List_f@idAI@@SAXABVidCmdArgs@@@Z 1034c4d0 f   AI.obj
 0002:00182660       ?DormantBegin@idAI@@MAEXXZ 1034c660 f   AI.obj
 0002:00182750       ?DormantEnd@idAI@@MAEXXZ   1034c750 f   AI.obj
 0002:00182870       ?Think@idAI@@MAEXXZ        1034c870 f   AI.obj
 0002:00182d10       ?LinkScriptVariables@idAI@@IAEXXZ 1034cd10 f   AI.obj
 0002:00182fd0       ?UpdateAIScript@idAI@@IAEXXZ 1034cfd0 f   AI.obj
 0002:00183080       ?KickObstacles@idAI@@IAEXABVidVec3@@MPAVidEntity@@@Z 1034d080 f   AI.obj
 0002:00183770       ?ValidForBounds@@YA_NPBVidAASSettings@@ABVidBounds@@@Z 1034d770 f   AI.obj
 0002:00183890       ?SetAAS@idAI@@IAEXXZ       1034d890 f   AI.obj
 0002:00183ae0       ?DrawRoute@idAI@@IBEXXZ    1034dae0 f   AI.obj
 0002:00183ca0       ?ReachedPos@idAI@@IBE_NABVidVec3@@W4moveCommand_t@@@Z 1034dca0 f   AI.obj
 0002:00183f20       ?PointReachableAreaNum@idAI@@IBEHABVidVec3@@M@Z 1034df20 f   AI.obj
 0002:00184110       ?PathToGoal@idAI@@IBE_NAAUaasPath_s@@HABVidVec3@@H1@Z 1034e110 f   AI.obj
 0002:00184320       ?TravelDistance@idAI@@IBEMABVidVec3@@0@Z 1034e320 f   AI.obj
 0002:00184820       ?StopMove@idAI@@IAEXW4moveStatus_t@@@Z 1034e820 f   AI.obj
 0002:00184a40       ?FaceEnemy@idAI@@IAE_NXZ   1034ea40 f   AI.obj
 0002:00184be0       ?FaceEntity@idAI@@IAE_NPAVidEntity@@@Z 1034ebe0 f   AI.obj
 0002:00184df0       ?DirectMoveToPosition@idAI@@IAE_NABVidVec3@@@Z 1034edf0 f   AI.obj
 0002:00185030       ?MoveToEnemyHeight@idAI@@IAE_NXZ 1034f030 f   AI.obj
 0002:001851c0       ?MoveToEnemy@idAI@@IAE_NXZ 1034f1c0 f   AI.obj
 0002:00185640       ?MoveToEntity@idAI@@IAE_NPAVidEntity@@@Z 1034f640 f   AI.obj
 0002:00185b20       ?MoveOutOfRange@idAI@@IAE_NPAVidEntity@@M@Z 1034fb20 f   AI.obj
 0002:00186050       ?MoveToAttackPosition@idAI@@IAE_NPAVidEntity@@H@Z 10350050 f   AI.obj
 0002:00186550       ?MoveToPosition@idAI@@IAE_NABVidVec3@@@Z 10350550 f   AI.obj
 0002:001868f0       ?MoveToCover@idAI@@IAE_NPAVidEntity@@ABVidVec3@@@Z 103508f0 f   AI.obj
 0002:00186d70       ?SlideToPosition@idAI@@IAE_NABVidVec3@@M@Z 10350d70 f   AI.obj
 0002:00186fa0       ?WanderAround@idAI@@IAE_NXZ 10350fa0 f   AI.obj
 0002:00187190       ?MoveDone@idAI@@IBE_NXZ    10351190 f   AI.obj
 0002:001871e0       ?StepDirection@idAI@@IAE_NM@Z 103511e0 f   AI.obj
 0002:001876e0       ?NewWanderDir@idAI@@IAE_NABVidVec3@@@Z 103516e0 f   AI.obj
 0002:00187be0       ?GetMovePos@idAI@@IAE_NAAVidVec3@@@Z 10351be0 f   AI.obj
 0002:001881d0       ?EntityCanSeePos@idAI@@IAE_NPAVidActor@@ABVidVec3@@1@Z 103521d0 f   AI.obj
 0002:001885d0       ?BlockedFailSafe@idAI@@IAEXXZ 103525d0 f   AI.obj
 0002:001887d0       ?Turn@idAI@@IAEXXZ         103527d0 f   AI.obj
 0002:00188f00       ?FacingIdeal@idAI@@IAE_NXZ 10352f00 f   AI.obj
 0002:00188fd0       ?TurnToward@idAI@@IAE_NM@Z 10352fd0 f   AI.obj
 0002:00189050       ?TurnToward@idAI@@IAE_NABVidVec3@@@Z 10353050 f   AI.obj
 0002:00189210       ?ApplyImpulse@idAI@@MAEXPAVidEntity@@HABVidVec3@@1@Z 10353210 f   AI.obj
 0002:001892a0       ?GetMoveDelta@idAI@@IAEXABVidMat3@@0AAVidVec3@@@Z 103532a0 f   AI.obj
 0002:00189470       ?CheckObstacleAvoidance@idAI@@IAEXABVidVec3@@AAV2@@Z 10353470 f   AI.obj
 0002:00189aa0       ?DeadMove@idAI@@IAEXXZ     10353aa0 f   AI.obj
 0002:00189c10       ?AnimMove@idAI@@IAEXXZ     10353c10 f   AI.obj
 0002:0018a5c0       ?Seek@@YA?AVidVec3@@AAV1@ABV1@1M@Z 103545c0 f   AI.obj
 0002:0018a740       ?SlideMove@idAI@@IAEXXZ    10354740 f   AI.obj
 0002:0018b310       ?Truncate@idVec3@@QAEAAV1@M@Z 10355310 f i AI.obj
 0002:0018b3f0       ?AdjustFlyingAngles@idAI@@IAEXXZ 103553f0 f   AI.obj
 0002:0018b730       ?AddFlyBob@idAI@@IAEXAAVidVec3@@@Z 10355730 f   AI.obj
 0002:0018b9a0       ?AdjustFlyHeight@idAI@@IAEXAAVidVec3@@ABV2@@Z 103559a0 f   AI.obj
 0002:0018bd90       ?FlySeekGoal@idAI@@IAEXAAVidVec3@@0@Z 10355d90 f   AI.obj
 0002:0018bea0       ?AdjustFlySpeed@idAI@@IAEXAAVidVec3@@@Z 10355ea0 f   AI.obj
 0002:0018bfe0       ?FlyTurn@idAI@@IAEXXZ      10355fe0 f   AI.obj
 0002:0018c160       ?FlyMove@idAI@@IAEXXZ      10356160 f   AI.obj
 0002:0018ca50       ?StaticMove@idAI@@IAEXXZ   10356a50 f   AI.obj
 0002:0018ce10       ?ReactionTo@idAI@@IAEHPBVidEntity@@@Z 10356e10 f   AI.obj
 0002:0018cf50       ?Pain@idAI@@MAE_NPAVidEntity@@0HABVidVec3@@H@Z 10356f50 f   AI.obj
 0002:0018d130       ?SpawnParticles@idAI@@IAEXPBD@Z 10357130 f   AI.obj
 0002:0018d430       ??0particleEmitter_s@@QAE@XZ 10357430 f i AI.obj
 0002:0018d490       ?SpawnParticlesOnJoint@idAI@@IAEPBVidDeclParticle@@AAUparticleEmitter_s@@PBD1@Z 10357490 f   AI.obj
 0002:0018d700       ?Killed@idAI@@MAEXPAVidEntity@@0HABVidVec3@@H@Z 10357700 f   AI.obj
 0002:0018ddb0       ?PlayCinematic@idAI@@IAEXXZ 10357db0 f   AI.obj
 0002:0018e200       ?Activate@idAI@@IAEXPAVidEntity@@@Z 10358200 f   AI.obj
 0002:0018e450       ?EnemyDead@idAI@@IAEXXZ    10358450 f   AI.obj
 0002:0018e4d0       ?TalkTo@idAI@@QAEXPAVidActor@@@Z 103584d0 f   AI.obj
 0002:0018e5a0       ?GetEnemy@idAI@@QBEPAVidActor@@XZ 103585a0 f   AI.obj
 0002:0018e600       ?GetTalkState@idAI@@QBE?AW4talkState_t@@XZ 10358600 f   AI.obj
 0002:0018e6a0       ?TouchedByFlashlight@idAI@@QAEXPAVidActor@@@Z 103586a0 f   AI.obj
 0002:0018e710       ?ClearEnemy@idAI@@IAEXXZ   10358710 f   AI.obj
 0002:0018e820       ?EnemyPositionValid@idAI@@IBE_NXZ 10358820 f   AI.obj
 0002:0018e990       ?SetEnemyPosition@idAI@@IAEXXZ 10358990 f   AI.obj
 0002:0018f000       ?UpdateEnemyPosition@idAI@@IAEXXZ 10359000 f   AI.obj
 0002:0018f570       ?SetEnemy@idAI@@IAEXPAVidActor@@@Z 10359570 f   AI.obj
 0002:0018f7e0       ?FirstVisiblePointOnPath@idAI@@IBE?AVidVec3@@V2@ABV2@H@Z 103597e0 f   AI.obj
 0002:0018fac0       ?CalculateAttackOffsets@idAI@@IAEXXZ 10359ac0 f   AI.obj
 0002:0018fd40       ?CreateProjectileClipModel@idAI@@IBEXXZ 10359d40 f   AI.obj
 0002:0018fec0       ?GetAimDir@idAI@@QBE_NABVidVec3@@PAVidEntity@@PBV3@AAV2@@Z 10359ec0 f   AI.obj
 0002:001902e0       ?BeginAttack@idAI@@IAEXPBD@Z 1035a2e0 f   AI.obj
 0002:00190350       ?EndAttack@idAI@@IAEXXZ    1035a350 f   AI.obj
 0002:001903b0       ?CreateProjectile@idAI@@IAEPAVidProjectile@@ABVidVec3@@0@Z 1035a3b0 f   AI.obj
 0002:00190540       ?RemoveProjectile@idAI@@IAEXXZ 1035a540 f   AI.obj
 0002:001905e0       ?LaunchProjectile@idAI@@IAEPAVidProjectile@@PBDPAVidEntity@@_N@Z 1035a5e0 f   AI.obj
 0002:001911d0       ?DamageFeedback@idAI@@MAEXPAVidEntity@@0AAH@Z 1035b1d0 f   AI.obj
 0002:001912a0       ?DirectDamage@idAI@@IAEXPBDPAVidEntity@@@Z 1035b2a0 f   AI.obj
 0002:00191540       ?TestMelee@idAI@@IBE_NXZ   1035b540 f   AI.obj
 0002:00191a90       ?AttackMelee@idAI@@IAE_NPBD@Z 1035ba90 f   AI.obj
 0002:00191f10       ?PushWithAF@idAI@@IAEXXZ   1035bf10 f   AI.obj
 0002:001922d0       ?GetMuzzle@idAI@@IAEXPBDAAVidVec3@@AAVidMat3@@@Z 1035c2d0 f   AI.obj
 0002:001924d0       ?TriggerWeaponEffects@idAI@@IAEXABVidVec3@@@Z 1035c4d0 f   AI.obj
 0002:00192700       ?UpdateMuzzleFlash@idAI@@IAEXXZ 1035c700 f   AI.obj
 0002:00192960       ?Hide@idAI@@MAEXXZ         1035c960 f   AI.obj
 0002:00192aa0       ?Show@idAI@@MAEXXZ         1035caa0 f   AI.obj
 0002:00192c60       ?SetChatSound@idAI@@IAEXXZ 1035cc60 f   AI.obj
 0002:00192f10       ?CanPlayChatterSounds@idAI@@MBE_NXZ 1035cf10 f   AI.obj
 0002:00192fd0       ?PlayChatter@idAI@@IAEXXZ  1035cfd0 f   AI.obj
 0002:001930f0       ?UpdateParticles@idAI@@IAEXXZ 1035d0f0 f   AI.obj
 0002:001934b0       ?TriggerParticles@idAI@@IAEXPBD@Z 1035d4b0 f   AI.obj
 0002:001935a0       ?TriggerFX@idAI@@IAEXPBD0@Z 1035d5a0 f   AI.obj
 0002:00193730       ?StartEmitter@idAI@@IAEPAVidEntity@@PBD00@Z 1035d730 f   AI.obj
 0002:00193b60       ?GetEmitter@idAI@@IAEPAVidEntity@@PBD@Z 1035db60 f   AI.obj
 0002:00193c10       ?StopEmitter@idAI@@IAEXPBD@Z 1035dc10 f   AI.obj
 0002:00193cf0       ?UpdateAnimationControllers@idAI@@MAE_NXZ 1035dcf0 f   AI.obj
 0002:001950e0       ?Compare@idAngles@@QBE_NABV1@M@Z 1035f0e0 f i AI.obj
 0002:001951c0       ?Clamp@idAngles@@QAEXABV1@0@Z 1035f1c0 f i AI.obj
 0002:001952e0       ?CreateInstance@idCombatNode@@SAPAVidClass@@XZ 1035f2e0 f   AI.obj
 0002:00195410       ?GetType@idCombatNode@@UBEPAVidTypeInfo@@XZ 1035f410 f   AI.obj
 0002:00195450       ??0idCombatNode@@QAE@XZ    1035f450 f   AI.obj
 0002:001955b0       ??_EidCombatNode@@UAEPAXI@Z 1035f5b0 f i AI.obj
 0002:001955b0       ??_GidCombatNode@@UAEPAXI@Z 1035f5b0 f i AI.obj
 0002:00195620       ??1idCombatNode@@UAE@XZ    1035f620 f i AI.obj
 0002:00195670       ?Save@idCombatNode@@QBEXPAVidSaveGame@@@Z 1035f670 f   AI.obj
 0002:00195780       ?Restore@idCombatNode@@QAEXPAVidRestoreGame@@@Z 1035f780 f   AI.obj
 0002:00195890       ?Spawn@idCombatNode@@QAEXXZ 1035f890 f   AI.obj
 0002:00195bb0       ?IsDisabled@idCombatNode@@QBE_NXZ 1035fbb0 f   AI.obj
 0002:00195bf0       ?DrawDebugInfo@idCombatNode@@SAXXZ 1035fbf0 f   AI.obj
 0002:00196300       ?EntityInView@idCombatNode@@QAE_NPAVidActor@@ABVidVec3@@@Z 10360300 f   AI.obj
 0002:001965b0       ?Event_Activate@idCombatNode@@AAEXPAVidEntity@@@Z 103605b0 f   AI.obj
 0002:00196610       ?Event_MarkUsed@idCombatNode@@AAEXXZ 10360610 f   AI.obj
 0002:00196690       ?InList@?$idLinkList@VidActor@@@@QBE_NXZ 10360690 f i AI.obj
 0002:001966e0       ?SetGranularity@?$idList@W4jointHandle_t@@@@QAEXH@Z 103606e0 f i AI.obj
 0002:001967c0       ??A?$idList@W4jointHandle_t@@@@QBEABW4jointHandle_t@@H@Z 103607c0 f i AI.obj
 0002:00196880       ?SetNum@?$idList@W4jointHandle_t@@@@QAEXH_N@Z 10360880 f i AI.obj
 0002:00196930       ?Append@?$idList@W4jointHandle_t@@@@QAEHABW4jointHandle_t@@@Z 10360930 f i AI.obj
 0002:00196a20       ??0?$idList@VidAngles@@@@QAE@H@Z 10360a20 f i AI.obj
 0002:00196ac0       ??1?$idList@VidAngles@@@@QAE@XZ 10360ac0 f i AI.obj
 0002:00196b10       ?SetGranularity@?$idList@VidAngles@@@@QAEXH@Z 10360b10 f i AI.obj
 0002:00196bf0       ??A?$idList@VidAngles@@@@QAEAAVidAngles@@H@Z 10360bf0 f i AI.obj
 0002:00196cb0       ??A?$idList@VidAngles@@@@QBEABVidAngles@@H@Z 10360cb0 f i AI.obj
 0002:00196d70       ?SetNum@?$idList@VidAngles@@@@QAEXH_N@Z 10360d70 f i AI.obj
 0002:00196e20       ?Append@?$idList@VidAngles@@@@QAEHABVidAngles@@@Z 10360e20 f i AI.obj
 0002:00196f20       ??0?$idList@UparticleEmitter_s@@@@QAE@H@Z 10360f20 f i AI.obj
 0002:00196fc0       ??1?$idList@UparticleEmitter_s@@@@QAE@XZ 10360fc0 f i AI.obj
 0002:00197010       ?Clear@?$idList@UparticleEmitter_s@@@@QAEXXZ 10361010 f i AI.obj
 0002:001970b0       ?Num@?$idList@UparticleEmitter_s@@@@QBEHXZ 103610b0 f i AI.obj
 0002:001970f0       ??A?$idList@UparticleEmitter_s@@@@QAEAAUparticleEmitter_s@@H@Z 103610f0 f i AI.obj
 0002:001971b0       ??A?$idList@UparticleEmitter_s@@@@QBEABUparticleEmitter_s@@H@Z 103611b0 f i AI.obj
 0002:00197270       ?SetNum@?$idList@UparticleEmitter_s@@@@QAEXH_N@Z 10361270 f i AI.obj
 0002:00197320       ?Append@?$idList@UparticleEmitter_s@@@@QAEHABUparticleEmitter_s@@@Z 10361320 f i AI.obj
 0002:00197430       ??0?$idHashTable@UfuncEmitter_s@@@@QAE@H@Z 10361430 f i AI.obj
 0002:00197560       ??1?$idHashTable@UfuncEmitter_s@@@@QAE@XZ 10361560 f i AI.obj
 0002:001975d0       ?Set@?$idHashTable@UfuncEmitter_s@@@@QAEXPBDAAUfuncEmitter_s@@@Z 103615d0 f i AI.obj
 0002:00197790       ?Get@?$idHashTable@UfuncEmitter_s@@@@QBE_NPBDPAPAUfuncEmitter_s@@@Z 10361790 f i AI.obj
 0002:00197870       ?Remove@?$idHashTable@UfuncEmitter_s@@@@QAE_NPBD@Z 10361870 f i AI.obj
 0002:001979d0       ??0?$idScriptVariable@M$03M@@QAE@XZ 103619d0 f i AI.obj
 0002:00197a20       ?LinkTo@?$idScriptVariable@M$03M@@QAEXAAVidScriptObject@@PBD@Z 10361a20 f i AI.obj
 0002:00197ab0       ??4?$idScriptVariable@M$03M@@QAEAAV0@ABM@Z 10361ab0 f i AI.obj
 0002:00197b10       ??_Ghashnode_s@?$idHashTable@UfuncEmitter_s@@@@QAEPAXI@Z 10361b10 f i AI.obj
 0002:00197b80       ??1hashnode_s@?$idHashTable@UfuncEmitter_s@@@@QAE@XZ 10361b80 f i AI.obj
 0002:00197bd0       ??0hashnode_s@?$idHashTable@UfuncEmitter_s@@@@QAE@PBDUfuncEmitter_s@@PAU01@@Z 10361bd0 f i AI.obj
 0002:00197c50       ?Resize@?$idList@W4jointHandle_t@@@@QAEXH@Z 10361c50 f i AI.obj
 0002:00197dc0       ?Clear@?$idList@VidAngles@@@@QAEXXZ 10361dc0 f i AI.obj
 0002:00197e60       ?Resize@?$idList@VidAngles@@@@QAEXH@Z 10361e60 f i AI.obj
 0002:00198070       ?Resize@?$idList@UparticleEmitter_s@@@@QAEXH@Z 10362070 f i AI.obj
 0002:00198290       ?Clear@?$idHashTable@UfuncEmitter_s@@@@QAEXXZ 10362290 f i AI.obj
 0002:001983a0       ?GetHash@?$idHashTable@UfuncEmitter_s@@@@ABEHPBD@Z 103623a0 f i AI.obj
 0002:00198400       ?CreateInstance@idAI@@SAPAVidClass@@XZ 10362400 f   AI_events.obj
 0002:00198530       ?GetType@idAI@@UBEPAVidTypeInfo@@XZ 10362530 f   AI_events.obj
 0002:00198570       ?Event_Activate@idAI@@IAEXPAVidEntity@@@Z 10362570 f   AI_events.obj
 0002:001985d0       ?Event_Touch@idAI@@IAEXPAVidEntity@@PAUtrace_s@@@Z 103625d0 f   AI_events.obj
 0002:00198690       ?Event_FindEnemy@idAI@@IAEXH@Z 10362690 f   AI_events.obj
 0002:001987d0       ?Event_FindEnemyAI@idAI@@IAEXH@Z 103627d0 f   AI_events.obj
 0002:00198ab0       ?Event_FindEnemyInCombatNodes@idAI@@IAEXXZ 10362ab0 f   AI_events.obj
 0002:00198cc0       ?Event_ClosestReachableEnemyOfEntity@idAI@@IAEXPAVidEntity@@@Z 10362cc0 f   AI_events.obj
 0002:00198fb0       ?Event_HeardSound@idAI@@IAEXH@Z 10362fb0 f   AI_events.obj
 0002:00199190       ?Event_SetEnemy@idAI@@IAEXPAVidEntity@@@Z 10363190 f   AI_events.obj
 0002:00199240       ?Event_ClearEnemy@idAI@@IAEXXZ 10363240 f   AI_events.obj
 0002:00199290       ?Event_MuzzleFlash@idAI@@IAEXPBD@Z 10363290 f   AI_events.obj
 0002:00199360       ?Event_CreateMissile@idAI@@IAEXPBD@Z 10363360 f   AI_events.obj
 0002:00199550       ?Event_AttackMissile@idAI@@IAEXPBD@Z 10363550 f   AI_events.obj
 0002:001995d0       ?Event_FireMissileAtTarget@idAI@@IAEXPBD0@Z 103635d0 f   AI_events.obj
 0002:00199680       ?Event_LaunchMissile@idAI@@IAEXABVidVec3@@ABVidAngles@@@Z 10363680 f   AI_events.obj
 0002:00199cf0       ?Event_AttackMelee@idAI@@IAEXPBD@Z 10363cf0 f   AI_events.obj
 0002:00199d60       ?Event_DirectDamage@idAI@@IAEXPAVidEntity@@PBD@Z 10363d60 f   AI_events.obj
 0002:00199dc0       ?Event_RadiusDamageFromJoint@idAI@@IAEXPBD0@Z 10363dc0 f   AI_events.obj
 0002:00199f50       ?Event_RandomPath@idAI@@IAEXXZ 10363f50 f   AI_events.obj
 0002:00199fc0       ?Event_BeginAttack@idAI@@IAEXPBD@Z 10363fc0 f   AI_events.obj
 0002:0019a020       ?Event_EndAttack@idAI@@IAEXXZ 10364020 f   AI_events.obj
 0002:0019a070       ?Event_MeleeAttackToJoint@idAI@@IAEXPBD0@Z 10364070 f   AI_events.obj
 0002:0019a3b0       ?Event_CanBecomeSolid@idAI@@IAEXXZ 103643b0 f   AI_events.obj
 0002:0019a560       ?Event_BecomeSolid@idAI@@IAEXXZ 10364560 f   AI_events.obj
 0002:0019a720       ?Event_BecomeNonSolid@idAI@@IAEXXZ 10364720 f   AI_events.obj
 0002:0019a7e0       ?Event_BecomeRagdoll@idAI@@IAEXXZ 103647e0 f   AI_events.obj
 0002:0019a850       ?Event_StopRagdoll@idAI@@IAEXXZ 10364850 f   AI_events.obj
 0002:0019a8c0       ?Event_SetHealth@idAI@@IAEXM@Z 103648c0 f   AI_events.obj
 0002:0019a9a0       ?Event_GetHealth@idAI@@IAEXXZ 103649a0 f   AI_events.obj
 0002:0019aa00       ?Event_AllowDamage@idAI@@IAEXXZ 10364a00 f   AI_events.obj
 0002:0019aa50       ?Event_IgnoreDamage@idAI@@IAEXXZ 10364a50 f   AI_events.obj
 0002:0019aaa0       ?Event_GetCurrentYaw@idAI@@IAEXXZ 10364aa0 f   AI_events.obj
 0002:0019ab00       ?Event_TurnTo@idAI@@IAEXM@Z 10364b00 f   AI_events.obj
 0002:0019ab60       ?Event_TurnToPos@idAI@@IAEXABVidVec3@@@Z 10364b60 f   AI_events.obj
 0002:0019abc0       ?Event_TurnToEntity@idAI@@IAEXPAVidEntity@@@Z 10364bc0 f   AI_events.obj
 0002:0019ac60       ?Event_MoveStatus@idAI@@IAEXXZ 10364c60 f   AI_events.obj
 0002:0019acc0       ?Event_StopMove@idAI@@IAEXXZ 10364cc0 f   AI_events.obj
 0002:0019ad20       ?Event_MoveToCover@idAI@@IAEXXZ 10364d20 f   AI_events.obj
 0002:0019adb0       ?Event_MoveToEnemy@idAI@@IAEXXZ 10364db0 f   AI_events.obj
 0002:0019ae30       ?Event_MoveToEnemyHeight@idAI@@IAEXXZ 10364e30 f   AI_events.obj
 0002:0019ae90       ?Event_MoveOutOfRange@idAI@@IAEXPAVidEntity@@M@Z 10364e90 f   AI_events.obj
 0002:0019af00       ?Event_MoveToAttackPosition@idAI@@IAEXPAVidEntity@@PBD@Z 10364f00 f   AI_events.obj
 0002:0019afa0       ?Event_MoveToEntity@idAI@@IAEXPAVidEntity@@@Z 10364fa0 f   AI_events.obj
 0002:0019b010       ?Event_MoveToPosition@idAI@@IAEXABVidVec3@@@Z 10365010 f   AI_events.obj
 0002:0019b080       ?Event_SlideTo@idAI@@IAEXABVidVec3@@M@Z 10365080 f   AI_events.obj
 0002:0019b0e0       ?Event_Wander@idAI@@IAEXXZ 103650e0 f   AI_events.obj
 0002:0019b130       ?Event_FacingIdeal@idAI@@IAEXXZ 10365130 f   AI_events.obj
 0002:0019b1a0       ?Event_FaceEnemy@idAI@@IAEXXZ 103651a0 f   AI_events.obj
 0002:0019b1f0       ?Event_FaceEntity@idAI@@IAEXPAVidEntity@@@Z 103651f0 f   AI_events.obj
 0002:0019b250       ?Event_WaitAction@idAI@@IAEXPBD@Z 10365250 f   AI_events.obj
 0002:0019b2f0       ?Event_GetCombatNode@idAI@@IAEXXZ 103652f0 f   AI_events.obj
 0002:0019b5a0       ?Event_EnemyInCombatCone@idAI@@IAEXPAVidEntity@@H@Z 103655a0 f   AI_events.obj
 0002:0019b710       ?Event_WaitMove@idAI@@IAEXXZ 10365710 f   AI_events.obj
 0002:0019b7a0       ?Event_GetJumpVelocity@idAI@@IAEXABVidVec3@@MM@Z 103657a0 f   AI_events.obj
 0002:0019ba70       ?Event_EntityInAttackCone@idAI@@IAEXPAVidEntity@@@Z 10365a70 f   AI_events.obj
 0002:0019bc80       ?Event_CanSeeEntity@idAI@@IAEXPAVidEntity@@@Z 10365c80 f   AI_events.obj
 0002:0019bd10       ?Event_SetTalkTarget@idAI@@IAEXPAVidEntity@@@Z 10365d10 f   AI_events.obj
 0002:0019be10       ?Event_GetTalkTarget@idAI@@IAEXXZ 10365e10 f   AI_events.obj
 0002:0019be80       ?Event_SetTalkState@idAI@@IAEXH@Z 10365e80 f   AI_events.obj
 0002:0019bf00       ?Event_EnemyRange@idAI@@IAEXXZ 10365f00 f   AI_events.obj
 0002:0019c010       ?Event_EnemyRange2D@idAI@@IAEXXZ 10366010 f   AI_events.obj
 0002:0019c140       ?Event_GetEnemy@idAI@@IAEXXZ 10366140 f   AI_events.obj
 0002:0019c1b0       ?Event_GetEnemyPos@idAI@@IAEXXZ 103661b0 f   AI_events.obj
 0002:0019c210       ?Event_GetEnemyEyePos@idAI@@IAEXXZ 10366210 f   AI_events.obj
 0002:0019c290       ?Event_PredictEnemyPos@idAI@@IAEXM@Z 10366290 f   AI_events.obj
 0002:0019c440       ?Event_CanHitEnemy@idAI@@IAEXXZ 10366440 f   AI_events.obj
 0002:0019c750       ?Event_CanHitEnemyFromAnim@idAI@@IAEXPBD@Z 10366750 f   AI_events.obj
 0002:0019cf10       ?Event_CanHitEnemyFromJoint@idAI@@IAEXPBD@Z 10366f10 f   AI_events.obj
 0002:0019d690       ?Event_EnemyPositionValid@idAI@@IAEXXZ 10367690 f   AI_events.obj
 0002:0019d700       ?Event_ChargeAttack@idAI@@IAEXPBD@Z 10367700 f   AI_events.obj
 0002:0019d8c0       ?Event_TestChargeAttack@idAI@@IAEXXZ 103678c0 f   AI_events.obj
 0002:0019dd30       ?Event_TestAnimMoveTowardEnemy@idAI@@IAEXPBD@Z 10367d30 f   AI_events.obj
 0002:0019e1d0       ?Event_TestAnimMove@idAI@@IAEXPBD@Z 103681d0 f   AI_events.obj
 0002:0019e590       ?Event_TestMoveToPosition@idAI@@IAEXABVidVec3@@@Z 10368590 f   AI_events.obj
 0002:0019e820       ?Event_TestMeleeAttack@idAI@@IAEXXZ 10368820 f   AI_events.obj
 0002:0019e890       ?Event_TestAnimAttack@idAI@@IAEXPBD@Z 10368890 f   AI_events.obj
 0002:0019ea60       ?Event_Shrivel@idAI@@IAEXM@Z 10368a60 f   AI_events.obj
 0002:0019ebd0       ?Event_PreBurn@idAI@@IAEXXZ 10368bd0 f   AI_events.obj
 0002:0019ec20       ?Event_Burn@idAI@@IAEXXZ   10368c20 f   AI_events.obj
 0002:0019eca0       ?Event_ClearBurn@idAI@@IAEXXZ 10368ca0 f   AI_events.obj
 0002:0019ed30       ?Event_SetSmokeVisibility@idAI@@IAEXHH@Z 10368d30 f   AI_events.obj
 0002:0019ee80       ?Event_NumSmokeEmitters@idAI@@IAEXXZ 10368e80 f   AI_events.obj
 0002:0019eef0       ?Event_StopThinking@idAI@@IAEXXZ 10368ef0 f   AI_events.obj
 0002:0019ef60       ?Event_GetTurnDelta@idAI@@IAEXXZ 10368f60 f   AI_events.obj
 0002:0019f010       ?Event_GetMoveType@idAI@@IAEXXZ 10369010 f   AI_events.obj
 0002:0019f070       ?Event_SetMoveType@idAI@@IAEXH@Z 10369070 f   AI_events.obj
 0002:0019f130       ?Event_SaveMove@idAI@@IAEXXZ 10369130 f   AI_events.obj
 0002:0019f1a0       ?Event_RestoreMove@idAI@@IAEXXZ 103691a0 f   AI_events.obj
 0002:0019f470       ?Event_AllowMovement@idAI@@IAEXM@Z 10369470 f   AI_events.obj
 0002:0019f4f0       ?Event_JumpFrame@idAI@@IAEXXZ 103694f0 f   AI_events.obj
 0002:0019f560       ?Event_EnableClip@idAI@@IAEXXZ 10369560 f   AI_events.obj
 0002:0019f5e0       ?Event_DisableClip@idAI@@IAEXXZ 103695e0 f   AI_events.obj
 0002:0019f660       ?Event_EnableGravity@idAI@@IAEXXZ 10369660 f   AI_events.obj
 0002:0019f6b0       ?Event_DisableGravity@idAI@@IAEXXZ 103696b0 f   AI_events.obj
 0002:0019f700       ?Event_EnableAFPush@idAI@@IAEXXZ 10369700 f   AI_events.obj
 0002:0019f750       ?Event_DisableAFPush@idAI@@IAEXXZ 10369750 f   AI_events.obj
 0002:0019f7a0       ?Event_SetFlySpeed@idAI@@IAEXM@Z 103697a0 f   AI_events.obj
 0002:0019f820       ?Event_SetFlyOffset@idAI@@IAEXH@Z 10369820 f   AI_events.obj
 0002:0019f870       ?Event_ClearFlyOffset@idAI@@IAEXXZ 10369870 f   AI_events.obj
 0002:0019f8e0       ?Event_GetClosestHiddenTarget@idAI@@IAEXPBD@Z 103698e0 f   AI_events.obj
 0002:0019fbd0       ?Event_GetRandomTarget@idAI@@IAEXPBD@Z 10369bd0 f   AI_events.obj
 0002:0019fd40       ?Event_TravelDistanceToPoint@idAI@@IAEXABVidVec3@@@Z 10369d40 f   AI_events.obj
 0002:0019fde0       ?Event_TravelDistanceToEntity@idAI@@IAEXPAVidEntity@@@Z 10369de0 f   AI_events.obj
 0002:0019feb0       ?Event_TravelDistanceBetweenPoints@idAI@@IAEXABVidVec3@@0@Z 10369eb0 f   AI_events.obj
 0002:0019ff20       ?Event_TravelDistanceBetweenEntities@idAI@@IAEXPAVidEntity@@0@Z 10369f20 f   AI_events.obj
 0002:001a0060       ?Event_LookAtEntity@idAI@@IAEXPAVidEntity@@M@Z 1036a060 f   AI_events.obj
 0002:001a0180       ?Event_LookAtEnemy@idAI@@IAEXM@Z 1036a180 f   AI_events.obj
 0002:001a02a0       ?Event_SetJointMod@idAI@@IAEXH@Z 1036a2a0 f   AI_events.obj
 0002:001a02f0       ?Event_ThrowMoveable@idAI@@IAEXXZ 1036a2f0 f   AI_events.obj
 0002:001a03d0       ?Event_ThrowAF@idAI@@IAEXXZ 1036a3d0 f   AI_events.obj
 0002:001a04b0       ?Event_SetAngles@idAI@@IAEXABVidAngles@@@Z 1036a4b0 f   AI_events.obj
 0002:001a0550       ?Event_GetAngles@idAI@@IAEXXZ 1036a550 f   AI_events.obj
 0002:001a05c0       ?Event_RealKill@idAI@@IAEXXZ 1036a5c0 f   AI_events.obj
 0002:001a0680       ?Event_Kill@idAI@@IAEXXZ   1036a680 f   AI_events.obj
 0002:001a06e0       ?Event_WakeOnFlashlight@idAI@@IAEXH@Z 1036a6e0 f   AI_events.obj
 0002:001a0730       ?Event_LocateEnemy@idAI@@IAEXXZ 1036a730 f   AI_events.obj
 0002:001a0820       ?Event_KickObstacles@idAI@@IAEXPAVidEntity@@M@Z 1036a820 f   AI_events.obj
 0002:001a09a0       ?Event_GetObstacle@idAI@@IAEXXZ 1036a9a0 f   AI_events.obj
 0002:001a0a10       ?Event_PushPointIntoAAS@idAI@@IAEXABVidVec3@@@Z 1036aa10 f   AI_events.obj
 0002:001a0b20       ?Event_GetTurnRate@idAI@@IAEXXZ 1036ab20 f   AI_events.obj
 0002:001a0b80       ?Event_SetTurnRate@idAI@@IAEXM@Z 1036ab80 f   AI_events.obj
 0002:001a0bd0       ?Event_AnimTurn@idAI@@IAEXM@Z 1036abd0 f   AI_events.obj
 0002:001a0d80       ?Event_AllowHiddenMovement@idAI@@IAEXH@Z 1036ad80 f   AI_events.obj
 0002:001a0dd0       ?Event_TriggerParticles@idAI@@IAEXPBD@Z 1036add0 f   AI_events.obj
 0002:001a0e30       ?Event_FindActorsInBounds@idAI@@IAEXABVidVec3@@0@Z 1036ae30 f   AI_events.obj
 0002:001a0fb0       ?Event_CanReachPosition@idAI@@IAEXABVidVec3@@@Z 1036afb0 f   AI_events.obj
 0002:001a1110       ?Event_CanReachEntity@idAI@@IAEXPAVidEntity@@@Z 1036b110 f   AI_events.obj
 0002:001a1370       ?Event_CanReachEnemy@idAI@@IAEXXZ 1036b370 f   AI_events.obj
 0002:001a15e0       ?Event_GetReachableEntityPosition@idAI@@IAEXPAVidEntity@@@Z 1036b5e0 f   AI_events.obj
 0002:001a17b0       ?Init@pathNode_s@@QAEXXZ   1036b7b0 f   AI_pathing.obj
 0002:001a1880       ?LineIntersectsPath@@YA_NABVidVec2@@0PBUpathNode_s@@@Z 1036b880 f   AI_pathing.obj
 0002:001a1a70       ?Plane2DFromPoints@idWinding2D@@SA?AVidVec3@@ABVidVec2@@0_N@Z 1036ba70 f i AI_pathing.obj
 0002:001a1b70       ?PointInsideObstacle@@YAHPBUobstacle_s@@HABVidVec2@@@Z 1036bb70 f   AI_pathing.obj
 0002:001a1c90       ?GetPointOutsideObstacles@@YAXPBUobstacle_s@@HAAVidVec2@@PAH2@Z 1036bc90 f   AI_pathing.obj
 0002:001a25b0       ??HidVec2@@QBE?AV0@ABV0@@Z 1036c5b0 f i AI_pathing.obj
 0002:001a2630       ??0idWinding2D@@QAE@XZ     1036c630 f i AI_pathing.obj
 0002:001a26a0       ??4idWinding2D@@QAEAAV0@ABV0@@Z 1036c6a0 f i AI_pathing.obj
 0002:001a2730       ??AidWinding2D@@QBEABVidVec2@@H@Z 1036c730 f i AI_pathing.obj
 0002:001a2780       ??AidWinding2D@@QAEAAVidVec2@@H@Z 1036c780 f i AI_pathing.obj
 0002:001a27d0       ?GetNumPoints@idWinding2D@@QBEHXZ 1036c7d0 f i AI_pathing.obj
 0002:001a2810       ?GetFirstBlockingObstacle@@YA_NPBUobstacle_s@@HHABVidVec2@@1AAMAAH3@Z 1036c810 f   AI_pathing.obj
 0002:001a2b70       ?GetObstacles@@YAHPBVidPhysics@@PBVidAAS@@PBVidEntity@@HABVidVec3@@3PAUobstacle_s@@HAAVidBounds@@@Z 1036cb70 f   AI_pathing.obj
 0002:001a3e60       ?AxisProjection@idBounds@@QBEXABVidVec3@@AAM1@Z 1036de60 f i AI_pathing.obj
 0002:001a4050       ??0idBox@@QAE@XZ           1036e050 f i AI_pathing.obj
 0002:001a40c0       ??4idBox@@QAEAAV0@ABV0@@Z  1036e0c0 f i AI_pathing.obj
 0002:001a4150       ?Clear@idWinding2D@@QAEXXZ 1036e150 f i AI_pathing.obj
 0002:001a4190       ?AddPoint@idWinding2D@@QAEXABVidVec2@@@Z 1036e190 f i AI_pathing.obj
 0002:001a4200       ?FreePathTree_r@@YAXPAUpathNode_s@@@Z 1036e200 f   AI_pathing.obj
 0002:001a4290       ?DrawPathTree@@YAXPBUpathNode_s@@M@Z 1036e290 f   AI_pathing.obj
 0002:001a4490       ?GetPathNodeDelta@@YA_NPAUpathNode_s@@PBUobstacle_s@@ABVidVec2@@_N@Z 1036e490 f   AI_pathing.obj
 0002:001a4860       ??DidVec2@@QBEMABV0@@Z     1036e860 f i AI_pathing.obj
 0002:001a48c0       ?BuildPathTree@@YAPAUpathNode_s@@PBUobstacle_s@@HABVidBounds@@ABVidVec2@@2AAUobstaclePath_s@@@Z 1036e8c0 f   AI_pathing.obj
 0002:001a5050       ?PrunePathTree@@YAXPAUpathNode_s@@ABVidVec2@@@Z 1036f050 f   AI_pathing.obj
 0002:001a5240       ?OptimizePath@@YAHPBUpathNode_s@@0PBUobstacle_s@@HQAVidVec2@@@Z 1036f240 f   AI_pathing.obj
 0002:001a56f0       ?PathLength@@YAMQAVidVec2@@HABV1@@Z 1036f6f0 f   AI_pathing.obj
 0002:001a57e0       ?FindOptimalPath@@YA_NPBUpathNode_s@@PBUobstacle_s@@HMABVidVec3@@AAV3@@Z 1036f7e0 f   AI_pathing.obj
 0002:001a5d40       ?FindPathAroundObstacles@idAI@@SA_NPBVidPhysics@@PBVidAAS@@PBVidEntity@@ABVidVec3@@3AAUobstaclePath_s@@@Z 1036fd40 f   AI_pathing.obj
 0002:001a62a0       ??0obstacle_s@@QAE@XZ      103702a0 f i AI_pathing.obj
 0002:001a6310       ?FreeObstacleAvoidanceNodes@idAI@@SAXXZ 10370310 f   AI_pathing.obj
 0002:001a6360       ?PathTrace@@YA_NPBVidEntity@@PBVidAAS@@ABVidVec3@@2HAAUpathTrace_s@@AAUpredictedPath_s@@@Z 10370360 f   AI_pathing.obj
 0002:001a6900       ?PredictPath@idAI@@SA_NPBVidEntity@@PBVidAAS@@ABVidVec3@@2HHHAAUpredictedPath_s@@@Z 10370900 f   AI_pathing.obj
 0002:001a7460       ?ProjectOntoPlane@idVec3@@QAEXABV1@M@Z 10371460 f i AI_pathing.obj
 0002:001a7540       ??0pathTrace_s@@QAE@XZ     10371540 f i AI_pathing.obj
 0002:001a75b0       ?TestTrajectory@idAI@@SA_NABVidVec3@@0MMMMPBVidClipModel@@HPBVidEntity@@2H@Z 103715b0 f   AI_pathing.obj
 0002:001a7cc0       ?PredictTrajectory@idAI@@SA_NABVidVec3@@0M0PBVidClipModel@@HMPBVidEntity@@2HAAV2@@Z 10371cc0 f   AI_pathing.obj
 0002:001a8500       ?Translate@idBounds@@QBE?AV1@ABVidVec3@@@Z 10372500 f i AI_pathing.obj
 0002:001a8870       ?GetAllocCount@?$idBlockAlloc@UpathNode_s@@$0IA@@@QBEHXZ 10372870 f i AI_pathing.obj
 0002:001a88b0       ?Shutdown@?$idBlockAlloc@UpathNode_s@@$0IA@@@QAEXXZ 103728b0 f i AI_pathing.obj
 0002:001a8970       ?Alloc@?$idBlockAlloc@UpathNode_s@@$0IA@@@QAEPAUpathNode_s@@XZ 10372970 f i AI_pathing.obj
 0002:001a8b20       ?Free@?$idBlockAlloc@UpathNode_s@@$0IA@@@QAEXPAUpathNode_s@@@Z 10372b20 f i AI_pathing.obj
 0002:001a8b90       ??0?$idQueueTemplate@UpathNode_s@@$0DA@@@QAE@XZ 10372b90 f i AI_pathing.obj
 0002:001a8be0       ?Add@?$idQueueTemplate@UpathNode_s@@$0DA@@@QAEXPAUpathNode_s@@@Z 10372be0 f i AI_pathing.obj
 0002:001a8c60       ?Get@?$idQueueTemplate@UpathNode_s@@$0DA@@@QAEPAUpathNode_s@@XZ 10372c60 f i AI_pathing.obj
 0002:001a8ce0       ??0block_s@?$idBlockAlloc@UpathNode_s@@$0IA@@@QAE@XZ 10372ce0 f i AI_pathing.obj
 0002:001a8d50       ??0element_s@?$idBlockAlloc@UpathNode_s@@$0IA@@@QAE@XZ 10372d50 f i AI_pathing.obj
 0002:001a8db0       ??0pathNode_s@@QAE@XZ      10372db0 f i AI_pathing.obj
 0002:001a8e20       ??0?$idBlockAlloc@UpathNode_s@@$0IA@@@QAE@XZ 10372e20 f i AI_pathing.obj
 0002:001a8e90       ??1?$idBlockAlloc@UpathNode_s@@$0IA@@@QAE@XZ 10372e90 f i AI_pathing.obj
 0002:001a8ee0       ?CreateInstance@idAI_Vagary@@SAPAVidClass@@XZ 10372ee0 f   AI_Vagary.obj
 0002:001a9010       ??0idAI_Vagary@@QAE@XZ     10373010 f i AI_Vagary.obj
 0002:001a9070       ??_EidAI_Vagary@@UAEPAXI@Z 10373070 f i AI_Vagary.obj
 0002:001a9070       ??_GidAI_Vagary@@UAEPAXI@Z 10373070 f i AI_Vagary.obj
 0002:001a90e0       ??1idAI_Vagary@@UAE@XZ     103730e0 f i AI_Vagary.obj
 0002:001a9130       ?GetType@idAI_Vagary@@UBEPAVidTypeInfo@@XZ 10373130 f   AI_Vagary.obj
 0002:001a9170       ?Event_ChooseObjectToThrow@idAI_Vagary@@AAEXABVidVec3@@0MMM@Z 10373170 f   AI_Vagary.obj
 0002:001a96c0       ?Event_ThrowObjectAtEnemy@idAI_Vagary@@AAEXPAVidEntity@@M@Z 103736c0 f   AI_Vagary.obj
 0002:001a9920       ?ClearTraceModelCache@idClipModel@@SAXXZ 10373920 f   Clip.obj
 0002:001a9980       ?TraceModelCacheSize@idClipModel@@SAHXZ 10373980 f   Clip.obj
 0002:001a99e0       ?AllocTraceModel@idClipModel@@CAHABVidTraceModel@@@Z 103739e0 f   Clip.obj
 0002:001a9c30       ??0trmCache_s@@QAE@XZ      10373c30 f i Clip.obj
 0002:001a9cb0       ?FreeTraceModel@idClipModel@@CAXH@Z 10373cb0 f   Clip.obj
 0002:001a9d80       ?GetCachedTraceModel@idClipModel@@CAPAVidTraceModel@@H@Z 10373d80 f   Clip.obj
 0002:001a9de0       ?GetTraceModelHashKey@idClipModel@@CAHABVidTraceModel@@@Z 10373de0 f   Clip.obj
 0002:001a9e90       ?FloatHash@idMath@@SAHPBMH@Z 10373e90 f i Clip.obj
 0002:001a9f10       ?GetDimension@idVec3@@QBEHXZ 10373f10 f i Clip.obj
 0002:001a9f50       ?ToFloatPtr@idVec3@@QBEPBMXZ 10373f50 f i Clip.obj
 0002:001a9f90       ?SaveTraceModels@idClipModel@@SAXPAVidSaveGame@@@Z 10373f90 f   Clip.obj
 0002:001aa080       ?RestoreTraceModels@idClipModel@@SAXPAVidRestoreGame@@@Z 10374080 f   Clip.obj
 0002:001aa280       ?LoadModel@idClipModel@@QAE_NPBD@Z 10374280 f   Clip.obj
 0002:001aa3c0       ?LoadModel@idClipModel@@QAEXABVidTraceModel@@@Z 103743c0 f   Clip.obj
 0002:001aa480       ?LoadModel@idClipModel@@QAEXH@Z 10374480 f   Clip.obj
 0002:001aa560       ?Init@idClipModel@@AAEXXZ  10374560 f   Clip.obj
 0002:001aa670       ??0idClipModel@@QAE@XZ     10374670 f   Clip.obj
 0002:001aa700       ??0idClipModel@@QAE@PBD@Z  10374700 f   Clip.obj
 0002:001aa7a0       ??0idClipModel@@QAE@ABVidTraceModel@@@Z 103747a0 f   Clip.obj
 0002:001aa840       ??0idClipModel@@QAE@H@Z    10374840 f   Clip.obj
 0002:001aa8f0       ??0idClipModel@@QAE@PBV0@@Z 103748f0 f   Clip.obj
 0002:001aaaa0       ??1idClipModel@@QAE@XZ     10374aa0 f   Clip.obj
 0002:001aab10       ?Save@idClipModel@@QBEXPAVidSaveGame@@@Z 10374b10 f   Clip.obj
 0002:001aacc0       ?Restore@idClipModel@@QAEXPAVidRestoreGame@@@Z 10374cc0 f   Clip.obj
 0002:001aaff0       ?SetPosition@idClipModel@@QAEXABVidVec3@@ABVidMat3@@@Z 10374ff0 f   Clip.obj
 0002:001ab080       ?Handle@idClipModel@@QBEHXZ 10375080 f   Clip.obj
 0002:001ab1a0       ?GetMassProperties@idClipModel@@QBEXMAAMAAVidVec3@@AAVidMat3@@@Z 103751a0 f   Clip.obj
 0002:001ab2a0       ??D@YA?AVidMat3@@MABV0@@Z  103752a0 f i Clip.obj
 0002:001ab300       ??DidMat3@@QBE?AV0@M@Z     10375300 f i Clip.obj
 0002:001ab3f0       ?Unlink@idClipModel@@QAEXXZ 103753f0 f   Clip.obj
 0002:001ab4e0       ?Link_r@idClipModel@@AAEXPAUclipSector_s@@@Z 103754e0 f   Clip.obj
 0002:001ab670       ?Link@idClipModel@@QAEXAAVidClip@@@Z 10375670 f   Clip.obj
 0002:001ab850       ?IsRotated@idMat3@@QBE_NXZ 10375850 f i Clip.obj
 0002:001ab8b0       ?Link@idClipModel@@QAEXAAVidClip@@PAVidEntity@@HABVidVec3@@ABVidMat3@@H@Z 103758b0 f   Clip.obj
 0002:001ab9a0       ?CheckModel@idClipModel@@SAHPBD@Z 103759a0 f   Clip.obj
 0002:001aba10       ??0idClip@@QAE@XZ          10375a10 f   Clip.obj
 0002:001abb50       ?CreateClipSectors_r@idClip@@AAEPAUclipSector_s@@HABVidBounds@@AAVidVec3@@@Z 10375b50 f   Clip.obj
 0002:001abfa0       ?Init@idClip@@QAEXXZ       10375fa0 f   Clip.obj
 0002:001ac2f0       ?Shutdown@idClip@@QAEXXZ   103762f0 f   Clip.obj
 0002:001ac3e0       ?ClipModelsTouchingBounds_r@idClip@@ABEXPBUclipSector_s@@AAUlistParms_s@@@Z 103763e0 f   Clip.obj
 0002:001ac770       ?ClipModelsTouchingBounds@idClip@@QBEHABVidBounds@@HPAPAVidClipModel@@H@Z 10376770 f   Clip.obj
 0002:001ac9d0       ??0listParms_s@@QAE@XZ     103769d0 f i Clip.obj
 0002:001aca30       ?EntitiesTouchingBounds@idClip@@QBEHABVidBounds@@HPAPAVidEntity@@H@Z 10376a30 f   Clip.obj
 0002:001acc10       ?GetTraceClipModels@idClip@@ABEHABVidBounds@@HPBVidEntity@@PAPAVidClipModel@@@Z 10376c10 f   Clip.obj
 0002:001acde0       ?TraceRenderModel@idClip@@ABEXAAUtrace_s@@ABVidVec3@@1MABVidMat3@@PAVidClipModel@@@Z 10376de0 f   Clip.obj
 0002:001acfc0       ?TraceModelForClipModel@idClip@@ABEPBVidTraceModel@@PBVidClipModel@@@Z 10376fc0 f   Clip.obj
 0002:001ad0b0       ?TranslationEntities@idClip@@QAEXAAUtrace_s@@ABVidVec3@@1PBVidClipModel@@ABVidMat3@@HPBVidEntity@@@Z 103770b0 f   Clip.obj
 0002:001ad460       ?TestHugeTranslation@@YA_NAAUtrace_s@@PBVidClipModel@@ABVidVec3@@2ABVidMat3@@@Z 10377460 f i Clip.obj
 0002:001ad610       ??4trace_s@@QAEAAU0@ABU0@@Z 10377610 f i Clip.obj
 0002:001ad6b0       ??4contactInfo_t@@QAEAAU0@ABU0@@Z 103776b0 f i Clip.obj
 0002:001ad7a0       ?Translation@idClip@@QAE_NAAUtrace_s@@ABVidVec3@@1PBVidClipModel@@ABVidMat3@@HPBVidEntity@@@Z 103777a0 f   Clip.obj
 0002:001adc90       ?Rotation@idClip@@QAE_NAAUtrace_s@@ABVidVec3@@ABVidRotation@@PBVidClipModel@@ABVidMat3@@HPBVidEntity@@@Z 10377c90 f   Clip.obj
 0002:001ae0c0       ?Motion@idClip@@QAE_NAAUtrace_s@@ABVidVec3@@1ABVidRotation@@PBVidClipModel@@ABVidMat3@@HPBVidEntity@@@Z 103780c0 f   Clip.obj
 0002:001aec90       ?SetOrigin@idRotation@@QAEXABVidVec3@@@Z 10378c90 f i Clip.obj
 0002:001aecf0       ?GetOrigin@idRotation@@QBEABVidVec3@@XZ 10378cf0 f i Clip.obj
 0002:001aed30       ?GetVec@idRotation@@QBEABVidVec3@@XZ 10378d30 f i Clip.obj
 0002:001aed70       ?GetAngle@idRotation@@QBEMXZ 10378d70 f i Clip.obj
 0002:001aedb0       ??4idRotation@@QAEAAV0@ABV0@@Z 10378db0 f i Clip.obj
 0002:001aee60       ?Contacts@idClip@@QAEHPAUcontactInfo_t@@HABVidVec3@@ABVidVec6@@MPBVidClipModel@@ABVidMat3@@HPBVidEntity@@@Z 10378e60 f   Clip.obj
 0002:001af230       ?Contents@idClip@@QAEHABVidVec3@@PBVidClipModel@@ABVidMat3@@HPBVidEntity@@@Z 10379230 f   Clip.obj
 0002:001af5d0       ?TranslationModel@idClip@@QAEXAAUtrace_s@@ABVidVec3@@1PBVidClipModel@@ABVidMat3@@HH13@Z 103795d0 f   Clip.obj
 0002:001af690       ?RotationModel@idClip@@QAEXAAUtrace_s@@ABVidVec3@@ABVidRotation@@PBVidClipModel@@ABVidMat3@@HH14@Z 10379690 f   Clip.obj
 0002:001af750       ?ContactsModel@idClip@@QAEHPAUcontactInfo_t@@HABVidVec3@@ABVidVec6@@MPBVidClipModel@@ABVidMat3@@HH14@Z 10379750 f   Clip.obj
 0002:001af820       ?ContentsModel@idClip@@QAEHABVidVec3@@PBVidClipModel@@ABVidMat3@@HH02@Z 10379820 f   Clip.obj
 0002:001af8e0       ?GetModelContactFeature@idClip@@QBE_NABUcontactInfo_t@@PBVidClipModel@@AAVidFixedWinding@@@Z 103798e0 f   Clip.obj
 0002:001afbe0       ?PrintStatistics@idClip@@QAEXXZ 10379be0 f   Clip.obj
 0002:001afcf0       ?DrawClipModels@idClip@@QAEXABVidVec3@@MPBVidEntity@@@Z 10379cf0 f   Clip.obj
 0002:001aff00       ?DrawModelContactFeature@idClip@@QBE_NABUcontactInfo_t@@PBVidClipModel@@H@Z 10379f00 f   Clip.obj
 0002:001b0540       ?Shutdown@?$idBlockAlloc@UclipLink_s@@$0EAA@@@QAEXXZ 1037a540 f i Clip.obj
 0002:001b0600       ?Alloc@?$idBlockAlloc@UclipLink_s@@$0EAA@@@QAEPAUclipLink_s@@XZ 1037a600 f i Clip.obj
 0002:001b0740       ?Free@?$idBlockAlloc@UclipLink_s@@$0EAA@@@QAEXPAUclipLink_s@@@Z 1037a740 f i Clip.obj
 0002:001b07b0       ?Num@?$idList@PAUtrmCache_s@@@@QBEHXZ 1037a7b0 f i Clip.obj
 0002:001b07f0       ??A?$idList@PAUtrmCache_s@@@@QAEAAPAUtrmCache_s@@H@Z 1037a7f0 f i Clip.obj
 0002:001b08b0       ?SetNum@?$idList@PAUtrmCache_s@@@@QAEXH_N@Z 1037a8b0 f i Clip.obj
 0002:001b0960       ?Append@?$idList@PAUtrmCache_s@@@@QAEHABQAUtrmCache_s@@@Z 1037a960 f i Clip.obj
 0002:001b0a50       ?DeleteContents@?$idList@PAUtrmCache_s@@@@QAEX_N@Z 1037aa50 f i Clip.obj
 0002:001b0b40       ??$Max@M@@YAMMM@Z          1037ab40 f i Clip.obj
 0002:001b0ba0       ?Clear@?$idList@PAUtrmCache_s@@@@QAEXXZ 1037aba0 f i Clip.obj
 0002:001b0c40       ?Resize@?$idList@PAUtrmCache_s@@@@QAEXH@Z 1037ac40 f i Clip.obj
 0002:001b0db0       ??0?$idBlockAlloc@UclipLink_s@@$0EAA@@@QAE@XZ 1037adb0 f i Clip.obj
 0002:001b0e20       ??0?$idList@PAUtrmCache_s@@@@QAE@H@Z 1037ae20 f i Clip.obj
 0002:001b0ec0       ??1?$idBlockAlloc@UclipLink_s@@$0EAA@@@QAE@XZ 1037aec0 f i Clip.obj
 0002:001b0f10       ??1?$idList@PAUtrmCache_s@@@@QAE@XZ 1037af10 f i Clip.obj
 0002:001b0f60       ?CreateInstance@idForce@@SAPAVidClass@@XZ 1037af60 f   Force.obj
 0002:001b1090       ?GetType@idForce@@UBEPAVidTypeInfo@@XZ 1037b090 f   Force.obj
 0002:001b10d0       ??0idForce@@QAE@XZ         1037b0d0 f   Force.obj
 0002:001b1190       ??_EidForce@@UAEPAXI@Z     1037b190 f i Force.obj
 0002:001b1190       ??_GidForce@@UAEPAXI@Z     1037b190 f i Force.obj
 0002:001b1200       ??1idForce@@UAE@XZ         1037b200 f   Force.obj
 0002:001b12c0       ?DeletePhysics@idForce@@SAXPBVidPhysics@@@Z 1037b2c0 f   Force.obj
 0002:001b1370       ?ClearForceList@idForce@@SAXXZ 1037b370 f   Force.obj
 0002:001b13c0       ?Evaluate@idForce@@UAEXH@Z 1037b3c0 f   Force.obj
 0002:001b1400       ?RemovePhysics@idForce@@UAEXPBVidPhysics@@@Z 1037b400 f   Force.obj
 0002:001b1440       ?Clear@?$idList@PAVidForce@@@@QAEXXZ 1037b440 f i Force.obj
 0002:001b14e0       ?Num@?$idList@PAVidForce@@@@QBEHXZ 1037b4e0 f i Force.obj
 0002:001b1520       ??A?$idList@PAVidForce@@@@QAEAAPAVidForce@@H@Z 1037b520 f i Force.obj
 0002:001b15e0       ?Append@?$idList@PAVidForce@@@@QAEHABQAVidForce@@@Z 1037b5e0 f i Force.obj
 0002:001b16d0       ?Remove@?$idList@PAVidForce@@@@QAE_NABQAVidForce@@@Z 1037b6d0 f i Force.obj
 0002:001b1750       ?Resize@?$idList@PAVidForce@@@@QAEXH@Z 1037b750 f i Force.obj
 0002:001b18c0       ?FindIndex@?$idList@PAVidForce@@@@QBEHABQAVidForce@@@Z 1037b8c0 f i Force.obj
 0002:001b1940       ?RemoveIndex@?$idList@PAVidForce@@@@QAE_NH@Z 1037b940 f i Force.obj
 0002:001b1a90       ?Save@idClass@@QBEXPAVidSaveGame@@@Z 1037ba90 f i Force.obj
 0002:001b1ad0       ?Restore@idClass@@QAEXPAVidRestoreGame@@@Z 1037bad0 f i Force.obj
 0002:001b1b10       ??0?$idList@PAVidForce@@@@QAE@H@Z 1037bb10 f i Force.obj
 0002:001b1bb0       ??1?$idList@PAVidForce@@@@QAE@XZ 1037bbb0 f i Force.obj
 0002:001b1c00       ?CreateInstance@idForce_Constant@@SAPAVidClass@@XZ 1037bc00 f   Force_Constant.obj
 0002:001b1d30       ?GetType@idForce_Constant@@UBEPAVidTypeInfo@@XZ 1037bd30 f   Force_Constant.obj
 0002:001b1d70       ??0idForce_Constant@@QAE@XZ 1037bd70 f   Force_Constant.obj
 0002:001b1e70       ??_EidForce_Constant@@UAEPAXI@Z 1037be70 f i Force_Constant.obj
 0002:001b1e70       ??_GidForce_Constant@@UAEPAXI@Z 1037be70 f i Force_Constant.obj
 0002:001b1ee0       ??1idForce_Constant@@UAE@XZ 1037bee0 f   Force_Constant.obj
 0002:001b1f40       ?Save@idForce_Constant@@QBEXPAVidSaveGame@@@Z 1037bf40 f   Force_Constant.obj
 0002:001b1fc0       ?Restore@idForce_Constant@@QAEXPAVidRestoreGame@@@Z 1037bfc0 f   Force_Constant.obj
 0002:001b2040       ?SetPosition@idForce_Constant@@QAEXPAVidPhysics@@HABVidVec3@@@Z 1037c040 f   Force_Constant.obj
 0002:001b20b0       ?SetForce@idForce_Constant@@QAEXABVidVec3@@@Z 1037c0b0 f   Force_Constant.obj
 0002:001b2110       ?SetPhysics@idForce_Constant@@QAEXPAVidPhysics@@@Z 1037c110 f   Force_Constant.obj
 0002:001b2160       ?Evaluate@idForce_Constant@@UAEXH@Z 1037c160 f   Force_Constant.obj
 0002:001b22c0       ?RemovePhysics@idForce_Constant@@UAEXPBVidPhysics@@@Z 1037c2c0 f   Force_Constant.obj
 0002:001b2320       ?CreateInstance@idForce_Drag@@SAPAVidClass@@XZ 1037c320 f   Force_Drag.obj
 0002:001b2450       ?GetType@idForce_Drag@@UBEPAVidTypeInfo@@XZ 1037c450 f   Force_Drag.obj
 0002:001b2490       ??0idForce_Drag@@QAE@XZ    1037c490 f   Force_Drag.obj
 0002:001b25b0       ??_GidForce_Drag@@UAEPAXI@Z 1037c5b0 f i Force_Drag.obj
 0002:001b25b0       ??_EidForce_Drag@@UAEPAXI@Z 1037c5b0 f i Force_Drag.obj
 0002:001b2620       ??1idForce_Drag@@UAE@XZ    1037c620 f   Force_Drag.obj
 0002:001b2680       ?Init@idForce_Drag@@QAEXM@Z 1037c680 f   Force_Drag.obj
 0002:001b26f0       ?SetPhysics@idForce_Drag@@QAEXPAVidPhysics@@HABVidVec3@@@Z 1037c6f0 f   Force_Drag.obj
 0002:001b2760       ?SetDragPosition@idForce_Drag@@QAEXABVidVec3@@@Z 1037c760 f   Force_Drag.obj
 0002:001b27c0       ?GetDragPosition@idForce_Drag@@QBEABVidVec3@@XZ 1037c7c0 f   Force_Drag.obj
 0002:001b2800       ?GetDraggedPosition@idForce_Drag@@QBE?BVidVec3@@XZ 1037c800 f   Force_Drag.obj
 0002:001b28d0       ?Evaluate@idForce_Drag@@UAEXH@Z 1037c8d0 f   Force_Drag.obj
 0002:001b2e40       ?Set@idRotation@@QAEXABVidVec3@@0M@Z 1037ce40 f i Force_Drag.obj
 0002:001b2ec0       ?RemovePhysics@idForce_Drag@@UAEXPBVidPhysics@@@Z 1037cec0 f   Force_Drag.obj
 0002:001b2f20       ?CreateInstance@idForce_Field@@SAPAVidClass@@XZ 1037cf20 f   Force_Field.obj
 0002:001b3050       ?GetType@idForce_Field@@UBEPAVidTypeInfo@@XZ 1037d050 f   Force_Field.obj
 0002:001b3090       ??0idForce_Field@@QAE@XZ   1037d090 f   Force_Field.obj
 0002:001b31a0       ??_GidForce_Field@@UAEPAXI@Z 1037d1a0 f i Force_Field.obj
 0002:001b31a0       ??_EidForce_Field@@UAEPAXI@Z 1037d1a0 f i Force_Field.obj
 0002:001b3210       ??1idForce_Field@@UAE@XZ   1037d210 f   Force_Field.obj
 0002:001b3300       ?Save@idForce_Field@@QBEXPAVidSaveGame@@@Z 1037d300 f   Force_Field.obj
 0002:001b33e0       ?Restore@idForce_Field@@QAEXPAVidRestoreGame@@@Z 1037d3e0 f   Force_Field.obj
 0002:001b34c0       ?SetClipModel@idForce_Field@@QAEXPAVidClipModel@@@Z 1037d4c0 f   Force_Field.obj
 0002:001b3580       ?Uniform@idForce_Field@@QAEXABVidVec3@@@Z 1037d580 f   Force_Field.obj
 0002:001b3600       ?Explosion@idForce_Field@@QAEXM@Z 1037d600 f   Force_Field.obj
 0002:001b3650       ?Implosion@idForce_Field@@QAEXM@Z 1037d650 f   Force_Field.obj
 0002:001b36a0       ?RandomTorque@idForce_Field@@QAEXM@Z 1037d6a0 f   Force_Field.obj
 0002:001b36f0       ?Evaluate@idForce_Field@@UAEXH@Z 1037d6f0 f   Force_Field.obj
 0002:001b3ff0       ?CreateInstance@idForce_Spring@@SAPAVidClass@@XZ 1037dff0 f   Force_Spring.obj
 0002:001b4120       ?GetType@idForce_Spring@@UBEPAVidTypeInfo@@XZ 1037e120 f   Force_Spring.obj
 0002:001b4160       ??0idForce_Spring@@QAE@XZ  1037e160 f   Force_Spring.obj
 0002:001b42a0       ??_GidForce_Spring@@UAEPAXI@Z 1037e2a0 f i Force_Spring.obj
 0002:001b42a0       ??_EidForce_Spring@@UAEPAXI@Z 1037e2a0 f i Force_Spring.obj
 0002:001b4310       ??1idForce_Spring@@UAE@XZ  1037e310 f   Force_Spring.obj
 0002:001b4370       ?InitSpring@idForce_Spring@@QAEXMMMM@Z 1037e370 f   Force_Spring.obj
 0002:001b43e0       ?SetPosition@idForce_Spring@@QAEXPAVidPhysics@@HABVidVec3@@0H1@Z 1037e3e0 f   Force_Spring.obj
 0002:001b4480       ?Evaluate@idForce_Spring@@UAEXH@Z 1037e480 f   Force_Spring.obj
 0002:001b4be0       ??0impactInfo_s@@QAE@XZ    1037ebe0 f i Force_Spring.obj
 0002:001b4c60       ?RemovePhysics@idForce_Spring@@UAEXPBVidPhysics@@@Z 1037ec60 f   Force_Spring.obj
 0002:001b4cd0       ?CreateInstance@idPhysics@@SAPAVidClass@@XZ 1037ecd0 f   Physics.obj
 0002:001b4d30       ?GetType@idPhysics@@UBEPAVidTypeInfo@@XZ 1037ed30 f   Physics.obj
 0002:001b4d70       ??1idPhysics@@UAE@XZ       1037ed70 f   Physics.obj
 0002:001b4dd0       ??_EidPhysics@@UAEPAXI@Z   1037edd0 f i Physics.obj
 0002:001b4dd0       ??_GidPhysics@@UAEPAXI@Z   1037edd0 f i Physics.obj
 0002:001b4e40       ?Save@idPhysics@@QBEXPAVidSaveGame@@@Z 1037ee40 f   Physics.obj
 0002:001b4e80       ?Restore@idPhysics@@QAEXPAVidRestoreGame@@@Z 1037ee80 f   Physics.obj
 0002:001b4ec0       ?SetClipBox@idPhysics@@UAEXABVidBounds@@M@Z 1037eec0 f   Physics.obj
 0002:001b4fe0       ?SnapTimeToPhysicsFrame@idPhysics@@SAHH@Z 1037efe0 f   Physics.obj
 0002:001b5040       ?CreateInstance@idPhysics_Actor@@SAPAVidClass@@XZ 1037f040 f   Physics_Actor.obj
 0002:001b5170       ?GetType@idPhysics_Actor@@UBEPAVidTypeInfo@@XZ 1037f170 f   Physics_Actor.obj
 0002:001b51b0       ??0idPhysics_Actor@@QAE@XZ 1037f1b0 f   Physics_Actor.obj
 0002:001b52e0       ??_GidPhysics_Actor@@UAEPAXI@Z 1037f2e0 f i Physics_Actor.obj
 0002:001b52e0       ??_EidPhysics_Actor@@UAEPAXI@Z 1037f2e0 f i Physics_Actor.obj
 0002:001b5350       ??1idPhysics_Actor@@UAE@XZ 1037f350 f   Physics_Actor.obj
 0002:001b5450       ?Save@idPhysics_Actor@@QBEXPAVidSaveGame@@@Z 1037f450 f   Physics_Actor.obj
 0002:001b5540       ?Restore@idPhysics_Actor@@QAEXPAVidRestoreGame@@@Z 1037f540 f   Physics_Actor.obj
 0002:001b5630       ?SetClipModelAxis@idPhysics_Actor@@QAEXXZ 1037f630 f   Physics_Actor.obj
 0002:001b57c0       ?GetGravityAxis@idPhysics_Actor@@QBEABVidMat3@@XZ 1037f7c0 f   Physics_Actor.obj
 0002:001b5800       ?GetMasterDeltaYaw@idPhysics_Actor@@QBEMXZ 1037f800 f   Physics_Actor.obj
 0002:001b5840       ?GetGroundEntity@idPhysics_Actor@@QBEPAVidEntity@@XZ 1037f840 f   Physics_Actor.obj
 0002:001b58a0       ?SetClipModel@idPhysics_Actor@@UAEXPAVidClipModel@@MH_N@Z 1037f8a0 f   Physics_Actor.obj
 0002:001b5a90       ?GetClipModel@idPhysics_Actor@@UBEPAVidClipModel@@H@Z 1037fa90 f   Physics_Actor.obj
 0002:001b5ad0       ?GetNumClipModels@idPhysics_Actor@@UBEHXZ 1037fad0 f   Physics_Actor.obj
 0002:001b5b10       ?SetMass@idPhysics_Actor@@UAEXMH@Z 1037fb10 f   Physics_Actor.obj
 0002:001b5bc0       ?GetMass@idPhysics_Actor@@UBEMH@Z 1037fbc0 f   Physics_Actor.obj
 0002:001b5c00       ?SetContents@idPhysics_Actor@@UAEXHH@Z 1037fc00 f   Physics_Actor.obj
 0002:001b5c60       ?GetContents@idPhysics_Actor@@UBEHH@Z 1037fc60 f   Physics_Actor.obj
 0002:001b5cc0       ?GetBounds@idPhysics_Actor@@UBEABVidBounds@@H@Z 1037fcc0 f   Physics_Actor.obj
 0002:001b5d20       ?GetAbsBounds@idPhysics_Actor@@UBEABVidBounds@@H@Z 1037fd20 f   Physics_Actor.obj
 0002:001b5d80       ?IsPushable@idPhysics_Actor@@UBE_NXZ 1037fd80 f   Physics_Actor.obj
 0002:001b5dd0       ?GetOrigin@idPhysics_Actor@@UBEABVidVec3@@H@Z 1037fdd0 f   Physics_Actor.obj
 0002:001b5e30       ?GetAxis@idPhysics_Actor@@UBEABVidMat3@@H@Z 1037fe30 f   Physics_Actor.obj
 0002:001b5e90       ?SetGravity@idPhysics_Actor@@UAEXABVidVec3@@@Z 1037fe90 f   Physics_Actor.obj
 0002:001b5f10       ?ClipTranslation@idPhysics_Actor@@UBEXAAUtrace_s@@ABVidVec3@@PBVidClipModel@@@Z 1037ff10 f   Physics_Actor.obj
 0002:001b6060       ?ClipRotation@idPhysics_Actor@@UBEXAAUtrace_s@@ABVidRotation@@PBVidClipModel@@@Z 10380060 f   Physics_Actor.obj
 0002:001b6170       ?ClipContents@idPhysics_Actor@@UBEHPBVidClipModel@@@Z 10380170 f   Physics_Actor.obj
 0002:001b6260       ?DisableClip@idPhysics_Actor@@UAEXXZ 10380260 f   Physics_Actor.obj
 0002:001b62c0       ?EnableClip@idPhysics_Actor@@UAEXXZ 103802c0 f   Physics_Actor.obj
 0002:001b6320       ?UnlinkClip@idPhysics_Actor@@UAEXXZ 10380320 f   Physics_Actor.obj
 0002:001b6380       ?LinkClip@idPhysics_Actor@@UAEXXZ 10380380 f   Physics_Actor.obj
 0002:001b6410       ?EvaluateContacts@idPhysics_Actor@@UAE_NXZ 10380410 f   Physics_Actor.obj
 0002:001b64b0       ?Num@?$idList@UcontactInfo_t@@@@QBEHXZ 103804b0 f i Physics_Actor.obj
 0002:001b64f0       ?CreateInstance@idPhysics_AF@@SAPAVidClass@@XZ 103804f0 f   Physics_AF.obj
 0002:001b6620       ?GetType@idPhysics_AF@@UBEPAVidTypeInfo@@XZ 10380620 f   Physics_AF.obj
 0002:001b6660       ??0idAFConstraint@@QAE@XZ  10380660 f   Physics_AF.obj
 0002:001b69f0       ??GidVec6@@QBE?AV0@XZ      103809f0 f i Physics_AF.obj
 0002:001b6aa0       ??0idVec6@@QAE@MMMMMM@Z    10380aa0 f i Physics_AF.obj
 0002:001b6b20       ??0idVecX@@QAE@XZ          10380b20 f i Physics_AF.obj
 0002:001b6b80       ??1idVecX@@QAE@XZ          10380b80 f i Physics_AF.obj
 0002:001b6c20       ?SetSize@idVecX@@QAEXH@Z   10380c20 f i Physics_AF.obj
 0002:001b6d20       ?Zero@idVecX@@QAEXH@Z      10380d20 f i Physics_AF.obj
 0002:001b6db0       ?SubVec6@idVecX@@QAEAAVidVec6@@H@Z 10380db0 f i Physics_AF.obj
 0002:001b6e50       ??0idMatX@@QAE@XZ          10380e50 f i Physics_AF.obj
 0002:001b6ec0       ??1idMatX@@QAE@XZ          10380ec0 f i Physics_AF.obj
 0002:001b6f60       ??_GidAFConstraint@@UAEPAXI@Z 10380f60 f i Physics_AF.obj
 0002:001b6f60       ??_EidAFConstraint@@UAEPAXI@Z 10380f60 f i Physics_AF.obj
 0002:001b6fd0       ??1idAFConstraint@@UAE@XZ  10380fd0 f   Physics_AF.obj
 0002:001b7150       ?SetBody1@idAFConstraint@@UAEXPAVidAFBody@@@Z 10381150 f   Physics_AF.obj
 0002:001b71d0       ?SetBody2@idAFConstraint@@UAEXPAVidAFBody@@@Z 103811d0 f   Physics_AF.obj
 0002:001b7250       ?GetMultiplier@idAFConstraint@@QAEABVidVecX@@XZ 10381250 f   Physics_AF.obj
 0002:001b7290       ?Evaluate@idAFConstraint@@MAEXM@Z 10381290 f   Physics_AF.obj
 0002:001b7310       ?ApplyFriction@idAFConstraint@@MAEXM@Z 10381310 f   Physics_AF.obj
 0002:001b7350       ?GetForce@idAFConstraint@@UAEXPAVidAFBody@@AAVidVec6@@@Z 10381350 f   Physics_AF.obj
 0002:001b7570       ??AidVec6@@QAEAAMH@Z       10381570 f i Physics_AF.obj
 0002:001b75c0       ??AidVecX@@QAEAAMH@Z       103815c0 f i Physics_AF.obj
 0002:001b7660       ?SetData@idVecX@@QAEXHPAM@Z 10381660 f i Physics_AF.obj
 0002:001b7790       ?Zero@idVecX@@QAEXXZ       10381790 f i Physics_AF.obj
 0002:001b7810       ?TransposeMultiply@idMatX@@QBEXAAVidVecX@@ABV2@@Z 10381810 f i Physics_AF.obj
 0002:001b7890       ?Translate@idAFConstraint@@UAEXABVidVec3@@@Z 10381890 f   Physics_AF.obj
 0002:001b7910       ?Rotate@idAFConstraint@@UAEXABVidRotation@@@Z 10381910 f   Physics_AF.obj
 0002:001b7990       ?GetCenter@idAFConstraint@@UAEXAAVidVec3@@@Z 10381990 f   Physics_AF.obj
 0002:001b79f0       ?DebugDraw@idAFConstraint@@UAEXXZ 103819f0 f   Physics_AF.obj
 0002:001b7a30       ?InitSize@idAFConstraint@@IAEXH@Z 10381a30 f   Physics_AF.obj
 0002:001b7b00       ?Zero@idMatX@@QAEXHH@Z     10381b00 f i Physics_AF.obj
 0002:001b7ba0       ?SetSize@idMatX@@QAEXHH@Z  10381ba0 f i Physics_AF.obj
 0002:001b7d10       ?Save@idAFConstraint@@UBEXPAVidSaveGame@@@Z 10381d10 f   Physics_AF.obj
 0002:001b7d70       ?Restore@idAFConstraint@@UAEXPAVidRestoreGame@@@Z 10381d70 f   Physics_AF.obj
 0002:001b7e30       ??0idAFConstraint_Fixed@@QAE@ABVidStr@@PAVidAFBody@@1@Z 10381e30 f   Physics_AF.obj
 0002:001b7fa0       ??_GidAFConstraint_Fixed@@UAEPAXI@Z 10381fa0 f i Physics_AF.obj
 0002:001b7fa0       ??_EidAFConstraint_Fixed@@UAEPAXI@Z 10381fa0 f i Physics_AF.obj
 0002:001b8010       ??1idAFConstraint_Fixed@@UAE@XZ 10382010 f i Physics_AF.obj
 0002:001b8060       ?InitOffset@idAFConstraint_Fixed@@IAEXXZ 10382060 f   Physics_AF.obj
 0002:001b81c0       ?SetBody1@idAFConstraint_Fixed@@UAEXPAVidAFBody@@@Z 103821c0 f   Physics_AF.obj
 0002:001b8250       ?SetBody2@idAFConstraint_Fixed@@UAEXPAVidAFBody@@@Z 10382250 f   Physics_AF.obj
 0002:001b82e0       ?Evaluate@idAFConstraint_Fixed@@MAEXM@Z 103822e0 f   Physics_AF.obj
 0002:001b8710       ?Clamp@idVecX@@QAEXMM@Z    10382710 f i Physics_AF.obj
 0002:001b87d0       ?SubVec3@idVecX@@QAEAAVidVec3@@H@Z 103827d0 f i Physics_AF.obj
 0002:001b8870       ?SkewSymmetric@@YA?AVidMat3@@ABVidVec3@@@Z 10382870 f i Physics_AF.obj
 0002:001b8910       ?Set@idMatX@@QAEXABVidMat3@@000@Z 10382910 f i Physics_AF.obj
 0002:001b8ab0       ?GetMasterBody@idPhysics_AF@@QBEPAVidAFBody@@XZ 10382ab0 f i Physics_AF.obj
 0002:001b8af0       ?ApplyFriction@idAFConstraint_Fixed@@MAEXM@Z 10382af0 f   Physics_AF.obj
 0002:001b8b30       ?Translate@idAFConstraint_Fixed@@UAEXABVidVec3@@@Z 10382b30 f   Physics_AF.obj
 0002:001b8ba0       ?Rotate@idAFConstraint_Fixed@@UAEXABVidRotation@@@Z 10382ba0 f   Physics_AF.obj
 0002:001b8c30       ??X@YAAAVidVec3@@AAV0@ABVidRotation@@@Z 10382c30 f i Physics_AF.obj
 0002:001b8ca0       ?GetCenter@idAFConstraint_Fixed@@UAEXAAVidVec3@@@Z 10382ca0 f   Physics_AF.obj
 0002:001b8d00       ?DebugDraw@idAFConstraint_Fixed@@UAEXXZ 10382d00 f   Physics_AF.obj
 0002:001b8e20       ?Save@idAFConstraint_Fixed@@UBEXPAVidSaveGame@@@Z 10382e20 f   Physics_AF.obj
 0002:001b8ea0       ?Restore@idAFConstraint_Fixed@@UAEXPAVidRestoreGame@@@Z 10382ea0 f   Physics_AF.obj
 0002:001b8f20       ??0idAFConstraint_BallAndSocketJoint@@QAE@ABVidStr@@PAVidAFBody@@1@Z 10382f20 f   Physics_AF.obj
 0002:001b90d0       ??_EidAFConstraint_BallAndSocketJoint@@UAEPAXI@Z 103830d0 f i Physics_AF.obj
 0002:001b90d0       ??_GidAFConstraint_BallAndSocketJoint@@UAEPAXI@Z 103830d0 f i Physics_AF.obj
 0002:001b9140       ??1idAFConstraint_BallAndSocketJoint@@UAE@XZ 10383140 f   Physics_AF.obj
 0002:001b92c0       ?SetAnchor@idAFConstraint_BallAndSocketJoint@@QAEXABVidVec3@@@Z 103832c0 f   Physics_AF.obj
 0002:001b9460       ?GetAnchor@idAFConstraint_BallAndSocketJoint@@QBE?AVidVec3@@XZ 10383460 f   Physics_AF.obj
 0002:001b9530       ?SetNoLimit@idAFConstraint_BallAndSocketJoint@@QAEXXZ 10383530 f   Physics_AF.obj
 0002:001b9680       ?SetConeLimit@idAFConstraint_BallAndSocketJoint@@QAEXABVidVec3@@M0@Z 10383680 f   Physics_AF.obj
 0002:001b9950       ?SetPhysics@idAFConstraint@@QAEXPAVidPhysics_AF@@@Z 10383950 f i Physics_AF.obj
 0002:001b99a0       ?SetPyramidLimit@idAFConstraint_BallAndSocketJoint@@QAEXABVidVec3@@0MM0@Z 103839a0 f   Physics_AF.obj
 0002:001b9cb0       ?SetLimitEpsilon@idAFConstraint_BallAndSocketJoint@@QAEXM@Z 10383cb0 f   Physics_AF.obj
 0002:001b9d50       ?SetEpsilon@idAFConstraint_ConeLimit@@QAEXM@Z 10383d50 f i Physics_AF.obj
 0002:001b9da0       ?SetEpsilon@idAFConstraint_PyramidLimit@@QAEXM@Z 10383da0 f i Physics_AF.obj
 0002:001b9df0       ?GetFriction@idAFConstraint_BallAndSocketJoint@@QBEMXZ 10383df0 f   Physics_AF.obj
 0002:001b9e80       ?Evaluate@idAFConstraint_BallAndSocketJoint@@MAEXM@Z 10383e80 f   Physics_AF.obj
 0002:001ba240       ?Set@idMatX@@QAEXABVidMat3@@0@Z 10384240 f i Physics_AF.obj
 0002:001ba350       ?ApplyFriction@idAFConstraint_BallAndSocketJoint@@MAEXM@Z 10384350 f   Physics_AF.obj
 0002:001ba650       ?GetAngularVelocity@idAFBody@@QBEABVidVec3@@XZ 10384650 f i Physics_AF.obj
 0002:001ba6b0       ?SetAngularVelocity@idAFBody@@QBEXABVidVec3@@@Z 103846b0 f i Physics_AF.obj
 0002:001ba720       ?GetInverseMass@idAFBody@@QBEMXZ 10384720 f i Physics_AF.obj
 0002:001ba760       ?GetForce@idAFConstraint_BallAndSocketJoint@@UAEXPAVidAFBody@@AAVidVec6@@@Z 10384760 f   Physics_AF.obj
 0002:001ba7c0       ?Translate@idAFConstraint_BallAndSocketJoint@@UAEXABVidVec3@@@Z 103847c0 f   Physics_AF.obj
 0002:001ba8b0       ?Rotate@idAFConstraint_BallAndSocketJoint@@UAEXABVidRotation@@@Z 103848b0 f   Physics_AF.obj
 0002:001ba9a0       ?GetCenter@idAFConstraint_BallAndSocketJoint@@UAEXAAVidVec3@@@Z 103849a0 f   Physics_AF.obj
 0002:001baa50       ?DebugDraw@idAFConstraint_BallAndSocketJoint@@UAEXXZ 10384a50 f   Physics_AF.obj
 0002:001bad40       ?Save@idAFConstraint_BallAndSocketJoint@@UBEXPAVidSaveGame@@@Z 10384d40 f   Physics_AF.obj
 0002:001bae50       ?Restore@idAFConstraint_BallAndSocketJoint@@UAEXPAVidRestoreGame@@@Z 10384e50 f   Physics_AF.obj
 0002:001baf60       ??0idAFConstraint_BallAndSocketJointFriction@@QAE@XZ 10384f60 f   Physics_AF.obj
 0002:001bb070       ??_EidAFConstraint_BallAndSocketJointFriction@@UAEPAXI@Z 10385070 f i Physics_AF.obj
 0002:001bb070       ??_GidAFConstraint_BallAndSocketJointFriction@@UAEPAXI@Z 10385070 f i Physics_AF.obj
 0002:001bb0e0       ??1idAFConstraint_BallAndSocketJointFriction@@UAE@XZ 103850e0 f i Physics_AF.obj
 0002:001bb130       ?Setup@idAFConstraint_BallAndSocketJointFriction@@QAEXPAVidAFConstraint_BallAndSocketJoint@@@Z 10385130 f   Physics_AF.obj
 0002:001bb1b0       ?GetBody1@idAFConstraint@@QBEPAVidAFBody@@XZ 103851b0 f i Physics_AF.obj
 0002:001bb1f0       ?Evaluate@idAFConstraint_BallAndSocketJointFriction@@MAEXM@Z 103851f0 f   Physics_AF.obj
 0002:001bb230       ?ApplyFriction@idAFConstraint_BallAndSocketJointFriction@@MAEXM@Z 10385230 f   Physics_AF.obj
 0002:001bb270       ?Add@idAFConstraint_BallAndSocketJointFriction@@QAE_NPAVidPhysics_AF@@M@Z 10385270 f   Physics_AF.obj
 0002:001bb4b0       ?Length@idVecX@@QBEMXZ     103854b0 f i Physics_AF.obj
 0002:001bb560       ??AidMatX@@QAEPAMH@Z       10385560 f i Physics_AF.obj
 0002:001bb600       ?Translate@idAFConstraint_BallAndSocketJointFriction@@UAEXABVidVec3@@@Z 10385600 f   Physics_AF.obj
 0002:001bb640       ?Rotate@idAFConstraint_BallAndSocketJointFriction@@UAEXABVidRotation@@@Z 10385640 f   Physics_AF.obj
 0002:001bb680       ??0idAFConstraint_UniversalJoint@@QAE@ABVidStr@@PAVidAFBody@@1@Z 10385680 f   Physics_AF.obj
 0002:001bb870       ??_GidAFConstraint_UniversalJoint@@UAEPAXI@Z 10385870 f i Physics_AF.obj
 0002:001bb870       ??_EidAFConstraint_UniversalJoint@@UAEPAXI@Z 10385870 f i Physics_AF.obj
 0002:001bb8e0       ??1idAFConstraint_UniversalJoint@@UAE@XZ 103858e0 f   Physics_AF.obj
 0002:001bbad0       ?SetAnchor@idAFConstraint_UniversalJoint@@QAEXABVidVec3@@@Z 10385ad0 f   Physics_AF.obj
 0002:001bbc70       ?GetAnchor@idAFConstraint_UniversalJoint@@QBE?AVidVec3@@XZ 10385c70 f   Physics_AF.obj
 0002:001bbd40       ?SetShafts@idAFConstraint_UniversalJoint@@QAEXABVidVec3@@0@Z 10385d40 f   Physics_AF.obj
 0002:001bc0c0       ?SetNoLimit@idAFConstraint_UniversalJoint@@QAEXXZ 103860c0 f   Physics_AF.obj
 0002:001bc210       ?SetConeLimit@idAFConstraint_UniversalJoint@@QAEXABVidVec3@@M@Z 10386210 f   Physics_AF.obj
 0002:001bc470       ?SetPyramidLimit@idAFConstraint_UniversalJoint@@QAEXABVidVec3@@0MM@Z 10386470 f   Physics_AF.obj
 0002:001bc720       ?SetLimitEpsilon@idAFConstraint_UniversalJoint@@QAEXM@Z 10386720 f   Physics_AF.obj
 0002:001bc7c0       ?GetFriction@idAFConstraint_UniversalJoint@@QBEMXZ 103867c0 f   Physics_AF.obj
 0002:001bc850       ?Evaluate@idAFConstraint_UniversalJoint@@MAEXM@Z 10386850 f   Physics_AF.obj
 0002:001bd0f0       ?ApplyFriction@idAFConstraint_UniversalJoint@@MAEXM@Z 103870f0 f   Physics_AF.obj
 0002:001bd3f0       ?GetForce@idAFConstraint_UniversalJoint@@UAEXPAVidAFBody@@AAVidVec6@@@Z 103873f0 f   Physics_AF.obj
 0002:001bd450       ?Translate@idAFConstraint_UniversalJoint@@UAEXABVidVec3@@@Z 10387450 f   Physics_AF.obj
 0002:001bd540       ?Rotate@idAFConstraint_UniversalJoint@@UAEXABVidRotation@@@Z 10387540 f   Physics_AF.obj
 0002:001bd670       ?GetCenter@idAFConstraint_UniversalJoint@@UAEXAAVidVec3@@@Z 10387670 f   Physics_AF.obj
 0002:001bd720       ?DebugDraw@idAFConstraint_UniversalJoint@@UAEXXZ 10387720 f   Physics_AF.obj
 0002:001bde70       ?Save@idAFConstraint_UniversalJoint@@UBEXPAVidSaveGame@@@Z 10387e70 f   Physics_AF.obj
 0002:001bdfe0       ?Restore@idAFConstraint_UniversalJoint@@UAEXPAVidRestoreGame@@@Z 10387fe0 f   Physics_AF.obj
 0002:001be150       ??0idAFConstraint_UniversalJointFriction@@QAE@XZ 10388150 f   Physics_AF.obj
 0002:001be260       ??_GidAFConstraint_UniversalJointFriction@@UAEPAXI@Z 10388260 f i Physics_AF.obj
 0002:001be260       ??_EidAFConstraint_UniversalJointFriction@@UAEPAXI@Z 10388260 f i Physics_AF.obj
 0002:001be2d0       ??1idAFConstraint_UniversalJointFriction@@UAE@XZ 103882d0 f i Physics_AF.obj
 0002:001be320       ?Setup@idAFConstraint_UniversalJointFriction@@QAEXPAVidAFConstraint_UniversalJoint@@@Z 10388320 f   Physics_AF.obj
 0002:001be3a0       ?Evaluate@idAFConstraint_UniversalJointFriction@@MAEXM@Z 103883a0 f   Physics_AF.obj
 0002:001be3e0       ?ApplyFriction@idAFConstraint_UniversalJointFriction@@MAEXM@Z 103883e0 f   Physics_AF.obj
 0002:001be420       ?Add@idAFConstraint_UniversalJointFriction@@QAE_NPAVidPhysics_AF@@M@Z 10388420 f   Physics_AF.obj
 0002:001be7d0       ?SubVec6@idMatX@@QAEAAVidVec6@@H@Z 103887d0 f i Physics_AF.obj
 0002:001be880       ?GetShafts@idAFConstraint_UniversalJoint@@QAEXAAVidVec3@@0@Z 10388880 f i Physics_AF.obj
 0002:001be900       ?Translate@idAFConstraint_UniversalJointFriction@@UAEXABVidVec3@@@Z 10388900 f   Physics_AF.obj
 0002:001be940       ?Rotate@idAFConstraint_UniversalJointFriction@@UAEXABVidRotation@@@Z 10388940 f   Physics_AF.obj
 0002:001be980       ??0idAFConstraint_CylindricalJoint@@QAE@ABVidStr@@PAVidAFBody@@1@Z 10388980 f   Physics_AF.obj
 0002:001bea50       ??_EidAFConstraint_CylindricalJoint@@UAEPAXI@Z 10388a50 f i Physics_AF.obj
 0002:001bea50       ??_GidAFConstraint_CylindricalJoint@@UAEPAXI@Z 10388a50 f i Physics_AF.obj
 0002:001beac0       ??1idAFConstraint_CylindricalJoint@@UAE@XZ 10388ac0 f i Physics_AF.obj
 0002:001beb10       ?Evaluate@idAFConstraint_CylindricalJoint@@MAEXM@Z 10388b10 f   Physics_AF.obj
 0002:001beb90       ?ApplyFriction@idAFConstraint_CylindricalJoint@@MAEXM@Z 10388b90 f   Physics_AF.obj
 0002:001bec10       ?Translate@idAFConstraint_CylindricalJoint@@UAEXABVidVec3@@@Z 10388c10 f   Physics_AF.obj
 0002:001bec90       ?Rotate@idAFConstraint_CylindricalJoint@@UAEXABVidRotation@@@Z 10388c90 f   Physics_AF.obj
 0002:001bed10       ?DebugDraw@idAFConstraint_CylindricalJoint@@UAEXXZ 10388d10 f   Physics_AF.obj
 0002:001bed90       ??0idAFConstraint_Hinge@@QAE@ABVidStr@@PAVidAFBody@@1@Z 10388d90 f   Physics_AF.obj
 0002:001befc0       ??_EidAFConstraint_Hinge@@UAEPAXI@Z 10388fc0 f i Physics_AF.obj
 0002:001befc0       ??_GidAFConstraint_Hinge@@UAEPAXI@Z 10388fc0 f i Physics_AF.obj
 0002:001bf030       ??1idAFConstraint_Hinge@@UAE@XZ 10389030 f   Physics_AF.obj
 0002:001bf220       ?SetAnchor@idAFConstraint_Hinge@@QAEXABVidVec3@@@Z 10389220 f   Physics_AF.obj
 0002:001bf390       ?GetAnchor@idAFConstraint_Hinge@@QBE?AVidVec3@@XZ 10389390 f   Physics_AF.obj
 0002:001bf460       ?SetAxis@idAFConstraint_Hinge@@QAEXABVidVec3@@@Z 10389460 f   Physics_AF.obj
 0002:001bf5c0       ?GetAxis@idAFConstraint_Hinge@@QBE?AVidVec3@@XZ 103895c0 f   Physics_AF.obj
 0002:001bf670       ?SetNoLimit@idAFConstraint_Hinge@@QAEXXZ 10389670 f   Physics_AF.obj
 0002:001bf740       ?SetLimit@idAFConstraint_Hinge@@QAEXABVidVec3@@M0@Z 10389740 f   Physics_AF.obj
 0002:001bf980       ?SetLimitEpsilon@idAFConstraint_Hinge@@QAEXM@Z 10389980 f   Physics_AF.obj
 0002:001bf9f0       ?GetFriction@idAFConstraint_Hinge@@QBEMXZ 103899f0 f   Physics_AF.obj
 0002:001bfa80       ?GetAngle@idAFConstraint_Hinge@@QBEMXZ 10389a80 f   Physics_AF.obj
 0002:001bfc20       ?SetSteerAngle@idAFConstraint_Hinge@@QAEXM@Z 10389c20 f   Physics_AF.obj
 0002:001bfdd0       ?SetSteerAngle@idAFConstraint_HingeSteering@@QAEXM@Z 10389dd0 f i Physics_AF.obj
 0002:001bfe20       ?SetSteerSpeed@idAFConstraint_Hinge@@QAEXM@Z 10389e20 f   Physics_AF.obj
 0002:001bfe90       ?SetSteerSpeed@idAFConstraint_HingeSteering@@QAEXM@Z 10389e90 f i Physics_AF.obj
 0002:001bfee0       ?Evaluate@idAFConstraint_Hinge@@MAEXM@Z 10389ee0 f   Physics_AF.obj
 0002:001c0620       ?ApplyFriction@idAFConstraint_Hinge@@MAEXM@Z 1038a620 f   Physics_AF.obj
 0002:001c0920       ?GetForce@idAFConstraint_Hinge@@UAEXPAVidAFBody@@AAVidVec6@@@Z 1038a920 f   Physics_AF.obj
 0002:001c0980       ?Translate@idAFConstraint_Hinge@@UAEXABVidVec3@@@Z 1038a980 f   Physics_AF.obj
 0002:001c0a30       ?Rotate@idAFConstraint_Hinge@@UAEXABVidRotation@@@Z 1038aa30 f   Physics_AF.obj
 0002:001c0b00       ?GetCenter@idAFConstraint_Hinge@@UAEXAAVidVec3@@@Z 1038ab00 f   Physics_AF.obj
 0002:001c0bb0       ?DebugDraw@idAFConstraint_Hinge@@UAEXXZ 1038abb0 f   Physics_AF.obj
 0002:001c0fa0       ?Save@idAFConstraint_Hinge@@UBEXPAVidSaveGame@@@Z 1038afa0 f   Physics_AF.obj
 0002:001c1180       ?Restore@idAFConstraint_Hinge@@UAEXPAVidRestoreGame@@@Z 1038b180 f   Physics_AF.obj
 0002:001c1580       ??0idAFConstraint_HingeFriction@@QAE@XZ 1038b580 f   Physics_AF.obj
 0002:001c1690       ??_EidAFConstraint_HingeFriction@@UAEPAXI@Z 1038b690 f i Physics_AF.obj
 0002:001c1690       ??_GidAFConstraint_HingeFriction@@UAEPAXI@Z 1038b690 f i Physics_AF.obj
 0002:001c1700       ??1idAFConstraint_HingeFriction@@UAE@XZ 1038b700 f i Physics_AF.obj
 0002:001c1750       ?Setup@idAFConstraint_HingeFriction@@QAEXPAVidAFConstraint_Hinge@@@Z 1038b750 f   Physics_AF.obj
 0002:001c17d0       ?Evaluate@idAFConstraint_HingeFriction@@MAEXM@Z 1038b7d0 f   Physics_AF.obj
 0002:001c1810       ?ApplyFriction@idAFConstraint_HingeFriction@@MAEXM@Z 1038b810 f   Physics_AF.obj
 0002:001c1850       ?Add@idAFConstraint_HingeFriction@@QAE_NPAVidPhysics_AF@@M@Z 1038b850 f   Physics_AF.obj
 0002:001c1ae0       ?GetAxis@idAFConstraint_Hinge@@QBEXAAVidVec3@@0@Z 1038bae0 f i Physics_AF.obj
 0002:001c1b60       ?Translate@idAFConstraint_HingeFriction@@UAEXABVidVec3@@@Z 1038bb60 f   Physics_AF.obj
 0002:001c1ba0       ?Rotate@idAFConstraint_HingeFriction@@UAEXABVidRotation@@@Z 1038bba0 f   Physics_AF.obj
 0002:001c1be0       ??0idAFConstraint_HingeSteering@@QAE@XZ 1038bbe0 f   Physics_AF.obj
 0002:001c1d10       ??_EidAFConstraint_HingeSteering@@UAEPAXI@Z 1038bd10 f i Physics_AF.obj
 0002:001c1d10       ??_GidAFConstraint_HingeSteering@@UAEPAXI@Z 1038bd10 f i Physics_AF.obj
 0002:001c1d80       ??1idAFConstraint_HingeSteering@@UAE@XZ 1038bd80 f i Physics_AF.obj
 0002:001c1dd0       ?Save@idAFConstraint_HingeSteering@@UBEXPAVidSaveGame@@@Z 1038bdd0 f   Physics_AF.obj
 0002:001c1e60       ?Restore@idAFConstraint_HingeSteering@@UAEXPAVidRestoreGame@@@Z 1038be60 f   Physics_AF.obj
 0002:001c1ef0       ?Setup@idAFConstraint_HingeSteering@@QAEXPAVidAFConstraint_Hinge@@@Z 1038bef0 f   Physics_AF.obj
 0002:001c1f70       ?Evaluate@idAFConstraint_HingeSteering@@MAEXM@Z 1038bf70 f   Physics_AF.obj
 0002:001c1fb0       ?ApplyFriction@idAFConstraint_HingeSteering@@MAEXM@Z 1038bfb0 f   Physics_AF.obj
 0002:001c1ff0       ?Add@idAFConstraint_HingeSteering@@QAE_NPAVidPhysics_AF@@M@Z 1038bff0 f   Physics_AF.obj
 0002:001c22b0       ?Translate@idAFConstraint_HingeSteering@@UAEXABVidVec3@@@Z 1038c2b0 f   Physics_AF.obj
 0002:001c22f0       ?Rotate@idAFConstraint_HingeSteering@@UAEXABVidRotation@@@Z 1038c2f0 f   Physics_AF.obj
 0002:001c2330       ??0idAFConstraint_Slider@@QAE@ABVidStr@@PAVidAFBody@@1@Z 1038c330 f   Physics_AF.obj
 0002:001c25b0       ??_GidAFConstraint_Slider@@UAEPAXI@Z 1038c5b0 f i Physics_AF.obj
 0002:001c25b0       ??_EidAFConstraint_Slider@@UAEPAXI@Z 1038c5b0 f i Physics_AF.obj
 0002:001c2620       ??1idAFConstraint_Slider@@UAE@XZ 1038c620 f i Physics_AF.obj
 0002:001c2670       ?SetAxis@idAFConstraint_Slider@@QAEXABVidVec3@@@Z 1038c670 f   Physics_AF.obj
 0002:001c2790       ?Evaluate@idAFConstraint_Slider@@MAEXM@Z 1038c790 f   Physics_AF.obj
 0002:001c2d00       ??0idMat3@@QAE@ABVidVec3@@00@Z 1038cd00 f i Physics_AF.obj
 0002:001c2df0       ?ApplyFriction@idAFConstraint_Slider@@MAEXM@Z 1038cdf0 f   Physics_AF.obj
 0002:001c2e30       ?Translate@idAFConstraint_Slider@@UAEXABVidVec3@@@Z 1038ce30 f   Physics_AF.obj
 0002:001c2ea0       ?Rotate@idAFConstraint_Slider@@UAEXABVidRotation@@@Z 1038cea0 f   Physics_AF.obj
 0002:001c2f10       ?GetCenter@idAFConstraint_Slider@@UAEXAAVidVec3@@@Z 1038cf10 f   Physics_AF.obj
 0002:001c3050       ?DebugDraw@idAFConstraint_Slider@@UAEXXZ 1038d050 f   Physics_AF.obj
 0002:001c3240       ?Save@idAFConstraint_Slider@@UBEXPAVidSaveGame@@@Z 1038d240 f   Physics_AF.obj
 0002:001c32e0       ?Restore@idAFConstraint_Slider@@UAEXPAVidRestoreGame@@@Z 1038d2e0 f   Physics_AF.obj
 0002:001c3380       ??0idAFConstraint_Line@@QAE@ABVidStr@@PAVidAFBody@@1@Z 1038d380 f   Physics_AF.obj
 0002:001c3450       ??_EidAFConstraint_Line@@UAEPAXI@Z 1038d450 f i Physics_AF.obj
 0002:001c3450       ??_GidAFConstraint_Line@@UAEPAXI@Z 1038d450 f i Physics_AF.obj
 0002:001c34c0       ??1idAFConstraint_Line@@UAE@XZ 1038d4c0 f i Physics_AF.obj
 0002:001c3510       ?Evaluate@idAFConstraint_Line@@MAEXM@Z 1038d510 f   Physics_AF.obj
 0002:001c3590       ?ApplyFriction@idAFConstraint_Line@@MAEXM@Z 1038d590 f   Physics_AF.obj
 0002:001c3610       ?Translate@idAFConstraint_Line@@UAEXABVidVec3@@@Z 1038d610 f   Physics_AF.obj
 0002:001c3690       ?Rotate@idAFConstraint_Line@@UAEXABVidRotation@@@Z 1038d690 f   Physics_AF.obj
 0002:001c3710       ?DebugDraw@idAFConstraint_Line@@UAEXXZ 1038d710 f   Physics_AF.obj
 0002:001c3790       ??0idAFConstraint_Plane@@QAE@ABVidStr@@PAVidAFBody@@1@Z 1038d790 f   Physics_AF.obj
 0002:001c3910       ??_EidAFConstraint_Plane@@UAEPAXI@Z 1038d910 f i Physics_AF.obj
 0002:001c3910       ??_GidAFConstraint_Plane@@UAEPAXI@Z 1038d910 f i Physics_AF.obj
 0002:001c3980       ??1idAFConstraint_Plane@@UAE@XZ 1038d980 f i Physics_AF.obj
 0002:001c39d0       ?SetPlane@idAFConstraint_Plane@@QAEXABVidVec3@@0@Z 1038d9d0 f   Physics_AF.obj
 0002:001c3b80       ?Evaluate@idAFConstraint_Plane@@MAEXM@Z 1038db80 f   Physics_AF.obj
 0002:001c3fd0       ??0idVec6@@QAE@XZ          1038dfd0 f i Physics_AF.obj
 0002:001c4010       ?ToFloatPtr@idVec6@@QAEPAMXZ 1038e010 f i Physics_AF.obj
 0002:001c4050       ?Set@idMatX@@QAEXHHPBM@Z   1038e050 f i Physics_AF.obj
 0002:001c40d0       ?ApplyFriction@idAFConstraint_Plane@@MAEXM@Z 1038e0d0 f   Physics_AF.obj
 0002:001c4110       ?Translate@idAFConstraint_Plane@@UAEXABVidVec3@@@Z 1038e110 f   Physics_AF.obj
 0002:001c4180       ?Rotate@idAFConstraint_Plane@@UAEXABVidRotation@@@Z 1038e180 f   Physics_AF.obj
 0002:001c4210       ?DebugDraw@idAFConstraint_Plane@@UAEXXZ 1038e210 f   Physics_AF.obj
 0002:001c4530       ?Save@idAFConstraint_Plane@@UBEXPAVidSaveGame@@@Z 1038e530 f   Physics_AF.obj
 0002:001c45d0       ?Restore@idAFConstraint_Plane@@UAEXPAVidRestoreGame@@@Z 1038e5d0 f   Physics_AF.obj
 0002:001c4670       ??0idAFConstraint_Spring@@QAE@ABVidStr@@PAVidAFBody@@1@Z 1038e670 f   Physics_AF.obj
 0002:001c4820       ??_EidAFConstraint_Spring@@UAEPAXI@Z 1038e820 f i Physics_AF.obj
 0002:001c4820       ??_GidAFConstraint_Spring@@UAEPAXI@Z 1038e820 f i Physics_AF.obj
 0002:001c4890       ??1idAFConstraint_Spring@@UAE@XZ 1038e890 f i Physics_AF.obj
 0002:001c48e0       ?SetAnchor@idAFConstraint_Spring@@QAEXABVidVec3@@0@Z 1038e8e0 f   Physics_AF.obj
 0002:001c4a20       ?SetSpring@idAFConstraint_Spring@@QAEXMMMM@Z 1038ea20 f   Physics_AF.obj
 0002:001c4b10       ?SetLimit@idAFConstraint_Spring@@QAEXMM@Z 1038eb10 f   Physics_AF.obj
 0002:001c4be0       ?Evaluate@idAFConstraint_Spring@@MAEXM@Z 1038ebe0 f   Physics_AF.obj
 0002:001c5400       ?ApplyFriction@idAFConstraint_Spring@@MAEXM@Z 1038f400 f   Physics_AF.obj
 0002:001c5440       ?Translate@idAFConstraint_Spring@@UAEXABVidVec3@@@Z 1038f440 f   Physics_AF.obj
 0002:001c54b0       ?Rotate@idAFConstraint_Spring@@UAEXABVidRotation@@@Z 1038f4b0 f   Physics_AF.obj
 0002:001c5520       ?GetCenter@idAFConstraint_Spring@@UAEXAAVidVec3@@@Z 1038f520 f   Physics_AF.obj
 0002:001c5710       ?DebugDraw@idAFConstraint_Spring@@UAEXXZ 1038f710 f   Physics_AF.obj
 0002:001c5e30       ?Save@idAFConstraint_Spring@@UBEXPAVidSaveGame@@@Z 1038fe30 f   Physics_AF.obj
 0002:001c5f40       ?Restore@idAFConstraint_Spring@@UAEXPAVidRestoreGame@@@Z 1038ff40 f   Physics_AF.obj
 0002:001c6040       ??0idAFConstraint_Contact@@QAE@XZ 10390040 f   Physics_AF.obj
 0002:001c6160       ??_GidAFConstraint_Contact@@UAEPAXI@Z 10390160 f i Physics_AF.obj
 0002:001c6160       ??_EidAFConstraint_Contact@@UAEPAXI@Z 10390160 f i Physics_AF.obj
 0002:001c61d0       ??1idAFConstraint_Contact@@UAE@XZ 103901d0 f   Physics_AF.obj
 0002:001c62e0       ?Setup@idAFConstraint_Contact@@QAEXPAVidAFBody@@0AAUcontactInfo_t@@@Z 103902e0 f   Physics_AF.obj
 0002:001c6720       ?GetBouncyness@idAFBody@@QBEMXZ 10390720 f i Physics_AF.obj
 0002:001c6760       ?Evaluate@idAFConstraint_Contact@@MAEXM@Z 10390760 f   Physics_AF.obj
 0002:001c67a0       ?ApplyFriction@idAFConstraint_Contact@@MAEXM@Z 103907a0 f   Physics_AF.obj
 0002:001c6e30       ?ToFloatPtr@idVecX@@QAEPAMXZ 10390e30 f i Physics_AF.obj
 0002:001c6e70       ?GetContactFriction@idAFBody@@QBEMXZ 10390e70 f i Physics_AF.obj
 0002:001c6eb0       ?GetInverseWorldInertia@idAFBody@@QBE?AVidMat3@@XZ 10390eb0 f i Physics_AF.obj
 0002:001c6f60       ?Translate@idAFConstraint_Contact@@UAEXABVidVec3@@@Z 10390f60 f   Physics_AF.obj
 0002:001c6fe0       ?Rotate@idAFConstraint_Contact@@UAEXABVidRotation@@@Z 10390fe0 f   Physics_AF.obj
 0002:001c7060       ?GetCenter@idAFConstraint_Contact@@UAEXAAVidVec3@@@Z 10391060 f   Physics_AF.obj
 0002:001c70c0       ?DebugDraw@idAFConstraint_Contact@@UAEXXZ 103910c0 f   Physics_AF.obj
 0002:001c73b0       ??0idAFConstraint_ContactFriction@@QAE@XZ 103913b0 f   Physics_AF.obj
 0002:001c74c0       ??_GidAFConstraint_ContactFriction@@UAEPAXI@Z 103914c0 f i Physics_AF.obj
 0002:001c74c0       ??_EidAFConstraint_ContactFriction@@UAEPAXI@Z 103914c0 f i Physics_AF.obj
 0002:001c7530       ??1idAFConstraint_ContactFriction@@UAE@XZ 10391530 f i Physics_AF.obj
 0002:001c7580       ?Setup@idAFConstraint_ContactFriction@@QAEXPAVidAFConstraint_Contact@@@Z 10391580 f   Physics_AF.obj
 0002:001c7600       ?Evaluate@idAFConstraint_ContactFriction@@MAEXM@Z 10391600 f   Physics_AF.obj
 0002:001c7640       ?ApplyFriction@idAFConstraint_ContactFriction@@MAEXM@Z 10391640 f   Physics_AF.obj
 0002:001c7680       ?Add@idAFConstraint_ContactFriction@@QAE_NPAVidPhysics_AF@@M@Z 10391680 f   Physics_AF.obj
 0002:001c8240       ?ChangeSize@idVecX@@QAEXH_N@Z 10392240 f i Physics_AF.obj
 0002:001c83d0       ?GetNumRows@idMatX@@QBEHXZ 103923d0 f i Physics_AF.obj
 0002:001c8410       ?GetNumColumns@idMatX@@QBEHXZ 10392410 f i Physics_AF.obj
 0002:001c8450       ?GetContactMotorVelocity@idAFBody@@QBEMXZ 10392450 f i Physics_AF.obj
 0002:001c8490       ?GetContactMotorForce@idAFBody@@QBEMXZ 10392490 f i Physics_AF.obj
 0002:001c84d0       ?Translate@idAFConstraint_ContactFriction@@UAEXABVidVec3@@@Z 103924d0 f   Physics_AF.obj
 0002:001c8510       ?Rotate@idAFConstraint_ContactFriction@@UAEXABVidRotation@@@Z 10392510 f   Physics_AF.obj
 0002:001c8550       ?DebugDraw@idAFConstraint_ContactFriction@@UAEXXZ 10392550 f   Physics_AF.obj
 0002:001c8590       ??0idAFConstraint_ConeLimit@@QAE@XZ 10392590 f   Physics_AF.obj
 0002:001c86c0       ??_EidAFConstraint_ConeLimit@@UAEPAXI@Z 103926c0 f i Physics_AF.obj
 0002:001c86c0       ??_GidAFConstraint_ConeLimit@@UAEPAXI@Z 103926c0 f i Physics_AF.obj
 0002:001c8730       ??1idAFConstraint_ConeLimit@@UAE@XZ 10392730 f i Physics_AF.obj
 0002:001c8780       ?Setup@idAFConstraint_ConeLimit@@QAEXPAVidAFBody@@0ABVidVec3@@1M1@Z 10392780 f   Physics_AF.obj
 0002:001c88d0       ?SetAnchor@idAFConstraint_ConeLimit@@QAEXABVidVec3@@@Z 103928d0 f   Physics_AF.obj
 0002:001c8930       ?SetBody1Axis@idAFConstraint_ConeLimit@@QAEXABVidVec3@@@Z 10392930 f   Physics_AF.obj
 0002:001c8990       ?Evaluate@idAFConstraint_ConeLimit@@MAEXM@Z 10392990 f   Physics_AF.obj
 0002:001c89d0       ?ApplyFriction@idAFConstraint_ConeLimit@@MAEXM@Z 103929d0 f   Physics_AF.obj
 0002:001c8a10       ?Add@idAFConstraint_ConeLimit@@QAE_NPAVidPhysics_AF@@M@Z 10392a10 f   Physics_AF.obj
 0002:001c91d0       ?Translate@idAFConstraint_ConeLimit@@UAEXABVidVec3@@@Z 103931d0 f   Physics_AF.obj
 0002:001c9240       ?Rotate@idAFConstraint_ConeLimit@@UAEXABVidRotation@@@Z 10393240 f   Physics_AF.obj
 0002:001c92d0       ?DebugDraw@idAFConstraint_ConeLimit@@UAEXXZ 103932d0 f   Physics_AF.obj
 0002:001c9840       ?Save@idAFConstraint_ConeLimit@@UBEXPAVidSaveGame@@@Z 10393840 f   Physics_AF.obj
 0002:001c9930       ?Restore@idAFConstraint_ConeLimit@@UAEXPAVidRestoreGame@@@Z 10393930 f   Physics_AF.obj
 0002:001c9a20       ??0idAFConstraint_PyramidLimit@@QAE@XZ 10393a20 f   Physics_AF.obj
 0002:001c9b50       ??_EidAFConstraint_PyramidLimit@@UAEPAXI@Z 10393b50 f i Physics_AF.obj
 0002:001c9b50       ??_GidAFConstraint_PyramidLimit@@UAEPAXI@Z 10393b50 f i Physics_AF.obj
 0002:001c9bc0       ??1idAFConstraint_PyramidLimit@@UAE@XZ 10393bc0 f i Physics_AF.obj
 0002:001c9c10       ?Setup@idAFConstraint_PyramidLimit@@QAEXPAVidAFBody@@0ABVidVec3@@11MM1@Z 10393c10 f   Physics_AF.obj
 0002:001c9f10       ?SetAnchor@idAFConstraint_PyramidLimit@@QAEXABVidVec3@@@Z 10393f10 f   Physics_AF.obj
 0002:001c9f70       ?SetBody1Axis@idAFConstraint_PyramidLimit@@QAEXABVidVec3@@@Z 10393f70 f   Physics_AF.obj
 0002:001c9fd0       ?Evaluate@idAFConstraint_PyramidLimit@@MAEXM@Z 10393fd0 f   Physics_AF.obj
 0002:001ca010       ?ApplyFriction@idAFConstraint_PyramidLimit@@MAEXM@Z 10394010 f   Physics_AF.obj
 0002:001ca050       ?Add@idAFConstraint_PyramidLimit@@QAE_NPAVidPhysics_AF@@M@Z 10394050 f   Physics_AF.obj
 0002:001cab40       ?Translate@idAFConstraint_PyramidLimit@@UAEXABVidVec3@@@Z 10394b40 f   Physics_AF.obj
 0002:001cabb0       ?Rotate@idAFConstraint_PyramidLimit@@UAEXABVidRotation@@@Z 10394bb0 f   Physics_AF.obj
 0002:001caca0       ?DebugDraw@idAFConstraint_PyramidLimit@@UAEXXZ 10394ca0 f   Physics_AF.obj
 0002:001cb3f0       ?Save@idAFConstraint_PyramidLimit@@UBEXPAVidSaveGame@@@Z 103953f0 f   Physics_AF.obj
 0002:001cb530       ?Restore@idAFConstraint_PyramidLimit@@UAEXPAVidRestoreGame@@@Z 10395530 f   Physics_AF.obj
 0002:001cb660       ??0idAFConstraint_Suspension@@QAE@XZ 10395660 f   Physics_AF.obj
 0002:001cb890       ??_GidAFConstraint_Suspension@@UAEPAXI@Z 10395890 f i Physics_AF.obj
 0002:001cb890       ??_EidAFConstraint_Suspension@@UAEPAXI@Z 10395890 f i Physics_AF.obj
 0002:001cb900       ??1idAFConstraint_Suspension@@UAE@XZ 10395900 f i Physics_AF.obj
 0002:001cb950       ?Setup@idAFConstraint_Suspension@@QAEXPBDPAVidAFBody@@ABVidVec3@@ABVidMat3@@PAVidClipModel@@@Z 10395950 f   Physics_AF.obj
 0002:001cba80       ?SetSuspension@idAFConstraint_Suspension@@QAEXMMMMM@Z 10395a80 f   Physics_AF.obj
 0002:001cbb10       ?GetWheelOrigin@idAFConstraint_Suspension@@QBE?BVidVec3@@XZ 10395b10 f   Physics_AF.obj
 0002:001cbbb0       ?Evaluate@idAFConstraint_Suspension@@MAEXM@Z 10395bb0 f   Physics_AF.obj
 0002:001ccbb0       ?ApplyFriction@idAFConstraint_Suspension@@MAEXM@Z 10396bb0 f   Physics_AF.obj
 0002:001ccbf0       ?Translate@idAFConstraint_Suspension@@UAEXABVidVec3@@@Z 10396bf0 f   Physics_AF.obj
 0002:001ccc30       ?Rotate@idAFConstraint_Suspension@@UAEXABVidRotation@@@Z 10396c30 f   Physics_AF.obj
 0002:001ccc70       ?DebugDraw@idAFConstraint_Suspension@@UAEXXZ 10396c70 f   Physics_AF.obj
 0002:001cd030       ??0idAFBody@@QAE@XZ        10397030 f   Physics_AF.obj
 0002:001cd250       ??0AFBodyPState_s@@QAE@XZ  10397250 f i Physics_AF.obj
 0002:001cd2d0       ??0idAFBody@@QAE@ABVidStr@@PAVidClipModel@@M@Z 103972d0 f   Physics_AF.obj
 0002:001cd600       ??4AFBodyPState_s@@QAEAAU0@ABU0@@Z 10397600 f i Physics_AF.obj
 0002:001cd6f0       ??1idAFBody@@QAE@XZ        103976f0 f   Physics_AF.obj
 0002:001cd8a0       ?Init@idAFBody@@QAEXXZ     103978a0 f   Physics_AF.obj
 0002:001cdc70       ?SetClipModel@idAFBody@@QAEXPAVidClipModel@@@Z 10397c70 f   Physics_AF.obj
 0002:001cdd30       ?SetFriction@idAFBody@@QAEXMMM@Z 10397d30 f   Physics_AF.obj
 0002:001cde40       ?SetBouncyness@idAFBody@@QAEXM@Z 10397e40 f   Physics_AF.obj
 0002:001cdee0       ?SetDensity@idAFBody@@QAEXMABVidMat3@@@Z 10397ee0 f   Physics_AF.obj
 0002:001ce300       ?IsDiagonal@idMat3@@QBE_NM@Z 10398300 f i Physics_AF.obj
 0002:001ce460       ?Inverse@idMat3@@QBE?AV1@XZ 10398460 f i Physics_AF.obj
 0002:001ce550       ?SetFrictionDirection@idAFBody@@QAEXABVidVec3@@@Z 10398550 f   Physics_AF.obj
 0002:001ce600       ?GetFrictionDirection@idAFBody@@QBE_NAAVidVec3@@@Z 10398600 f   Physics_AF.obj
 0002:001ce6b0       ?SetContactMotorDirection@idAFBody@@QAEXABVidVec3@@@Z 103986b0 f   Physics_AF.obj
 0002:001ce760       ?GetContactMotorDirection@idAFBody@@QBE_NAAVidVec3@@@Z 10398760 f   Physics_AF.obj
 0002:001ce810       ?GetPointVelocity@idAFBody@@QBE?AVidVec3@@ABV2@@Z 10398810 f   Physics_AF.obj
 0002:001ce900       ?AddForce@idAFBody@@QAEXABVidVec3@@0@Z 10398900 f   Physics_AF.obj
 0002:001ce9d0       ?InverseWorldSpatialInertiaMultiply@idAFBody@@QBEXAAVidVecX@@PBM@Z 103989d0 f i Physics_AF.obj
 0002:001ceb80       ?ToFloatPtr@idMatX@@QBEPBMXZ 10398b80 f i Physics_AF.obj
 0002:001cebc0       ?Save@idAFBody@@QAEXPAVidSaveGame@@@Z 10398bc0 f   Physics_AF.obj
 0002:001cedb0       ?Restore@idAFBody@@QAEXPAVidRestoreGame@@@Z 10398db0 f   Physics_AF.obj
 0002:001cefa0       ?Factor@idAFTree@@QBEXXZ   10398fa0 f   Physics_AF.obj
 0002:001cf710       ??4idMatX@@QAEAAV0@ABV0@@Z 10399710 f i Physics_AF.obj
 0002:001cf7d0       ??DidMatX@@QBE?AV0@ABV0@@Z 103997d0 f i Physics_AF.obj
 0002:001cf960       ??ZidMatX@@QAEAAV0@ABV0@@Z 10399960 f i Physics_AF.obj
 0002:001cfa50       ?SetTempSize@idMatX@@AAEXHH@Z 10399a50 f i Physics_AF.obj
 0002:001cfb90       ?SetData@idMatX@@QAEXHHPAM@Z 10399b90 f i Physics_AF.obj
 0002:001cfd00       ?Negate@idMatX@@QAEXXZ     10399d00 f i Physics_AF.obj
 0002:001cfd80       ?InverseFastSelf@idMatX@@QAE_NXZ 10399d80 f i Physics_AF.obj
 0002:001cff10       ?TransposeMultiply@idMatX@@QBE?AV1@ABV1@@Z 10399f10 f i Physics_AF.obj
 0002:001d00a0       ?Multiply@idMatX@@QBEXAAV1@ABV1@@Z 1039a0a0 f i Physics_AF.obj
 0002:001d0120       ?Solve@idAFTree@@QBEXH@Z   1039a120 f   Physics_AF.obj
 0002:001d05e0       ??4idVecX@@QAEAAV0@ABV0@@Z 1039a5e0 f i Physics_AF.obj
 0002:001d0690       ??DidMatX@@QBE?AVidVecX@@ABV1@@Z 1039a690 f i Physics_AF.obj
 0002:001d0820       ?GetSize@idVecX@@QBEHXZ    1039a820 f i Physics_AF.obj
 0002:001d0860       ?SetTempSize@idVecX@@AAEXH@Z 1039a860 f i Physics_AF.obj
 0002:001d0990       ?MultiplySub@idMatX@@QBEXAAVidVecX@@ABV2@@Z 1039a990 f i Physics_AF.obj
 0002:001d0a10       ?TransposeMultiplySub@idMatX@@QBEXAAVidVecX@@ABV2@@Z 1039aa10 f i Physics_AF.obj
 0002:001d0a90       ?Response@idAFTree@@QBEXPBVidAFConstraint@@HH@Z 1039aa90 f   Physics_AF.obj
 0002:001d1270       ?Zero@idVec6@@QAEXXZ       1039b270 f i Physics_AF.obj
 0002:001d12f0       ??AidMatX@@QBEPBMH@Z       1039b2f0 f i Physics_AF.obj
 0002:001d1390       ?Multiply@idMatX@@QBEXAAVidVecX@@ABV2@@Z 1039b390 f i Physics_AF.obj
 0002:001d1410       ?MultiplyAdd@idMatX@@QBEXAAVidVecX@@ABV2@@Z 1039b410 f i Physics_AF.obj
 0002:001d1490       ?TransposeMultiplyAdd@idMatX@@QBEXAAVidVecX@@ABV2@@Z 1039b490 f i Physics_AF.obj
 0002:001d1510       ?SubVec6@idMatX@@QBEABVidVec6@@H@Z 1039b510 f i Physics_AF.obj
 0002:001d15c0       ?GetResponseForce@idAFBody@@QAEAAVidVec6@@H@Z 1039b5c0 f i Physics_AF.obj
 0002:001d1610       ?CalculateForces@idAFTree@@QBEXM@Z 1039b610 f   Physics_AF.obj
 0002:001d1b90       ??DidVec6@@QBE?AV0@M@Z     1039bb90 f i Physics_AF.obj
 0002:001d1c50       ??HidVec6@@QBE?AV0@ABV0@@Z 1039bc50 f i Physics_AF.obj
 0002:001d1d40       ??AidVec6@@QBEMH@Z         1039bd40 f i Physics_AF.obj
 0002:001d1d90       ??YidVec6@@QAEAAV0@ABV0@@Z 1039bd90 f i Physics_AF.obj
 0002:001d1e80       ??HidVecX@@QBE?AV0@ABV0@@Z 1039be80 f i Physics_AF.obj
 0002:001d2010       ??D@YA?AVidVecX@@MV0@@Z    1039c010 f i Physics_AF.obj
 0002:001d20d0       ??DidVecX@@QBE?AV0@M@Z     1039c0d0 f i Physics_AF.obj
 0002:001d2220       ?SetMaxSubTreeAuxiliaryIndex@idAFTree@@QAEXXZ 1039c220 f   Physics_AF.obj
 0002:001d2340       ?SortBodies_r@idAFTree@@QAEXAAV?$idList@PAVidAFBody@@@@PAVidAFBody@@@Z 1039c340 f   Physics_AF.obj
 0002:001d2430       ?SortBodies@idAFTree@@QAEXXZ 1039c430 f   Physics_AF.obj
 0002:001d2560       ?DebugDraw@idAFTree@@QBEXABVidVec4@@@Z 1039c560 f   Physics_AF.obj
 0002:001d2630       ?EvaluateConstraints@idPhysics_AF@@AAEXM@Z 1039c630 f   Physics_AF.obj
 0002:001d28c0       ?Transpose@idMatX@@QBE?AV1@XZ 1039c8c0 f i Physics_AF.obj
 0002:001d2a70       ?EvaluateBodies@idPhysics_AF@@AAEXM@Z 1039ca70 f   Physics_AF.obj
 0002:001d2e90       ?InverseFast@idMatX@@QBE?AV1@XZ 1039ce90 f i Physics_AF.obj
 0002:001d3030       ?AddFrameConstraints@idPhysics_AF@@AAEXXZ 1039d030 f   Physics_AF.obj
 0002:001d30d0       ?RemoveFrameConstraints@idPhysics_AF@@AAEXXZ 1039d0d0 f   Physics_AF.obj
 0002:001d3170       ?ApplyFriction@idPhysics_AF@@AAEXMM@Z 1039d170 f   Physics_AF.obj
 0002:001d35a0       ?PrimaryFactor@idPhysics_AF@@AAEXXZ 1039d5a0 f   Physics_AF.obj
 0002:001d3630       ?PrimaryForces@idPhysics_AF@@AAEXM@Z 1039d630 f   Physics_AF.obj
 0002:001d36d0       ?AuxiliaryForces@idPhysics_AF@@AAEXM@Z 1039d6d0 f   Physics_AF.obj
 0002:001d50e0       ?ToFloatPtr@idMatX@@QAEPAMXZ 1039f0e0 f i Physics_AF.obj
 0002:001d5120       ?VerifyContactConstraints@idPhysics_AF@@AAEXXZ 1039f120 f   Physics_AF.obj
 0002:001d53e0       ?Evolve@idPhysics_AF@@AAEXM@Z 1039f3e0 f   Physics_AF.obj
 0002:001d59e0       ??D@YA?AVidVec6@@MV0@@Z    1039f9e0 f i Physics_AF.obj
 0002:001d5a40       ?OrthoNormalizeSelf@idMat3@@QAEAAV1@XZ 1039fa40 f i Physics_AF.obj
 0002:001d5af0       ?CollisionImpulse@idPhysics_AF@@AAE_NMPAVidAFBody@@AAUtrace_s@@@Z 1039faf0 f   Physics_AF.obj
 0002:001d6010       ?ApplyCollisions@idPhysics_AF@@AAE_NM@Z 103a0010 f   Physics_AF.obj
 0002:001d60e0       ?SetupCollisionForBody@idPhysics_AF@@ABEPAVidEntity@@PAVidAFBody@@@Z 103a00e0 f   Physics_AF.obj
 0002:001d6420       ?CheckForCollisions@idPhysics_AF@@AAEXM@Z 103a0420 f   Physics_AF.obj
 0002:001d6770       ?TransposeMultiply@@YAXABVidMat3@@0AAV1@@Z 103a0770 f i Physics_AF.obj
 0002:001d6d70       ?EvaluateContacts@idPhysics_AF@@UAE_NXZ 103a0d70 f   Physics_AF.obj
 0002:001d73b0       ??0idVecX@@QAE@HPAM@Z      103a13b0 f i Physics_AF.obj
 0002:001d7440       ?SetupContactConstraints@idPhysics_AF@@AAEXXZ 103a1440 f   Physics_AF.obj
 0002:001d7640       ?ApplyContactForces@idPhysics_AF@@AAEXXZ 103a1640 f   Physics_AF.obj
 0002:001d7680       ?ClearExternalForce@idPhysics_AF@@AAEXXZ 103a1680 f   Physics_AF.obj
 0002:001d7740       ?AddGravity@idPhysics_AF@@AAEXXZ 103a1740 f   Physics_AF.obj
 0002:001d7830       ?SwapStates@idPhysics_AF@@AAEXXZ 103a1830 f   Physics_AF.obj
 0002:001d78f0       ?UpdateClipModels@idPhysics_AF@@QAEXXZ 103a18f0 f   Physics_AF.obj
 0002:001d79d0       ?SetSuspendSpeed@idPhysics_AF@@QAEXABVidVec2@@0@Z 103a19d0 f   Physics_AF.obj
 0002:001d7a40       ?SetSuspendTime@idPhysics_AF@@QAEXMM@Z 103a1a40 f   Physics_AF.obj
 0002:001d7aa0       ?SetSuspendTolerance@idPhysics_AF@@QAEXMMM@Z 103a1aa0 f   Physics_AF.obj
 0002:001d7b10       ?SetTimeScaleRamp@idPhysics_AF@@QAEXMM@Z 103a1b10 f   Physics_AF.obj
 0002:001d7b70       ?SetJointFrictionDent@idPhysics_AF@@QAEXMMM@Z 103a1b70 f   Physics_AF.obj
 0002:001d7be0       ?GetJointFrictionScale@idPhysics_AF@@QBEMXZ 103a1be0 f   Physics_AF.obj
 0002:001d7cb0       ?SetContactFrictionDent@idPhysics_AF@@QAEXMMM@Z 103a1cb0 f   Physics_AF.obj
 0002:001d7d20       ?GetContactFrictionScale@idPhysics_AF@@QBEMXZ 103a1d20 f   Physics_AF.obj
 0002:001d7df0       ?TestIfAtRest@idPhysics_AF@@AAE_NM@Z 103a1df0 f   Physics_AF.obj
 0002:001d8340       ?Rest@idPhysics_AF@@AAEXXZ 103a2340 f   Physics_AF.obj
 0002:001d8430       ?Activate@idPhysics_AF@@UAEXXZ 103a2430 f   Physics_AF.obj
 0002:001d84d0       ?PutToRest@idPhysics_AF@@UAEXXZ 103a24d0 f   Physics_AF.obj
 0002:001d8520       ?EnableImpact@idPhysics_AF@@QAEXXZ 103a2520 f   Physics_AF.obj
 0002:001d8570       ?DisableImpact@idPhysics_AF@@QAEXXZ 103a2570 f   Physics_AF.obj
 0002:001d85c0       ?AddPushVelocity@idPhysics_AF@@AAEXABVidVec6@@@Z 103a25c0 f   Physics_AF.obj
 0002:001d8680       ??9idVec6@@QBE_NABV0@@Z    103a2680 f i Physics_AF.obj
 0002:001d86e0       ?Compare@idVec6@@QBE_NABV1@@Z 103a26e0 f i Physics_AF.obj
 0002:001d8810       ?SetClipModel@idPhysics_AF@@UAEXPAVidClipModel@@MH_N@Z 103a2810 f   Physics_AF.obj
 0002:001d8850       ?GetClipModel@idPhysics_AF@@UBEPAVidClipModel@@H@Z 103a2850 f   Physics_AF.obj
 0002:001d88e0       ?GetNumClipModels@idPhysics_AF@@UBEHXZ 103a28e0 f   Physics_AF.obj
 0002:001d8940       ?SetMass@idPhysics_AF@@UAEXMH@Z 103a2940 f   Physics_AF.obj
 0002:001d89c0       ?GetMass@idPhysics_AF@@UBEMH@Z 103a29c0 f   Physics_AF.obj
 0002:001d8a50       ?SetContents@idPhysics_AF@@UAEXHH@Z 103a2a50 f   Physics_AF.obj
 0002:001d8b40       ?GetContents@idPhysics_AF@@UBEHH@Z 103a2b40 f   Physics_AF.obj
 0002:001d8c30       ?GetBounds@idPhysics_AF@@UBEABVidBounds@@H@Z 103a2c30 f   Physics_AF.obj
 0002:001d8f50       ?GetAbsBounds@idPhysics_AF@@UBEABVidBounds@@H@Z 103a2f50 f   Physics_AF.obj
 0002:001d9100       ?Evaluate@idPhysics_AF@@UAE_NHH@Z 103a3100 f   Physics_AF.obj
 0002:001d99f0       ?UpdateTime@idPhysics_AF@@UAEXH@Z 103a39f0 f   Physics_AF.obj
 0002:001d9a30       ?GetTime@idPhysics_AF@@UBEHXZ 103a3a30 f   Physics_AF.obj
 0002:001d9a70       ?DrawTraceModelSilhouette@@YAXABVidVec3@@PBVidClipModel@@@Z 103a3a70 f   Physics_AF.obj
 0002:001d9d60       ?DebugDraw@idPhysics_AF@@AAEXXZ 103a3d60 f   Physics_AF.obj
 0002:001dab90       ??0idPhysics_AF@@QAE@XZ    103a4b90 f   Physics_AF.obj
 0002:001db090       ?Set@idVec2@@QAEXMM@Z      103a5090 f i Physics_AF.obj
 0002:001db0e0       ??_EidPhysics_AF@@UAEPAXI@Z 103a50e0 f i Physics_AF.obj
 0002:001db0e0       ??_GidPhysics_AF@@UAEPAXI@Z 103a50e0 f i Physics_AF.obj
 0002:001db150       ??0AFPState_s@@QAE@XZ      103a5150 f i Physics_AF.obj
 0002:001db1b0       ??1idPhysics_AF@@UAE@XZ    103a51b0 f   Physics_AF.obj
 0002:001db5d0       ??_GidAFBody@@QAEPAXI@Z    103a55d0 f i Physics_AF.obj
 0002:001db640       ?idPhysics_AF_SavePState@@YAXPAVidSaveGame@@ABUAFPState_s@@@Z 103a5640 f   Physics_AF.obj
 0002:001db6e0       ?idPhysics_AF_RestorePState@@YAXPAVidRestoreGame@@AAUAFPState_s@@@Z 103a56e0 f   Physics_AF.obj
 0002:001db780       ?Save@idPhysics_AF@@QBEXPAVidSaveGame@@@Z 103a5780 f   Physics_AF.obj
 0002:001dbc40       ?Restore@idPhysics_AF@@QAEXPAVidRestoreGame@@@Z 103a5c40 f   Physics_AF.obj
 0002:001dc240       ?IsClosedLoop@idPhysics_AF@@ABE_NPBVidAFBody@@0@Z 103a6240 f   Physics_AF.obj
 0002:001dc2d0       ?BuildTrees@idPhysics_AF@@AAEXXZ 103a62d0 f   Physics_AF.obj
 0002:001dcb90       ??XidMat3@@QAEAAV0@M@Z     103a6b90 f i Physics_AF.obj
 0002:001dcc80       ??0idAFTree@@QAE@XZ        103a6c80 f i Physics_AF.obj
 0002:001dcce0       ?AddBody@idPhysics_AF@@QAEHPAVidAFBody@@@Z 103a6ce0 f   Physics_AF.obj
 0002:001dcec0       ?AddConstraint@idPhysics_AF@@QAEXPAVidAFConstraint@@@Z 103a6ec0 f   Physics_AF.obj
 0002:001dd0b0       ?AddFrameConstraint@idPhysics_AF@@QAEXPAVidAFConstraint@@@Z 103a70b0 f   Physics_AF.obj
 0002:001dd120       ?ForceBodyId@idPhysics_AF@@QAEXPAVidAFBody@@H@Z 103a7120 f   Physics_AF.obj
 0002:001dd220       ?GetBodyId@idPhysics_AF@@QBEHPAVidAFBody@@@Z 103a7220 f   Physics_AF.obj
 0002:001dd2c0       ?GetBodyId@idPhysics_AF@@QBEHPBD@Z 103a72c0 f   Physics_AF.obj
 0002:001dd380       ?GetConstraintId@idPhysics_AF@@QBEHPAVidAFConstraint@@@Z 103a7380 f   Physics_AF.obj
 0002:001dd420       ?GetConstraintId@idPhysics_AF@@QBEHPBD@Z 103a7420 f   Physics_AF.obj
 0002:001dd4f0       ?GetNumBodies@idPhysics_AF@@QBEHXZ 103a74f0 f   Physics_AF.obj
 0002:001dd550       ?GetNumConstraints@idPhysics_AF@@QBEHXZ 103a7550 f   Physics_AF.obj
 0002:001dd5b0       ?GetBody@idPhysics_AF@@QBEPAVidAFBody@@PBD@Z 103a75b0 f   Physics_AF.obj
 0002:001dd670       ?GetBody@idPhysics_AF@@QBEPAVidAFBody@@H@Z 103a7670 f   Physics_AF.obj
 0002:001dd710       ?GetConstraint@idPhysics_AF@@QBEPAVidAFConstraint@@PBD@Z 103a7710 f   Physics_AF.obj
 0002:001dd7d0       ?GetConstraint@idPhysics_AF@@QBEPAVidAFConstraint@@H@Z 103a77d0 f   Physics_AF.obj
 0002:001dd870       ?DeleteBody@idPhysics_AF@@QAEXPBD@Z 103a7870 f   Physics_AF.obj
 0002:001dd990       ?DeleteBody@idPhysics_AF@@QAEXH@Z 103a7990 f   Physics_AF.obj
 0002:001ddc10       ?DeleteConstraint@idPhysics_AF@@QAEXPBD@Z 103a7c10 f   Physics_AF.obj
 0002:001ddd30       ?DeleteConstraint@idPhysics_AF@@QAEXH@Z 103a7d30 f   Physics_AF.obj
 0002:001dde40       ?GetBodyContactConstraints@idPhysics_AF@@QBEHHQAPAVidAFConstraint_Contact@@H@Z 103a7e40 f   Physics_AF.obj
 0002:001ddf70       ?SetDefaultFriction@idPhysics_AF@@QAEXMMM@Z 103a7f70 f   Physics_AF.obj
 0002:001de050       ?GetImpactInfo@idPhysics_AF@@UBEXHABVidVec3@@PAUimpactInfo_s@@@Z 103a8050 f   Physics_AF.obj
 0002:001de270       ?ApplyImpulse@idPhysics_AF@@UAEXHABVidVec3@@0@Z 103a8270 f   Physics_AF.obj
 0002:001de530       ?AddForce@idPhysics_AF@@UAEXHABVidVec3@@0@Z 103a8530 f   Physics_AF.obj
 0002:001de680       ?IsAtRest@idPhysics_AF@@UBE_NXZ 103a8680 f   Physics_AF.obj
 0002:001de6d0       ?GetRestStartTime@idPhysics_AF@@UBEHXZ 103a86d0 f   Physics_AF.obj
 0002:001de710       ?IsPushable@idPhysics_AF@@UBE_NXZ 103a8710 f   Physics_AF.obj
 0002:001de7a0       ?SaveState@idPhysics_AF@@UAEXXZ 103a87a0 f   Physics_AF.obj
 0002:001de880       ?RestoreState@idPhysics_AF@@UAEXXZ 103a8880 f   Physics_AF.obj
 0002:001de970       ?SetOrigin@idPhysics_AF@@UAEXABVidVec3@@H@Z 103a8970 f   Physics_AF.obj
 0002:001deab0       ?SetAxis@idPhysics_AF@@UAEXABVidMat3@@H@Z 103a8ab0 f   Physics_AF.obj
 0002:001deca0       ?Translate@idPhysics_AF@@UAEXABVidVec3@@H@Z 103a8ca0 f   Physics_AF.obj
 0002:001dedf0       ?Rotate@idPhysics_AF@@UAEXABVidRotation@@H@Z 103a8df0 f   Physics_AF.obj
